 Project2

 Timestamp is 67bb2173 (Mon Feb 24 00:24:03 2025)

 Preferred load address is 0000000140000000

 Start         Length     Name                   Class
 0001:00000000 0000d673H .text                   CODE
 0001:0000d680 00000019H .text$_ZNSt3__112basic_stringIcNS_11char_traitsIcEENS_9allocatorIcEEEC1B6v15007Ev CODE
 0001:0000d6a0 00000030H .text$_ZN3Fmx8Graphics11TBitmapDataC1Ev CODE
 0001:0000d6d0 00000019H .text$_ZNSt3__13mapIiNS_4pairIiiEENS_4lessIiEENS_9allocatorINS1_IKiS2_EEEEEC1B6v15007Ev CODE
 0001:0000d6f0 00000019H .text$_ZNSt3__13mapIiNS_4pairIiiEENS_4lessIiEENS_9allocatorINS1_IKiS2_EEEEED1B6v15007Ev CODE
 0001:0000d710 0000002cH .text$_ZNSt3__19make_pairB6v15007IRiS1_EENS_4pairINS_18__unwrap_ref_decayIT_E4typeENS3_IT0_E4typeEEEOS4_OS7_ CODE
 0001:0000d740 00000084H .text$_ZNSt3__13mapIiNS_4pairIiiEENS_4lessIiEENS_9allocatorINS1_IKiS2_EEEEEixERS6_ CODE
 0001:0000d7d0 00000029H .text$_ZNSt3__14pairIiiEaSB6v15007EOS1_ CODE
 0001:0000d800 00000023H .text$_ZNSt3__16vectorI7RikishiNS_9allocatorIS1_EEEC1ERKS4_ CODE
 0001:0000d830 00000025H .text$_ZNSt3__16vectorI7RikishiNS_9allocatorIS1_EEE5beginB6v15007Ev CODE
 0001:0000d860 00000026H .text$_ZNSt3__16vectorI7RikishiNS_9allocatorIS1_EEE3endB6v15007Ev CODE
 0001:0000d890 0000001fH .text$_ZNKSt3__16vectorI7RikishiNS_9allocatorIS1_EEE4sizeB6v15007Ev CODE
 0001:0000d8b0 00000025H .text$_ZNSt3__16vectorI7RikishiNS_9allocatorIS1_EEEixB6v15007Ey CODE
 0001:0000d8e0 00000024H .text$_ZNKSt3__112basic_stringIcNS_11char_traitsIcEENS_9allocatorIcEEE5emptyB6v15007Ev CODE
 0001:0000d910 00000022H .text$_ZNSt3__112basic_stringIcNS_11char_traitsIcEENS_9allocatorIcEEEixB6v15007Ey CODE
 0001:0000d940 0000002aH .text$_ZNSt3__112basic_stringIcNS_11char_traitsIcEENS_9allocatorIcEEEpLB6v15007Ec CODE
 0001:0000d970 0000003bH .text$_ZNSt3__112basic_stringIcNS_11char_traitsIcEENS_9allocatorIcEEE4backB6v15007Ev CODE
 0001:0000d9b0 0000002bH .text$_ZNKSt3__112basic_stringIcNS_11char_traitsIcEENS_9allocatorIcEEE12find_last_ofB6v15007Ecy CODE
 0001:0000d9e0 00000070H .text$_ZNKSt3__112basic_stringIcNS_11char_traitsIcEENS_9allocatorIcEEE6substrB6v15007Eyy CODE
 0001:0000da50 00000023H .text$_ZNSt3__112basic_stringIcNS_11char_traitsIcEENS_9allocatorIcEEEpLB6v15007ERKS5_ CODE
 0001:0000da80 00000019H .text$_ZNKSt3__112basic_stringIcNS_11char_traitsIcEENS_9allocatorIcEEE5c_strB6v15007Ev CODE
 0001:0000daa0 00000044H .text$_ZN6System11AnsiStringTILt0EEC1EPKc CODE
 0001:0000daf0 00000098H .text$_ZNK6System11AnsiStringTILt0EEplERKS1_ CODE
 0001:0000db90 00000030H .text$_ZN6System11AnsiStringTILt0EEC1Ev CODE
 0001:0000dbc0 00000040H .text$_ZN6System11AnsiStringTILt0EEC1Ei CODE
 0001:0000dc00 00000019H .text$_ZN6System11AnsiStringTILt0EED1Ev CODE
 0001:0000dc20 00000044H .text$_ZN6System13UnicodeStringC1ILt0EEERKNS_11AnsiStringTIXT_EEE CODE
 0001:0000dc70 00000019H .text$_ZNSt3__16vectorI7RikishiNS_9allocatorIS1_EEED1B6v15007Ev CODE
 0001:0000dc90 00000023H .text$_ZNSt3__112basic_stringIcNS_11char_traitsIcEENS_9allocatorIcEEEC1B6v15007IDnEEPKc CODE
 0001:0000dcc0 00000019H .text$_ZNSt3__16vectorINS_12basic_stringIcNS_11char_traitsIcEENS_9allocatorIcEEEENS4_IS6_EEEC1B6v15007ESt16initializer_listIS6_E CODE
 0001:0000dce0 0000002dH .text$_ZNSt3__14pairIiiEC1B6v15007IiiLPv0EEEOT_OT0_ CODE
 0001:0000dd10 00000019H .text$_ZNSt3__16vectorINS_4pairIiiEENS_9allocatorIS2_EEEC1B6v15007ESt16initializer_listIS2_E CODE
 0001:0000dd30 00000019H .text$_ZNSt3__16vectorINS_4pairIiiEENS_9allocatorIS2_EEED1B6v15007Ev CODE
 0001:0000dd50 00000025H .text$_ZNSt3__16vectorINS_4pairIiiEENS_9allocatorIS2_EEEixB6v15007Ey CODE
 0001:0000dd80 00000046H .text$_ZNSt3__1plB6v15007IcNS_11char_traitsIcEENS_9allocatorIcEEEENS_12basic_stringIT_T0_T1_EEOS9_RKS9_ CODE
 0001:0000ddd0 00000125H .text$_ZNSt3__1plB6v15007IcNS_11char_traitsIcEENS_9allocatorIcEEEENS_12basic_stringIT_T0_T1_EERKS9_PKS6_ CODE
 0001:0000df00 00000022H .text$_ZNSt3__16vectorINS_12basic_stringIcNS_11char_traitsIcEENS_9allocatorIcEEEENS4_IS6_EEEixB6v15007Ey CODE
 0001:0000df30 00000019H .text$_ZNSt3__16vectorINS_12basic_stringIcNS_11char_traitsIcEENS_9allocatorIcEEEENS4_IS6_EEED1B6v15007Ev CODE
 0001:0000df50 0000002dH .text$_ZNSt3__111basic_regexIcNS_12regex_traitsIcEEEC1B6v15007EPKcNS_15regex_constants18syntax_option_typeE CODE
 0001:0000df80 00000044H .text$_ZN6System11AnsiStringTILt0EEC1ERKNS_13UnicodeStringE CODE
 0001:0000dfd0 00000043H .text$_ZNK6System11AnsiStringTILt0EE5c_strEv CODE
 0001:0000e020 00000032H .text$_ZNSt3__113match_resultsINS_11__wrap_iterIPKcEENS_9allocatorINS_9sub_matchIS4_EEEEEC1Ev CODE
 0001:0000e060 00000173H .text$_ZNSt3__112regex_searchB6v15007INS_11char_traitsIcEENS_9allocatorIcEENS3_INS_9sub_matchINS_11__wrap_iterIPKcEEEEEEcNS_12regex_traitsIcEEEEbRKNS_12basic_stringIT2_T_T0_EERNS_13match_resultsINSI_14const_iteratorET1_EERKNS_11basic_regexISF_T3_EENS_15regex_constants15match_flag_typeE CODE
 0001:0000e1e0 00000046H .text$_ZNKSt3__113match_resultsINS_11__wrap_iterIPKcEENS_9allocatorINS_9sub_matchIS4_EEEEE3strB6v15007Ey CODE
 0001:0000e230 00000019H .text$_ZNSt3__113match_resultsINS_11__wrap_iterIPKcEENS_9allocatorINS_9sub_matchIS4_EEEEED1Ev CODE
 0001:0000e250 000000a2H .text$_ZNSt3__1eqB6v15007IcNS_11char_traitsIcEENS_9allocatorIcEEEEbRKNS_12basic_stringIT_T0_T1_EEPKS6_ CODE
 0001:0000e300 00000019H .text$_ZNSt3__111basic_regexIcNS_12regex_traitsIcEEED1Ev CODE
 0001:0000e320 00000078H .text$_ZNKSt3__112basic_stringIcNS_11char_traitsIcEENS_9allocatorIcEEE4findB6v15007EPKcy CODE
 0001:0000e3a0 0000002dH .text$_ZNSt3__14pairIKNS_12basic_stringIcNS_11char_traitsIcEENS_9allocatorIcEEEES6_EC1B6v15007IRA2_KcRA9_SA_LPv0EEEOT_OT0_ CODE
 0001:0000e3d0 0000002dH .text$_ZNSt3__14pairIKNS_12basic_stringIcNS_11char_traitsIcEENS_9allocatorIcEEEES6_EC1B6v15007IRA2_KcRA6_SA_LPv0EEEOT_OT0_ CODE
 0001:0000e400 0000002dH .text$_ZNSt3__14pairIKNS_12basic_stringIcNS_11char_traitsIcEENS_9allocatorIcEEEES6_EC1B6v15007IRA3_KcRA13_SA_LPv0EEEOT_OT0_ CODE
 0001:0000e430 0000002dH .text$_ZNSt3__14pairIKNS_12basic_stringIcNS_11char_traitsIcEENS_9allocatorIcEEEES6_EC1B6v15007IRA4_KcRA14_SA_LPv0EEEOT_OT0_ CODE
 0001:0000e460 0000002dH .text$_ZNSt3__14pairIKNS_12basic_stringIcNS_11char_traitsIcEENS_9allocatorIcEEEES6_EC1B6v15007IRA3_KcRA8_SA_LPv0EEEOT_OT0_ CODE
 0001:0000e490 00000019H .text$_ZNSt3__14pairIKNS_12basic_stringIcNS_11char_traitsIcEENS_9allocatorIcEEEES6_ED1Ev CODE
 0001:0000e4b0 00000019H .text$_ZNSt3__113unordered_mapINS_12basic_stringIcNS_11char_traitsIcEENS_9allocatorIcEEEES6_NS_4hashIS6_EENS_8equal_toIS6_EENS4_INS_4pairIKS6_S6_EEEEEC1ESt16initializer_listISD_E CODE
 0001:0000e4d0 0000003bH .text$_ZNSt3__113unordered_mapINS_12basic_stringIcNS_11char_traitsIcEENS_9allocatorIcEEEES6_NS_4hashIS6_EENS_8equal_toIS6_EENS4_INS_4pairIKS6_S6_EEEEE4findB6v15007ERSC_ CODE
 0001:0000e510 00000027H .text$_ZNSt3__1neB6v15007ERKNS_19__hash_map_iteratorINS_15__hash_iteratorIPNS_11__hash_nodeINS_17__hash_value_typeINS_12basic_stringIcNS_11char_traitsIcEENS_9allocatorIcEEEES9_EEPvEEEEEESH_ CODE
 0001:0000e540 00000031H .text$_ZNSt3__113unordered_mapINS_12basic_stringIcNS_11char_traitsIcEENS_9allocatorIcEEEES6_NS_4hashIS6_EENS_8equal_toIS6_EENS4_INS_4pairIKS6_S6_EEEEE3endB6v15007Ev CODE
 0001:0000e580 00000029H .text$_ZNKSt3__119__hash_map_iteratorINS_15__hash_iteratorIPNS_11__hash_nodeINS_17__hash_value_typeINS_12basic_stringIcNS_11char_traitsIcEENS_9allocatorIcEEEES9_EEPvEEEEEptB6v15007Ev CODE
 0001:0000e5b0 00000029H .text$_ZNSt3__1neB6v15007IP7RikishiEEbRKNS_11__wrap_iterIT_EES7_ CODE
 0001:0000e5e0 0000000eH .text$_ZNKSt3__111__wrap_iterIP7RikishiEdeB6v15007Ev CODE
 0001:0000e5f0 00000120H .text$_ZNSt3__1eqB6v15007INS_9allocatorIcEEEEbRKNS_12basic_stringIcNS_11char_traitsIcEET_EES9_ CODE
 0001:0000e710 00000018H .text$_ZNSt3__111__wrap_iterIP7RikishiEppB6v15007Ev CODE
 0001:0000e730 0000008dH .text$_ZN6SystemplILt0EEENS_11AnsiStringTIXT_EEEPKcRKS2_ CODE
 0001:0000e7c0 00000019H .text$_ZNSt3__113unordered_mapINS_12basic_stringIcNS_11char_traitsIcEENS_9allocatorIcEEEES6_NS_4hashIS6_EENS_8equal_toIS6_EENS4_INS_4pairIKS6_S6_EEEEED1B6v15007Ev CODE
 0001:0000e7e0 00000070H .text$_ZNSt3__113random_deviceC1Ev CODE
 0001:0000e850 00000021H .text$_ZNSt3__123mersenne_twister_engineIjLy32ELy624ELy397ELy31ELj2567483615ELy11ELj4294967295ELy7ELj2636928640ELy15ELj4022730752ELy18ELj1812433253EEC1B6v15007Ej CODE
 0001:0000e880 0000002bH .text$_ZNSt3__124uniform_int_distributionIiEC1Eii CODE
 0001:0000e8b0 00000026H .text$_ZNSt3__124uniform_int_distributionIiEclINS_23mersenne_twister_engineIjLy32ELy624ELy397ELy31ELj2567483615ELy11ELj4294967295ELy7ELj2636928640ELy15ELj4022730752ELy18ELj1812433253EEEEEiRT_ CODE
 0001:0000e8e0 00000025H .text$_ZNKSt3__16vectorINS_12basic_stringIcNS_11char_traitsIcEENS_9allocatorIcEEEENS4_IS6_EEE5beginB6v15007Ev CODE
 0001:0000e910 00000026H .text$_ZNKSt3__16vectorINS_12basic_stringIcNS_11char_traitsIcEENS_9allocatorIcEEEENS4_IS6_EEE3endB6v15007Ev CODE
 0001:0000e940 00000029H .text$_ZNSt3__1neB6v15007IPKNS_12basic_stringIcNS_11char_traitsIcEENS_9allocatorIcEEEEEEbRKNS_11__wrap_iterIT_EESD_ CODE
 0001:0000e970 0000000eH .text$_ZNKSt3__111__wrap_iterIPKNS_12basic_stringIcNS_11char_traitsIcEENS_9allocatorIcEEEEEdeB6v15007Ev CODE
 0001:0000e980 00000029H .text$_ZNSt3__1neB6v15007IcNS_11char_traitsIcEENS_9allocatorIcEEEEbRKNS_12basic_stringIT_T0_T1_EESB_ CODE
 0001:0000e9b0 00000015H .text$_ZNSt3__111__wrap_iterIPKNS_12basic_stringIcNS_11char_traitsIcEENS_9allocatorIcEEEEEppB6v15007Ev CODE
 0001:0000e9d0 00000022H .text$_ZNKSt3__16vectorINS_12basic_stringIcNS_11char_traitsIcEENS_9allocatorIcEEEENS4_IS6_EEEixB6v15007Ey CODE
 0001:0000ea00 0000001fH .text$_ZNKSt3__16vectorINS_12basic_stringIcNS_11char_traitsIcEENS_9allocatorIcEEEENS4_IS6_EEE4sizeB6v15007Ev CODE
 0001:0000ea20 00000019H .text$_ZNSt3__113unordered_setINS_12basic_stringIcNS_11char_traitsIcEENS_9allocatorIcEEEENS_4hashIS6_EENS_8equal_toIS6_EENS4_IS6_EEEC1ESt16initializer_listIS6_E CODE
 0001:0000ea40 0000002dH .text$_ZNSt3__14pairIKNS_12basic_stringIcNS_11char_traitsIcEENS_9allocatorIcEEEENS_13unordered_setIS6_NS_4hashIS6_EENS_8equal_toIS6_EENS4_IS6_EEEEEC1B6v15007ILb1ELPv0EEERS7_RKSE_ CODE
 0001:0000ea70 00000019H .text$_ZNSt3__113unordered_mapINS_12basic_stringIcNS_11char_traitsIcEENS_9allocatorIcEEEENS_13unordered_setIS6_NS_4hashIS6_EENS_8equal_toIS6_EENS4_IS6_EEEES9_SB_NS4_INS_4pairIKS6_SD_EEEEEC1ESt16initializer_listISG_E CODE
 0001:0000ea90 00000019H .text$_ZNSt3__14pairIKNS_12basic_stringIcNS_11char_traitsIcEENS_9allocatorIcEEEENS_13unordered_setIS6_NS_4hashIS6_EENS_8equal_toIS6_EENS4_IS6_EEEEED1Ev CODE
 0001:0000eab0 00000019H .text$_ZNSt3__113unordered_setINS_12basic_stringIcNS_11char_traitsIcEENS_9allocatorIcEEEENS_4hashIS6_EENS_8equal_toIS6_EENS4_IS6_EEED1B6v15007Ev CODE
 0001:0000ead0 00000019H .text$_ZNSt3__113unordered_mapINS_12basic_stringIcNS_11char_traitsIcEENS_9allocatorIcEEEENS_13unordered_setIS6_NS_4hashIS6_EENS_8equal_toIS6_EENS4_IS6_EEEES9_SB_NS4_INS_4pairIKS6_SD_EEEEED1B6v15007Ev CODE
 0001:0000eaf0 0000003bH .text$_ZNKSt3__113unordered_mapINS_12basic_stringIcNS_11char_traitsIcEENS_9allocatorIcEEEENS_13unordered_setIS6_NS_4hashIS6_EENS_8equal_toIS6_EENS4_IS6_EEEES9_SB_NS4_INS_4pairIKS6_SD_EEEEE4findB6v15007ERSF_ CODE
 0001:0000eb30 00000027H .text$_ZNSt3__1neB6v15007ERKNS_25__hash_map_const_iteratorINS_21__hash_const_iteratorIPNS_11__hash_nodeINS_17__hash_value_typeINS_12basic_stringIcNS_11char_traitsIcEENS_9allocatorIcEEEENS_13unordered_setIS9_NS_4hashIS9_EENS_8equal_toIS9_EENS7_IS9_EEEEEEPvEEEEEESO_ CODE
 0001:0000eb60 00000031H .text$_ZNKSt3__113unordered_mapINS_12basic_stringIcNS_11char_traitsIcEENS_9allocatorIcEEEENS_13unordered_setIS6_NS_4hashIS6_EENS_8equal_toIS6_EENS4_IS6_EEEES9_SB_NS4_INS_4pairIKS6_SD_EEEEE3endB6v15007Ev CODE
 0001:0000eba0 00000029H .text$_ZNKSt3__125__hash_map_const_iteratorINS_21__hash_const_iteratorIPNS_11__hash_nodeINS_17__hash_value_typeINS_12basic_stringIcNS_11char_traitsIcEENS_9allocatorIcEEEENS_13unordered_setIS9_NS_4hashIS9_EENS_8equal_toIS9_EENS7_IS9_EEEEEEPvEEEEEptB6v15007Ev CODE
 0001:0000ebd0 00000023H .text$_ZNKSt3__113unordered_setINS_12basic_stringIcNS_11char_traitsIcEENS_9allocatorIcEEEENS_4hashIS6_EENS_8equal_toIS6_EENS4_IS6_EEE5countB6v15007ERKS6_ CODE
 0001:0000ec00 00000023H .text$_ZNSt3__112basic_stringIcNS_11char_traitsIcEENS_9allocatorIcEEEaSB6v15007EPKc CODE
 0001:0000ec30 00000075H .text$_ZN3Fmx5Forms5TFormC3EPN6System7Classes10TComponentE CODE
 0001:0000ecb0 00000047H .text$_ZNK6System13UnicodeString5c_strEv CODE
 0001:0000ed00 00000027H .text$_ZNSt3__1neB6v15007ERKNS_14__map_iteratorINS_15__tree_iteratorINS_12__value_typeIiNS_4pairIiiEEEEPNS_11__tree_nodeIS5_PvEExEEEESD_ CODE
 0001:0000ed30 0000003bH .text$_ZNSt3__13mapIiNS_4pairIiiEENS_4lessIiEENS_9allocatorINS1_IKiS2_EEEEE4findB6v15007ERS6_ CODE
 0001:0000ed70 00000031H .text$_ZNSt3__13mapIiNS_4pairIiiEENS_4lessIiEENS_9allocatorINS1_IKiS2_EEEEE3endB6v15007Ev CODE
 0001:0000edb0 00000030H .text$_ZN6System3SetIN3Fmx8Graphics13TFillTextFlagELS3_0ELS3_0EEC1Ev CODE
 0001:0000ede0 0000004cH .text$_ZN12TBanzukeFormD0Ev CODE
 0001:0000ee30 0000007fH .text$_ZN3Fmx5Forms5TFormC3EPN6System7Classes10TComponentEx CODE
 0001:0000eeb0 00000007H .text$_ZN3Fmx8Graphics11TBitmapDataC2Ev CODE
 0001:0000eec0 0000002dH .text$_ZNSt3__14pairIiiEC1B6v15007IRiS3_LPv0EEEOT_OT0_ CODE
 0001:0000eef0 0000002eH .text$_ZNSt3__14pairIiiEC2B6v15007IRiS3_LPv0EEEOT_OT0_ CODE
 0001:0000ef20 0000002eH .text$_ZNSt3__14pairIiiEC2B6v15007IiiLPv0EEEOT_OT0_ CODE
 0001:0000ef50 00000019H .text$_ZNSt3__113match_resultsINS_11__wrap_iterIPKcEENS_9allocatorINS_9sub_matchIS4_EEEEED2Ev CODE
 0001:0000ef70 00000019H .text$_ZNSt3__16vectorINS_9sub_matchINS_11__wrap_iterIPKcEEEENS_9allocatorIS6_EEED1B6v15007Ev CODE
 0001:0000ef90 0000003aH .text$_ZNSt3__16vectorINS_9sub_matchINS_11__wrap_iterIPKcEEEENS_9allocatorIS6_EEED2B6v15007Ev CODE
 0001:0000efd0 00000023H .text$_ZNSt3__16vectorINS_9sub_matchINS_11__wrap_iterIPKcEEEENS_9allocatorIS6_EEE16__destroy_vectorC1ERS9_ CODE
 0001:0000f000 0000000eH .text$__clang_call_terminate CODE
 0001:0000f010 0000008cH .text$_ZNSt3__16vectorINS_9sub_matchINS_11__wrap_iterIPKcEEEENS_9allocatorIS6_EEE16__destroy_vectorclB6v15007Ev CODE
 0001:0000f0a0 0000001eH .text$_ZNSt3__16vectorINS_9sub_matchINS_11__wrap_iterIPKcEEEENS_9allocatorIS6_EEE16__destroy_vectorC2ERS9_ CODE
 0001:0000f0c0 000000c3H .text$_ZNKSt3__16vectorINS_9sub_matchINS_11__wrap_iterIPKcEEEENS_9allocatorIS6_EEE17__annotate_deleteB6v15007Ev CODE
 0001:0000f190 00000007H .text$_ZNSt3__118__debug_db_erase_cB6v15007INS_6vectorINS_9sub_matchINS_11__wrap_iterIPKcEEEENS_9allocatorIS7_EEEEEEvPT_ CODE
 0001:0000f1a0 0000001cH .text$_ZNSt3__16vectorINS_9sub_matchINS_11__wrap_iterIPKcEEEENS_9allocatorIS6_EEE7__clearB6v15007Ev CODE
 0001:0000f1c0 0000002dH .text$_ZNSt3__116allocator_traitsINS_9allocatorINS_9sub_matchINS_11__wrap_iterIPKcEEEEEEE10deallocateB6v15007ERS8_PS7_y CODE
 0001:0000f1f0 0000001dH .text$_ZNSt3__16vectorINS_9sub_matchINS_11__wrap_iterIPKcEEEENS_9allocatorIS6_EEE7__allocB6v15007Ev CODE
 0001:0000f210 00000035H .text$_ZNKSt3__16vectorINS_9sub_matchINS_11__wrap_iterIPKcEEEENS_9allocatorIS6_EEE8capacityB6v15007Ev CODE
 0001:0000f250 00000021H .text$_ZNKSt3__16vectorINS_9sub_matchINS_11__wrap_iterIPKcEEEENS_9allocatorIS6_EEE31__annotate_contiguous_containerB6v15007EPKvSB_SB_SB_ CODE
 0001:0000f280 0000001cH .text$_ZNKSt3__16vectorINS_9sub_matchINS_11__wrap_iterIPKcEEEENS_9allocatorIS6_EEE4dataB6v15007Ev CODE
 0001:0000f2a0 0000001fH .text$_ZNKSt3__16vectorINS_9sub_matchINS_11__wrap_iterIPKcEEEENS_9allocatorIS6_EEE4sizeB6v15007Ev CODE
 0001:0000f2c0 0000000bH .text$_ZNSt3__112__to_addressB6v15007INS_9sub_matchINS_11__wrap_iterIPKcEEEEEEPT_S8_ CODE
 0001:0000f2d0 00000086H .text$_ZNSt3__16vectorINS_9sub_matchINS_11__wrap_iterIPKcEEEENS_9allocatorIS6_EEE22__base_destruct_at_endB6v15007EPS6_ CODE
 0001:0000f360 00000023H .text$_ZNSt3__116allocator_traitsINS_9allocatorINS_9sub_matchINS_11__wrap_iterIPKcEEEEEEE7destroyB6v15007IS7_vEEvRS8_PT_ CODE
 0001:0000f390 00000012H .text$_ZNSt3__19allocatorINS_9sub_matchINS_11__wrap_iterIPKcEEEEE7destroyB6v15007EPS6_ CODE
 0001:0000f3b0 00000043H .text$_ZNSt3__19allocatorINS_9sub_matchINS_11__wrap_iterIPKcEEEEE10deallocateB6v15007EPS6_y CODE
 0001:0000f400 00000062H .text$_ZNSt3__119__libcpp_deallocateB6v15007EPvyy CODE
 0001:0000f470 00000014H .text$_ZNSt3__124__is_overaligned_for_newB6v15007Ey CODE
 0001:0000f490 00000028H .text$_ZNSt3__127__do_deallocate_handle_sizeB6v15007IJSt11align_val_tEEEvPvyDpT_ CODE
 0001:0000f4c0 0000001eH .text$_ZNSt3__127__do_deallocate_handle_sizeB6v15007IJEEEvPvyDpT_ CODE
 0001:0000f4e0 00000023H .text$_ZNSt3__124__libcpp_operator_deleteB6v15007IJPvSt11align_val_tEEEvDpT_ CODE
 0001:0000f510 00000019H .text$_ZNSt3__124__libcpp_operator_deleteB6v15007IJPvEEEvDpT_ CODE
 0001:0000f530 00000019H .text$_ZNSt3__117__compressed_pairIPNS_9sub_matchINS_11__wrap_iterIPKcEEEENS_9allocatorIS6_EEE6secondB6v15007Ev CODE
 0001:0000f550 0000000bH .text$_ZNSt3__122__compressed_pair_elemINS_9allocatorINS_9sub_matchINS_11__wrap_iterIPKcEEEEEELi1ELb1EE5__getB6v15007Ev CODE
 0001:0000f560 0000001dH .text$_ZNKSt3__16vectorINS_9sub_matchINS_11__wrap_iterIPKcEEEENS_9allocatorIS6_EEE9__end_capB6v15007Ev CODE
 0001:0000f580 00000019H .text$_ZNKSt3__117__compressed_pairIPNS_9sub_matchINS_11__wrap_iterIPKcEEEENS_9allocatorIS6_EEE5firstB6v15007Ev CODE
 0001:0000f5a0 0000000bH .text$_ZNKSt3__122__compressed_pair_elemIPNS_9sub_matchINS_11__wrap_iterIPKcEEEELi0ELb0EE5__getB6v15007Ev CODE
 0001:0000f5b0 0000002cH .text$_ZNSt3__111basic_regexIcNS_12regex_traitsIcEEED2Ev CODE
 0001:0000f5e0 00000019H .text$_ZNSt3__110shared_ptrINS_13__empty_stateIcEEED1B6v15007Ev CODE
 0001:0000f600 00000019H .text$_ZNSt3__112regex_traitsIcED1Ev CODE
 0001:0000f620 00000032H .text$_ZNSt3__110shared_ptrINS_13__empty_stateIcEEED2B6v15007Ev CODE
 0001:0000f660 00000035H .text$_ZNSt3__119__shared_weak_count16__release_sharedB6v15007Ev CODE
 0001:0000f6a0 0000004dH .text$_ZNSt3__114__shared_count16__release_sharedB6v15007Ev CODE
 0001:0000f6f0 0000002dH .text$_ZNSt3__134__libcpp_atomic_refcount_decrementB6v15007IlEET_RS1_ CODE
 0001:0000f720 00000019H .text$_ZNSt3__112regex_traitsIcED2Ev CODE
 0001:0000f740 0000006fH .text$_ZNSt3__14pairIKNS_12basic_stringIcNS_11char_traitsIcEENS_9allocatorIcEEEES6_EC2B6v15007IRA2_KcRA9_SA_LPv0EEEOT_OT0_ CODE
 0001:0000f7b0 0000006fH .text$_ZNSt3__14pairIKNS_12basic_stringIcNS_11char_traitsIcEENS_9allocatorIcEEEES6_EC2B6v15007IRA2_KcRA6_SA_LPv0EEEOT_OT0_ CODE
 0001:0000f820 0000006fH .text$_ZNSt3__14pairIKNS_12basic_stringIcNS_11char_traitsIcEENS_9allocatorIcEEEES6_EC2B6v15007IRA3_KcRA13_SA_LPv0EEEOT_OT0_ CODE
 0001:0000f890 0000006fH .text$_ZNSt3__14pairIKNS_12basic_stringIcNS_11char_traitsIcEENS_9allocatorIcEEEES6_EC2B6v15007IRA4_KcRA14_SA_LPv0EEEOT_OT0_ CODE
 0001:0000f900 0000006fH .text$_ZNSt3__14pairIKNS_12basic_stringIcNS_11char_traitsIcEENS_9allocatorIcEEEES6_EC2B6v15007IRA3_KcRA8_SA_LPv0EEEOT_OT0_ CODE
 0001:0000f970 0000002cH .text$_ZNSt3__14pairIKNS_12basic_stringIcNS_11char_traitsIcEENS_9allocatorIcEEEES6_ED2Ev CODE
 0001:0000f9a0 0000003fH .text$_ZNSt3__1eqB6v15007IP7RikishiEEbRKNS_11__wrap_iterIT_EES7_ CODE
 0001:0000f9e0 0000000eH .text$_ZNKSt3__111__wrap_iterIP7RikishiE4baseB6v15007Ev CODE
 0001:0000f9f0 0000003fH .text$_ZNSt3__1eqB6v15007IPKNS_12basic_stringIcNS_11char_traitsIcEENS_9allocatorIcEEEEEEbRKNS_11__wrap_iterIT_EESD_ CODE
 0001:0000fa30 0000000eH .text$_ZNKSt3__111__wrap_iterIPKNS_12basic_stringIcNS_11char_traitsIcEENS_9allocatorIcEEEEE4baseB6v15007Ev CODE
 0001:0000fa40 0000006fH .text$_ZNSt3__14pairIKNS_12basic_stringIcNS_11char_traitsIcEENS_9allocatorIcEEEENS_13unordered_setIS6_NS_4hashIS6_EENS_8equal_toIS6_EENS4_IS6_EEEEEC2B6v15007ILb1ELPv0EEERS7_RKSE_ CODE
 0001:0000fab0 00000023H .text$_ZNSt3__113unordered_setINS_12basic_stringIcNS_11char_traitsIcEENS_9allocatorIcEEEENS_4hashIS6_EENS_8equal_toIS6_EENS4_IS6_EEEC1ERKSC_ CODE
 0001:0000fae0 000000bcH .text$_ZNSt3__113unordered_setINS_12basic_stringIcNS_11char_traitsIcEENS_9allocatorIcEEEENS_4hashIS6_EENS_8equal_toIS6_EENS4_IS6_EEEC2ERKSC_ CODE
 0001:0000fba0 00000023H .text$_ZNSt3__112__hash_tableINS_12basic_stringIcNS_11char_traitsIcEENS_9allocatorIcEEEENS_4hashIS6_EENS_8equal_toIS6_EENS4_IS6_EEEC1ERKSC_ CODE
 0001:0000fbd0 00000007H .text$_ZNSt3__119__debug_db_insert_cB6v15007INS_13unordered_setINS_12basic_stringIcNS_11char_traitsIcEENS_9allocatorIcEEEENS_4hashIS7_EENS_8equal_toIS7_EENS5_IS7_EEEEEEvPT_ CODE
 0001:0000fbe0 00000023H .text$_ZNSt3__112__hash_tableINS_12basic_stringIcNS_11char_traitsIcEENS_9allocatorIcEEEENS_4hashIS6_EENS_8equal_toIS6_EENS4_IS6_EEE15__rehash_uniqueB6v15007Ey CODE
 0001:0000fc10 00000019H .text$_ZNKSt3__113unordered_setINS_12basic_stringIcNS_11char_traitsIcEENS_9allocatorIcEEEENS_4hashIS6_EENS_8equal_toIS6_EENS4_IS6_EEE12bucket_countB6v15007Ev CODE
 0001:0000fc30 00000069H .text$_ZNSt3__113unordered_setINS_12basic_stringIcNS_11char_traitsIcEENS_9allocatorIcEEEENS_4hashIS6_EENS_8equal_toIS6_EENS4_IS6_EEE6insertINS_21__hash_const_iteratorIPNS_11__hash_nodeIS6_PvEEEEEEvT_SK_ CODE
 0001:0000fca0 00000022H .text$_ZNKSt3__113unordered_setINS_12basic_stringIcNS_11char_traitsIcEENS_9allocatorIcEEEENS_4hashIS6_EENS_8equal_toIS6_EENS4_IS6_EEE5beginB6v15007Ev CODE
 0001:0000fcd0 00000022H .text$_ZNKSt3__113unordered_setINS_12basic_stringIcNS_11char_traitsIcEENS_9allocatorIcEEEENS_4hashIS6_EENS_8equal_toIS6_EENS4_IS6_EEE3endB6v15007Ev CODE
 0001:0000fd00 00000019H .text$_ZNSt3__112__hash_tableINS_12basic_stringIcNS_11char_traitsIcEENS_9allocatorIcEEEENS_4hashIS6_EENS_8equal_toIS6_EENS4_IS6_EEED1Ev CODE
 0001:0000fd20 00000155H .text$_ZNSt3__112__hash_tableINS_12basic_stringIcNS_11char_traitsIcEENS_9allocatorIcEEEENS_4hashIS6_EENS_8equal_toIS6_EENS4_IS6_EEEC2ERKSC_ CODE
 0001:0000fe80 00000011H .text$_ZNSt3__116allocator_traitsINS_9allocatorIPNS_16__hash_node_baseIPNS_11__hash_nodeINS_12basic_stringIcNS_11char_traitsIcEENS1_IcEEEEPvEEEEEEE37select_on_container_copy_constructionB6v15007ISE_vvEESE_RKSE_ CODE
 0001:0000fea0 00000019H .text$_ZNKSt3__110unique_ptrIA_PNS_16__hash_node_baseIPNS_11__hash_nodeINS_12basic_stringIcNS_11char_traitsIcEENS_9allocatorIcEEEEPvEEEENS_25__bucket_list_deallocatorINS6_ISD_EEEEE11get_deleterB6v15007Ev CODE
 0001:0000fec0 00000019H .text$_ZNKSt3__125__bucket_list_deallocatorINS_9allocatorIPNS_16__hash_node_baseIPNS_11__hash_nodeINS_12basic_stringIcNS_11char_traitsIcEENS1_IcEEEEPvEEEEEEE7__allocB6v15007Ev CODE
 0001:0000fee0 0000002dH .text$_ZNSt3__125__bucket_list_deallocatorINS_9allocatorIPNS_16__hash_node_baseIPNS_11__hash_nodeINS_12basic_stringIcNS_11char_traitsIcEENS1_IcEEEEPvEEEEEEEC1B6v15007ERKSE_y CODE
 0001:0000ff10 0000002dH .text$_ZNSt3__110unique_ptrIA_PNS_16__hash_node_baseIPNS_11__hash_nodeINS_12basic_stringIcNS_11char_traitsIcEENS_9allocatorIcEEEEPvEEEENS_25__bucket_list_deallocatorINS6_ISD_EEEEEC1B6v15007ILb1EvEEDnNS_16__dependent_typeINS_27__unique_ptr_deleter_sfinaeISH_EEXT_EE20__good_rval_ref_typeE CODE
 0001:0000ff40 00000011H .text$_ZNSt3__116allocator_traitsINS_9allocatorINS_11__hash_nodeINS_12basic_stringIcNS_11char_traitsIcEENS1_IcEEEEPvEEEEE37select_on_container_copy_constructionB6v15007ISA_vvEESA_RKSA_ CODE
 0001:0000ff60 0000001dH .text$_ZNKSt3__112__hash_tableINS_12basic_stringIcNS_11char_traitsIcEENS_9allocatorIcEEEENS_4hashIS6_EENS_8equal_toIS6_EENS4_IS6_EEE12__node_allocB6v15007Ev CODE
 0001:0000ff80 0000002dH .text$_ZNSt3__117__compressed_pairINS_16__hash_node_baseIPNS_11__hash_nodeINS_12basic_stringIcNS_11char_traitsIcEENS_9allocatorIcEEEEPvEEEENS6_ISA_EEEC1B6v15007INS_18__default_init_tagESD_EEOT_OT0_ CODE
 0001:0000ffb0 0000001dH .text$_ZNKSt3__112__hash_tableINS_12basic_stringIcNS_11char_traitsIcEENS_9allocatorIcEEEENS_4hashIS6_EENS_8equal_toIS6_EENS4_IS6_EEE13hash_functionB6v15007Ev CODE
 0001:0000ffd0 0000002dH .text$_ZNSt3__117__compressed_pairIyNS_4hashINS_12basic_stringIcNS_11char_traitsIcEENS_9allocatorIcEEEEEEEC1B6v15007IiRKS8_EEOT_OT0_ CODE
 0001:00010000 00000019H .text$_ZNSt3__110unique_ptrIA_PNS_16__hash_node_baseIPNS_11__hash_nodeINS_12basic_stringIcNS_11char_traitsIcEENS_9allocatorIcEEEEPvEEEENS_25__bucket_list_deallocatorINS6_ISD_EEEEED1B6v15007Ev CODE
 0001:00010020 0000001dH .text$_ZNKSt3__117__compressed_pairIPPNS_16__hash_node_baseIPNS_11__hash_nodeINS_12basic_stringIcNS_11char_traitsIcEENS_9allocatorIcEEEEPvEEEENS_25__bucket_list_deallocatorINS6_ISD_EEEEE6secondB6v15007Ev CODE
 0001:00010040 0000000bH .text$_ZNKSt3__122__compressed_pair_elemINS_25__bucket_list_deallocatorINS_9allocatorIPNS_16__hash_node_baseIPNS_11__hash_nodeINS_12basic_stringIcNS_11char_traitsIcEENS2_IcEEEEPvEEEEEEEELi1ELb0EE5__getB6v15007Ev CODE
 0001:00010050 00000019H .text$_ZNKSt3__117__compressed_pairIyNS_9allocatorIPNS_16__hash_node_baseIPNS_11__hash_nodeINS_12basic_stringIcNS_11char_traitsIcEENS1_IcEEEEPvEEEEEEE6secondB6v15007Ev CODE
 0001:00010070 0000000bH .text$_ZNKSt3__122__compressed_pair_elemINS_9allocatorIPNS_16__hash_node_baseIPNS_11__hash_nodeINS_12basic_stringIcNS_11char_traitsIcEENS1_IcEEEEPvEEEEEELi1ELb1EE5__getB6v15007Ev CODE
 0001:00010080 0000003aH .text$_ZNSt3__125__bucket_list_deallocatorINS_9allocatorIPNS_16__hash_node_baseIPNS_11__hash_nodeINS_12basic_stringIcNS_11char_traitsIcEENS1_IcEEEEPvEEEEEEEC2B6v15007ERKSE_y CODE
 0001:000100c0 0000002dH .text$_ZNSt3__117__compressed_pairIyNS_9allocatorIPNS_16__hash_node_baseIPNS_11__hash_nodeINS_12basic_stringIcNS_11char_traitsIcEENS1_IcEEEEPvEEEEEEEC1B6v15007IRyRKSE_EEOT_OT0_ CODE
 0001:000100f0 0000003cH .text$_ZNSt3__117__compressed_pairIyNS_9allocatorIPNS_16__hash_node_baseIPNS_11__hash_nodeINS_12basic_stringIcNS_11char_traitsIcEENS1_IcEEEEPvEEEEEEEC2B6v15007IRyRKSE_EEOT_OT0_ CODE
 0001:00010130 00000021H .text$_ZNSt3__122__compressed_pair_elemIyLi0ELb0EEC2B6v15007IRyvEEOT_ CODE
 0001:00010160 00000012H .text$_ZNSt3__122__compressed_pair_elemINS_9allocatorIPNS_16__hash_node_baseIPNS_11__hash_nodeINS_12basic_stringIcNS_11char_traitsIcEENS1_IcEEEEPvEEEEEELi1ELb1EEC2B6v15007IRKSE_vEEOT_ CODE
 0001:00010180 00000043H .text$_ZNSt3__110unique_ptrIA_PNS_16__hash_node_baseIPNS_11__hash_nodeINS_12basic_stringIcNS_11char_traitsIcEENS_9allocatorIcEEEEPvEEEENS_25__bucket_list_deallocatorINS6_ISD_EEEEEC2B6v15007ILb1EvEEDnNS_16__dependent_typeINS_27__unique_ptr_deleter_sfinaeISH_EEXT_EE20__good_rval_ref_typeE CODE
 0001:000101d0 0000002dH .text$_ZNSt3__117__compressed_pairIPPNS_16__hash_node_baseIPNS_11__hash_nodeINS_12basic_stringIcNS_11char_traitsIcEENS_9allocatorIcEEEEPvEEEENS_25__bucket_list_deallocatorINS6_ISD_EEEEEC1B6v15007IDnSH_EEOT_OT0_ CODE
 0001:00010200 00000040H .text$_ZNSt3__117__compressed_pairIPPNS_16__hash_node_baseIPNS_11__hash_nodeINS_12basic_stringIcNS_11char_traitsIcEENS_9allocatorIcEEEEPvEEEENS_25__bucket_list_deallocatorINS6_ISD_EEEEEC2B6v15007IDnSH_EEOT_OT0_ CODE
 0001:00010240 0000001eH .text$_ZNSt3__122__compressed_pair_elemIPPNS_16__hash_node_baseIPNS_11__hash_nodeINS_12basic_stringIcNS_11char_traitsIcEENS_9allocatorIcEEEEPvEEEELi0ELb0EEC2B6v15007IDnvEEOT_ CODE
 0001:00010260 00000023H .text$_ZNSt3__122__compressed_pair_elemINS_25__bucket_list_deallocatorINS_9allocatorIPNS_16__hash_node_baseIPNS_11__hash_nodeINS_12basic_stringIcNS_11char_traitsIcEENS2_IcEEEEPvEEEEEEEELi1ELb0EEC2B6v15007ISG_vEEOT_ CODE
 0001:00010290 00000023H .text$_ZNSt3__125__bucket_list_deallocatorINS_9allocatorIPNS_16__hash_node_baseIPNS_11__hash_nodeINS_12basic_stringIcNS_11char_traitsIcEENS1_IcEEEEPvEEEEEEEC1B6v15007EOSF_ CODE
 0001:000102c0 00000034H .text$_ZNSt3__125__bucket_list_deallocatorINS_9allocatorIPNS_16__hash_node_baseIPNS_11__hash_nodeINS_12basic_stringIcNS_11char_traitsIcEENS1_IcEEEEPvEEEEEEEC2B6v15007EOSF_ CODE
 0001:00010300 00000019H .text$_ZNSt3__125__bucket_list_deallocatorINS_9allocatorIPNS_16__hash_node_baseIPNS_11__hash_nodeINS_12basic_stringIcNS_11char_traitsIcEENS1_IcEEEEPvEEEEEEE4sizeB6v15007Ev CODE
 0001:00010320 00000019H .text$_ZNSt3__117__compressed_pairIyNS_9allocatorIPNS_16__hash_node_baseIPNS_11__hash_nodeINS_12basic_stringIcNS_11char_traitsIcEENS1_IcEEEEPvEEEEEEE5firstB6v15007Ev CODE
 0001:00010340 0000000bH .text$_ZNSt3__122__compressed_pair_elemIyLi0ELb0EE5__getB6v15007Ev CODE
 0001:00010350 00000019H .text$_ZNKSt3__117__compressed_pairINS_16__hash_node_baseIPNS_11__hash_nodeINS_12basic_stringIcNS_11char_traitsIcEENS_9allocatorIcEEEEPvEEEENS6_ISA_EEE6secondB6v15007Ev CODE
 0001:00010370 0000000bH .text$_ZNKSt3__122__compressed_pair_elemINS_9allocatorINS_11__hash_nodeINS_12basic_stringIcNS_11char_traitsIcEENS1_IcEEEEPvEEEELi1ELb1EE5__getB6v15007Ev CODE
 0001:00010380 0000003bH .text$_ZNSt3__117__compressed_pairINS_16__hash_node_baseIPNS_11__hash_nodeINS_12basic_stringIcNS_11char_traitsIcEENS_9allocatorIcEEEEPvEEEENS6_ISA_EEEC2B6v15007INS_18__default_init_tagESD_EEOT_OT0_ CODE
 0001:000103c0 0000001dH .text$_ZNSt3__122__compressed_pair_elemINS_16__hash_node_baseIPNS_11__hash_nodeINS_12basic_stringIcNS_11char_traitsIcEENS_9allocatorIcEEEEPvEEEELi0ELb0EEC2B6v15007ENS_18__default_init_tagE CODE
 0001:000103e0 00000012H .text$_ZNSt3__122__compressed_pair_elemINS_9allocatorINS_11__hash_nodeINS_12basic_stringIcNS_11char_traitsIcEENS1_IcEEEEPvEEEELi1ELb1EEC2B6v15007ISA_vEEOT_ CODE
 0001:00010400 00000019H .text$_ZNSt3__116__hash_node_baseIPNS_11__hash_nodeINS_12basic_stringIcNS_11char_traitsIcEENS_9allocatorIcEEEEPvEEEC1B6v15007Ev CODE
 0001:00010420 00000012H .text$_ZNSt3__116__hash_node_baseIPNS_11__hash_nodeINS_12basic_stringIcNS_11char_traitsIcEENS_9allocatorIcEEEEPvEEEC2B6v15007Ev CODE
 0001:00010440 00000019H .text$_ZNKSt3__117__compressed_pairIyNS_4hashINS_12basic_stringIcNS_11char_traitsIcEENS_9allocatorIcEEEEEEE6secondB6v15007Ev CODE
 0001:00010460 0000000bH .text$_ZNKSt3__122__compressed_pair_elemINS_4hashINS_12basic_stringIcNS_11char_traitsIcEENS_9allocatorIcEEEEEELi1ELb1EE5__getB6v15007Ev CODE
 0001:00010470 0000003cH .text$_ZNSt3__117__compressed_pairIyNS_4hashINS_12basic_stringIcNS_11char_traitsIcEENS_9allocatorIcEEEEEEEC2B6v15007IiRKS8_EEOT_OT0_ CODE
 0001:000104b0 00000021H .text$_ZNSt3__122__compressed_pair_elemIyLi0ELb0EEC2B6v15007IivEEOT_ CODE
 0001:000104e0 00000012H .text$_ZNSt3__122__compressed_pair_elemINS_4hashINS_12basic_stringIcNS_11char_traitsIcEENS_9allocatorIcEEEEEELi1ELb1EEC2B6v15007IRKS8_vEEOT_ CODE
 0001:00010500 0000001dH .text$_ZNSt3__110unique_ptrIA_PNS_16__hash_node_baseIPNS_11__hash_nodeINS_12basic_stringIcNS_11char_traitsIcEENS_9allocatorIcEEEEPvEEEENS_25__bucket_list_deallocatorINS6_ISD_EEEEED2B6v15007Ev CODE
 0001:00010520 0000005fH .text$_ZNSt3__110unique_ptrIA_PNS_16__hash_node_baseIPNS_11__hash_nodeINS_12basic_stringIcNS_11char_traitsIcEENS_9allocatorIcEEEEPvEEEENS_25__bucket_list_deallocatorINS6_ISD_EEEEE5resetB6v15007EDn CODE
 0001:00010580 00000019H .text$_ZNSt3__117__compressed_pairIPPNS_16__hash_node_baseIPNS_11__hash_nodeINS_12basic_stringIcNS_11char_traitsIcEENS_9allocatorIcEEEEPvEEEENS_25__bucket_list_deallocatorINS6_ISD_EEEEE5firstB6v15007Ev CODE
 0001:000105a0 0000001dH .text$_ZNSt3__117__compressed_pairIPPNS_16__hash_node_baseIPNS_11__hash_nodeINS_12basic_stringIcNS_11char_traitsIcEENS_9allocatorIcEEEEPvEEEENS_25__bucket_list_deallocatorINS6_ISD_EEEEE6secondB6v15007Ev CODE
 0001:000105c0 0000004eH .text$_ZNSt3__125__bucket_list_deallocatorINS_9allocatorIPNS_16__hash_node_baseIPNS_11__hash_nodeINS_12basic_stringIcNS_11char_traitsIcEENS1_IcEEEEPvEEEEEEEclB6v15007EPSD_ CODE
 0001:00010610 0000000bH .text$_ZNSt3__122__compressed_pair_elemIPPNS_16__hash_node_baseIPNS_11__hash_nodeINS_12basic_stringIcNS_11char_traitsIcEENS_9allocatorIcEEEEPvEEEELi0ELb0EE5__getB6v15007Ev CODE
 0001:00010620 0000000bH .text$_ZNSt3__122__compressed_pair_elemINS_25__bucket_list_deallocatorINS_9allocatorIPNS_16__hash_node_baseIPNS_11__hash_nodeINS_12basic_stringIcNS_11char_traitsIcEENS2_IcEEEEPvEEEEEEEELi1ELb0EE5__getB6v15007Ev CODE
 0001:00010630 0000002dH .text$_ZNSt3__116allocator_traitsINS_9allocatorIPNS_16__hash_node_baseIPNS_11__hash_nodeINS_12basic_stringIcNS_11char_traitsIcEENS1_IcEEEEPvEEEEEEE10deallocateB6v15007ERSE_PSD_y CODE
 0001:00010660 00000019H .text$_ZNSt3__125__bucket_list_deallocatorINS_9allocatorIPNS_16__hash_node_baseIPNS_11__hash_nodeINS_12basic_stringIcNS_11char_traitsIcEENS1_IcEEEEPvEEEEEEE7__allocB6v15007Ev CODE
 0001:00010680 0000003fH .text$_ZNSt3__19allocatorIPNS_16__hash_node_baseIPNS_11__hash_nodeINS_12basic_stringIcNS_11char_traitsIcEENS0_IcEEEEPvEEEEE10deallocateB6v15007EPSC_y CODE
 0001:000106c0 00000019H .text$_ZNSt3__117__compressed_pairIyNS_9allocatorIPNS_16__hash_node_baseIPNS_11__hash_nodeINS_12basic_stringIcNS_11char_traitsIcEENS1_IcEEEEPvEEEEEEE6secondB6v15007Ev CODE
 0001:000106e0 0000000bH .text$_ZNSt3__122__compressed_pair_elemINS_9allocatorIPNS_16__hash_node_baseIPNS_11__hash_nodeINS_12basic_stringIcNS_11char_traitsIcEENS1_IcEEEEPvEEEEEELi1ELb1EE5__getB6v15007Ev CODE
 0001:000106f0 00000255H .text$_ZNSt3__112__hash_tableINS_12basic_stringIcNS_11char_traitsIcEENS_9allocatorIcEEEENS_4hashIS6_EENS_8equal_toIS6_EENS4_IS6_EEE8__rehashILb1EEEvy CODE
 0001:00010950 00000021H .text$_ZNKSt3__112__hash_tableINS_12basic_stringIcNS_11char_traitsIcEENS_9allocatorIcEEEENS_4hashIS6_EENS_8equal_toIS6_EENS4_IS6_EEE12bucket_countB6v15007Ev CODE
 0001:00010980 000002c2H .text$_ZNSt3__112__hash_tableINS_12basic_stringIcNS_11char_traitsIcEENS_9allocatorIcEEEENS_4hashIS6_EENS_8equal_toIS6_EENS4_IS6_EEE11__do_rehashILb1EEEvy CODE
 0001:00010c50 00000028H .text$_ZNSt3__13maxB6v15007IyEERKT_S3_S3_ CODE
 0001:00010c80 00000047H .text$_ZNSt3__116__is_hash_power2B6v15007Ey CODE
 0001:00010cd0 00000056H .text$_ZNSt3__116__next_hash_pow2B6v15007Ey CODE
 0001:00010d30 0000001bH .text$_Z4ceilB6v15007f  CODE
 0001:00010d50 0000001dH .text$_ZNSt3__112__hash_tableINS_12basic_stringIcNS_11char_traitsIcEENS_9allocatorIcEEEENS_4hashIS6_EENS_8equal_toIS6_EENS4_IS6_EEE4sizeB6v15007Ev CODE
 0001:00010d70 0000001dH .text$_ZNSt3__112__hash_tableINS_12basic_stringIcNS_11char_traitsIcEENS_9allocatorIcEEEENS_4hashIS6_EENS_8equal_toIS6_EENS4_IS6_EEE15max_load_factorB6v15007Ev CODE
 0001:00010d90 0000001bH .text$_ZNKSt3__125__bucket_list_deallocatorINS_9allocatorIPNS_16__hash_node_baseIPNS_11__hash_nodeINS_12basic_stringIcNS_11char_traitsIcEENS1_IcEEEEPvEEEEEEE4sizeB6v15007Ev CODE
 0001:00010db0 00000019H .text$_ZNKSt3__117__compressed_pairIyNS_9allocatorIPNS_16__hash_node_baseIPNS_11__hash_nodeINS_12basic_stringIcNS_11char_traitsIcEENS1_IcEEEEPvEEEEEEE5firstB6v15007Ev CODE
 0001:00010dd0 0000000bH .text$_ZNKSt3__122__compressed_pair_elemIyLi0ELb0EE5__getB6v15007Ev CODE
 0001:00010de0 00000007H .text$_ZNSt3__125__debug_db_invalidate_allB6v15007INS_12__hash_tableINS_12basic_stringIcNS_11char_traitsIcEENS_9allocatorIcEEEENS_4hashIS7_EENS_8equal_toIS7_EENS5_IS7_EEEEEEvPT_ CODE
 0001:00010df0 00000019H .text$_ZNSt3__110unique_ptrIA_PNS_16__hash_node_baseIPNS_11__hash_nodeINS_12basic_stringIcNS_11char_traitsIcEENS_9allocatorIcEEEEPvEEEENS_25__bucket_list_deallocatorINS6_ISD_EEEEE11get_deleterB6v15007Ev CODE
 0001:00010e10 0000006aH .text$_ZNSt3__110unique_ptrIA_PNS_16__hash_node_baseIPNS_11__hash_nodeINS_12basic_stringIcNS_11char_traitsIcEENS_9allocatorIcEEEEPvEEEENS_25__bucket_list_deallocatorINS6_ISD_EEEEE5resetB6v15007IPSD_EENS_9enable_ifIXsr28_CheckArrayPointerConversionIT_EE5valueEvE4typeESM_ CODE
 0001:00010e80 00000023H .text$_ZNSt3__116allocator_traitsINS_9allocatorIPNS_16__hash_node_baseIPNS_11__hash_nodeINS_12basic_stringIcNS_11char_traitsIcEENS1_IcEEEEPvEEEEEEE8allocateB6v15007ERSE_y CODE
 0001:00010eb0 0000002cH .text$_ZNKSt3__110unique_ptrIA_PNS_16__hash_node_baseIPNS_11__hash_nodeINS_12basic_stringIcNS_11char_traitsIcEENS_9allocatorIcEEEEPvEEEENS_25__bucket_list_deallocatorINS6_ISD_EEEEEixB6v15007Ey CODE
 0001:00010ee0 00000019H .text$_ZNSt3__117__compressed_pairINS_16__hash_node_baseIPNS_11__hash_nodeINS_12basic_stringIcNS_11char_traitsIcEENS_9allocatorIcEEEEPvEEEENS6_ISA_EEE5firstB6v15007Ev CODE
 0001:00010f00 00000019H .text$_ZNSt3__116__hash_node_baseIPNS_11__hash_nodeINS_12basic_stringIcNS_11char_traitsIcEENS_9allocatorIcEEEEPvEEE5__ptrB6v15007Ev CODE
 0001:00010f20 00000087H .text$_ZNSt3__116__constrain_hashB6v15007Eyy CODE
 0001:00010fb0 0000000fH .text$_ZNKSt3__116__hash_node_baseIPNS_11__hash_nodeINS_12basic_stringIcNS_11char_traitsIcEENS_9allocatorIcEEEEPvEEE6__hashB6v15007Ev CODE
 0001:00010fc0 00000051H .text$_ZNSt3__19allocatorIPNS_16__hash_node_baseIPNS_11__hash_nodeINS_12basic_stringIcNS_11char_traitsIcEENS0_IcEEEEPvEEEEE8allocateB6v15007Ey CODE
 0001:00011020 00000019H .text$_ZNSt3__116allocator_traitsINS_9allocatorIPNS_16__hash_node_baseIPNS_11__hash_nodeINS_12basic_stringIcNS_11char_traitsIcEENS1_IcEEEEPvEEEEEEE8max_sizeB6v15007ISE_vEEyRKSE_ CODE
 0001:00011040 00000034H .text$_ZSt28__throw_bad_array_new_lengthB6v15007v CODE
 0001:00011080 00000061H .text$_ZNSt3__117__libcpp_allocateB6v15007Eyy CODE
 0001:000110f0 00000011H .text$_ZNKSt3__19allocatorIPNS_16__hash_node_baseIPNS_11__hash_nodeINS_12basic_stringIcNS_11char_traitsIcEENS0_IcEEEEPvEEEEE8max_sizeB6v15007Ev CODE
 0001:00011110 00000023H .text$_ZNSt3__121__libcpp_operator_newB6v15007IJySt11align_val_tEEEPvDpT_ CODE
 0001:00011140 00000019H .text$_ZNSt3__121__libcpp_operator_newB6v15007IJyEEEPvDpT_ CODE
 0001:00011160 00000019H .text$_ZNKSt3__117__compressed_pairIPPNS_16__hash_node_baseIPNS_11__hash_nodeINS_12basic_stringIcNS_11char_traitsIcEENS_9allocatorIcEEEEPvEEEENS_25__bucket_list_deallocatorINS6_ISD_EEEEE5firstB6v15007Ev CODE
 0001:00011180 0000000bH .text$_ZNKSt3__122__compressed_pair_elemIPPNS_16__hash_node_baseIPNS_11__hash_nodeINS_12basic_stringIcNS_11char_traitsIcEENS_9allocatorIcEEEEPvEEEELi0ELb0EE5__getB6v15007Ev CODE
 0001:00011190 0000000bH .text$_ZNSt3__122__compressed_pair_elemINS_16__hash_node_baseIPNS_11__hash_nodeINS_12basic_stringIcNS_11char_traitsIcEENS_9allocatorIcEEEEPvEEEELi0ELb0EE5__getB6v15007Ev CODE
 0001:000111a0 0000000bH .text$_ZNSt3__114pointer_traitsIPNS_16__hash_node_baseIPNS_11__hash_nodeINS_12basic_stringIcNS_11char_traitsIcEENS_9allocatorIcEEEEPvEEEEE10pointer_toB6v15007ERSC_ CODE
 0001:000111b0 00000057H .text$_ZNSt3__13maxB6v15007IyNS_6__lessIyyEEEERKT_S5_S5_T0_ CODE
 0001:00011210 0000002eH .text$_ZNKSt3__16__lessIyyEclB6v15007ERKyS3_ CODE
 0001:00011240 00000013H .text$_ZNSt3__112__libcpp_clzB6v15007Ey CODE
 0001:00011260 00000019H .text$_ZNSt3__117__compressed_pairIyNS_4hashINS_12basic_stringIcNS_11char_traitsIcEENS_9allocatorIcEEEEEEE5firstB6v15007Ev CODE
 0001:00011280 00000019H .text$_ZNSt3__117__compressed_pairIfNS_8equal_toINS_12basic_stringIcNS_11char_traitsIcEENS_9allocatorIcEEEEEEE5firstB6v15007Ev CODE
 0001:000112a0 0000000bH .text$_ZNSt3__122__compressed_pair_elemIfLi0ELb0EE5__getB6v15007Ev CODE
 0001:000112b0 00000029H .text$_ZNSt3__1neB6v15007ERKNS_21__hash_const_iteratorIPNS_11__hash_nodeINS_12basic_stringIcNS_11char_traitsIcEENS_9allocatorIcEEEEPvEEEESD_ CODE
 0001:000112e0 00000055H .text$_ZNSt3__112__hash_tableINS_12basic_stringIcNS_11char_traitsIcEENS_9allocatorIcEEEENS_4hashIS6_EENS_8equal_toIS6_EENS4_IS6_EEE15__insert_uniqueB6v15007ERKS6_ CODE
 0001:00011340 0000001fH .text$_ZNKSt3__121__hash_const_iteratorIPNS_11__hash_nodeINS_12basic_stringIcNS_11char_traitsIcEENS_9allocatorIcEEEEPvEEEdeB6v15007Ev CODE
 0001:00011360 00000014H .text$_ZNSt3__121__hash_const_iteratorIPNS_11__hash_nodeINS_12basic_stringIcNS_11char_traitsIcEENS_9allocatorIcEEEEPvEEEppB6v15007Ev CODE
 0001:00011380 00000029H .text$_ZNSt3__1eqB6v15007ERKNS_21__hash_const_iteratorIPNS_11__hash_nodeINS_12basic_stringIcNS_11char_traitsIcEENS_9allocatorIcEEEEPvEEEESD_ CODE
 0001:000113b0 00000676H .text$_ZNSt3__112__hash_tableINS_12basic_stringIcNS_11char_traitsIcEENS_9allocatorIcEEEENS_4hashIS6_EENS_8equal_toIS6_EENS4_IS6_EEE25__emplace_unique_key_argsIS6_JRKS6_EEENS_4pairINS_15__hash_iteratorIPNS_11__hash_nodeIS6_PvEEEEbEERKT_DpOT0_ CODE
 0001:00011a30 0000000bH .text$_ZNSt3__122__hash_key_value_typesINS_12basic_stringIcNS_11char_traitsIcEENS_9allocatorIcEEEEE9__get_keyB6v15007ERKS6_ CODE
 0001:00011a40 0000001dH .text$_ZNSt3__112__hash_tableINS_12basic_stringIcNS_11char_traitsIcEENS_9allocatorIcEEEENS_4hashIS6_EENS_8equal_toIS6_EENS4_IS6_EEE13hash_functionB6v15007Ev CODE
 0001:00011a60 00000065H .text$_ZNKSt3__14hashINS_12basic_stringIcNS_11char_traitsIcEENS_9allocatorIcEEEEEclERKS6_ CODE
 0001:00011ad0 0000001dH .text$_ZNSt3__112__hash_tableINS_12basic_stringIcNS_11char_traitsIcEENS_9allocatorIcEEEENS_4hashIS6_EENS_8equal_toIS6_EENS4_IS6_EEE6key_eqB6v15007Ev CODE
 0001:00011af0 0000002cH .text$_ZNKSt3__18equal_toINS_12basic_stringIcNS_11char_traitsIcEENS_9allocatorIcEEEEEclB6v15007ERKS6_S9_ CODE
 0001:00011b20 00000019H .text$_ZNSt3__116__hash_node_baseIPNS_11__hash_nodeINS_12basic_stringIcNS_11char_traitsIcEENS_9allocatorIcEEEEPvEEE8__upcastB6v15007Ev CODE
 0001:00011b40 00000182H .text$_ZNSt3__112__hash_tableINS_12basic_stringIcNS_11char_traitsIcEENS_9allocatorIcEEEENS_4hashIS6_EENS_8equal_toIS6_EENS4_IS6_EEE21__construct_node_hashIRKS6_JEEENS_10unique_ptrINS_11__hash_nodeIS6_PvEENS_22__hash_node_destructorINS4_ISJ_EEEEEEyOT_DpOT0_ CODE
 0001:00011cd0 0000001bH .text$_ZNKSt3__110unique_ptrINS_11__hash_nodeINS_12basic_stringIcNS_11char_traitsIcEENS_9allocatorIcEEEEPvEENS_22__hash_node_destructorINS5_IS9_EEEEEptB6v15007Ev CODE
 0001:00011cf0 0000001bH .text$_ZNKSt3__110unique_ptrINS_11__hash_nodeINS_12basic_stringIcNS_11char_traitsIcEENS_9allocatorIcEEEEPvEENS_22__hash_node_destructorINS5_IS9_EEEEE3getB6v15007Ev CODE
 0001:00011d10 0000003bH .text$_ZNSt3__110unique_ptrINS_11__hash_nodeINS_12basic_stringIcNS_11char_traitsIcEENS_9allocatorIcEEEEPvEENS_22__hash_node_destructorINS5_IS9_EEEEE7releaseB6v15007Ev CODE
 0001:00011d50 00000019H .text$_ZNSt3__110unique_ptrINS_11__hash_nodeINS_12basic_stringIcNS_11char_traitsIcEENS_9allocatorIcEEEEPvEENS_22__hash_node_destructorINS5_IS9_EEEEED1B6v15007Ev CODE
 0001:00011d70 0000002dH .text$_ZNSt3__115__hash_iteratorIPNS_11__hash_nodeINS_12basic_stringIcNS_11char_traitsIcEENS_9allocatorIcEEEEPvEEEC1B6v15007EPNS_16__hash_node_baseISA_EEPKv CODE
 0001:00011da0 0000002dH .text$_ZNSt3__14pairINS_15__hash_iteratorIPNS_11__hash_nodeINS_12basic_stringIcNS_11char_traitsIcEENS_9allocatorIcEEEEPvEEEEbEC1B6v15007ISC_RbLS9_0EEEOT_OT0_ CODE
 0001:00011dd0 00000019H .text$_ZNSt3__117__compressed_pairIyNS_4hashINS_12basic_stringIcNS_11char_traitsIcEENS_9allocatorIcEEEEEEE6secondB6v15007Ev CODE
 0001:00011df0 0000000bH .text$_ZNSt3__122__compressed_pair_elemINS_4hashINS_12basic_stringIcNS_11char_traitsIcEENS_9allocatorIcEEEEEELi1ELb1EE5__getB6v15007Ev CODE
 0001:00011e00 00000034H .text$_ZNSt3__116__do_string_hashB6v15007IPKcEEyT_S3_ CODE
 0001:00011e40 00000021H .text$_ZNKSt3__112basic_stringIcNS_11char_traitsIcEENS_9allocatorIcEEE4dataB6v15007Ev CODE
 0001:00011e70 00000052H .text$_ZNKSt3__112basic_stringIcNS_11char_traitsIcEENS_9allocatorIcEEE4sizeB6v15007Ev CODE
 0001:00011ed0 00000501H .text$_ZNSt3__121__murmur2_or_cityhashIyLy64EEclEPKvy CODE
 0001:000123e0 0000019dH .text$_ZNSt3__121__murmur2_or_cityhashIyLy64EE18__hash_len_0_to_16EPKcy CODE
 0001:00012580 0000010cH .text$_ZNSt3__121__murmur2_or_cityhashIyLy64EE19__hash_len_17_to_32EPKcy CODE
 0001:00012690 00000339H .text$_ZNSt3__121__murmur2_or_cityhashIyLy64EE19__hash_len_33_to_64EPKcy CODE
 0001:000129d0 0000001eH .text$_ZNSt3__110__loadwordB6v15007IyEET_PKv CODE
 0001:000129f0 00000095H .text$_ZNSt3__121__murmur2_or_cityhashIyLy64EE13__hash_len_16Eyy CODE
 0001:00012a90 000000b0H .text$_ZNSt3__121__murmur2_or_cityhashIyLy64EE29__weak_hash_len_32_with_seedsEPKcyy CODE
 0001:00012b40 00000058H .text$_ZNSt3__121__murmur2_or_cityhashIyLy64EE8__rotateEyi CODE
 0001:00012ba0 0000002dH .text$_ZNSt3__14pairIyyEaSB6v15007EOS1_ CODE
 0001:00012bd0 0000003bH .text$_ZNSt3__14swapB6v15007IyEENS_9enable_ifIXaasr21is_move_constructibleIT_EE5valuesr18is_move_assignableIS2_EE5valueEvE4typeERS2_S5_ CODE
 0001:00012c10 00000016H .text$_ZNSt3__121__murmur2_or_cityhashIyLy64EE11__shift_mixEy CODE
 0001:00012c30 00000037H .text$_ZNSt3__121__murmur2_or_cityhashIyLy64EE22__rotate_by_at_least_1Eyi CODE
 0001:00012c70 0000001dH .text$_ZNSt3__110__loadwordB6v15007IjEET_PKv CODE
 0001:00012c90 0000011aH .text$_ZNSt3__121__murmur2_or_cityhashIyLy64EE29__weak_hash_len_32_with_seedsEyyyyyy CODE
 0001:00012db0 0000002dH .text$_ZNSt3__14pairIyyEC1B6v15007IyyLPv0EEEOT_OT0_ CODE
 0001:00012de0 00000032H .text$_ZNSt3__14pairIyyEC2B6v15007IyyLPv0EEEOT_OT0_ CODE
 0001:00012e20 0000000bH .text$_ZNSt3__112__to_addressB6v15007IKcEEPT_S3_ CODE
 0001:00012e30 00000052H .text$_ZNKSt3__112basic_stringIcNS_11char_traitsIcEENS_9allocatorIcEEE13__get_pointerB6v15007Ev CODE
 0001:00012e90 00000026H .text$_ZNKSt3__112basic_stringIcNS_11char_traitsIcEENS_9allocatorIcEEE9__is_longB6v15007Ev CODE
 0001:00012ec0 0000001cH .text$_ZNKSt3__112basic_stringIcNS_11char_traitsIcEENS_9allocatorIcEEE18__get_long_pointerB6v15007Ev CODE
 0001:00012ee0 00000025H .text$_ZNKSt3__112basic_stringIcNS_11char_traitsIcEENS_9allocatorIcEEE19__get_short_pointerB6v15007Ev CODE
 0001:00012f10 00000019H .text$_ZNKSt3__117__compressed_pairINS_12basic_stringIcNS_11char_traitsIcEENS_9allocatorIcEEE5__repES5_E5firstB6v15007Ev CODE
 0001:00012f30 0000000bH .text$_ZNKSt3__122__compressed_pair_elemINS_12basic_stringIcNS_11char_traitsIcEENS_9allocatorIcEEE5__repELi0ELb0EE5__getB6v15007Ev CODE
 0001:00012f40 0000000bH .text$_ZNSt3__114pointer_traitsIPKcE10pointer_toB6v15007ERS1_ CODE
 0001:00012f50 0000001cH .text$_ZNKSt3__112basic_stringIcNS_11char_traitsIcEENS_9allocatorIcEEE15__get_long_sizeB6v15007Ev CODE
 0001:00012f70 00000020H .text$_ZNKSt3__112basic_stringIcNS_11char_traitsIcEENS_9allocatorIcEEE16__get_short_sizeB6v15007Ev CODE
 0001:00012f90 00000019H .text$_ZNSt3__117__compressed_pairIfNS_8equal_toINS_12basic_stringIcNS_11char_traitsIcEENS_9allocatorIcEEEEEEE6secondB6v15007Ev CODE
 0001:00012fb0 0000000bH .text$_ZNSt3__122__compressed_pair_elemINS_8equal_toINS_12basic_stringIcNS_11char_traitsIcEENS_9allocatorIcEEEEEELi1ELb1EE5__getB6v15007Ev CODE
 0001:00012fc0 0000001dH .text$_ZNSt3__112__hash_tableINS_12basic_stringIcNS_11char_traitsIcEENS_9allocatorIcEEEENS_4hashIS6_EENS_8equal_toIS6_EENS4_IS6_EEE12__node_allocB6v15007Ev CODE
 0001:00012fe0 00000023H .text$_ZNSt3__116allocator_traitsINS_9allocatorINS_11__hash_nodeINS_12basic_stringIcNS_11char_traitsIcEENS1_IcEEEEPvEEEEE8allocateB6v15007ERSA_y CODE
 0001:00013010 00000035H .text$_ZNSt3__122__hash_node_destructorINS_9allocatorINS_11__hash_nodeINS_12basic_stringIcNS_11char_traitsIcEENS1_IcEEEEPvEEEEEC1B6v15007ERSA_b CODE
 0001:00013050 0000002dH .text$_ZNSt3__110unique_ptrINS_11__hash_nodeINS_12basic_stringIcNS_11char_traitsIcEENS_9allocatorIcEEEEPvEENS_22__hash_node_destructorINS5_IS9_EEEEEC1B6v15007ILb1EvEEPS9_NS_16__dependent_typeINS_27__unique_ptr_deleter_sfinaeISC_EEXT_EE20__good_rval_ref_typeE CODE
 0001:00013080 0000002dH .text$_ZNSt3__116allocator_traitsINS_9allocatorINS_11__hash_nodeINS_12basic_stringIcNS_11char_traitsIcEENS1_IcEEEEPvEEEEE9constructB6v15007IS7_JRKS7_EvEEvRSA_PT_DpOT0_ CODE
 0001:000130b0 0000000bH .text$_ZNSt3__122__hash_key_value_typesINS_12basic_stringIcNS_11char_traitsIcEENS_9allocatorIcEEEEE9__get_ptrB6v15007ERS6_ CODE
 0001:000130c0 00000019H .text$_ZNSt3__110unique_ptrINS_11__hash_nodeINS_12basic_stringIcNS_11char_traitsIcEENS_9allocatorIcEEEEPvEENS_22__hash_node_destructorINS5_IS9_EEEEE11get_deleterB6v15007Ev CODE
 0001:000130e0 00000019H .text$_ZNSt3__117__compressed_pairINS_16__hash_node_baseIPNS_11__hash_nodeINS_12basic_stringIcNS_11char_traitsIcEENS_9allocatorIcEEEEPvEEEENS6_ISA_EEE6secondB6v15007Ev CODE
 0001:00013100 0000000bH .text$_ZNSt3__122__compressed_pair_elemINS_9allocatorINS_11__hash_nodeINS_12basic_stringIcNS_11char_traitsIcEENS1_IcEEEEPvEEEELi1ELb1EE5__getB6v15007Ev CODE
 0001:00013110 0000004eH .text$_ZNSt3__19allocatorINS_11__hash_nodeINS_12basic_stringIcNS_11char_traitsIcEENS0_IcEEEEPvEEE8allocateB6v15007Ey CODE
 0001:00013160 00000019H .text$_ZNSt3__116allocator_traitsINS_9allocatorINS_11__hash_nodeINS_12basic_stringIcNS_11char_traitsIcEENS1_IcEEEEPvEEEEE8max_sizeB6v15007ISA_vEEyRKSA_ CODE
 0001:00013180 00000011H .text$_ZNKSt3__19allocatorINS_11__hash_nodeINS_12basic_stringIcNS_11char_traitsIcEENS0_IcEEEEPvEEE8max_sizeB6v15007Ev CODE
 0001:000131a0 00000033H .text$_ZNSt3__122__hash_node_destructorINS_9allocatorINS_11__hash_nodeINS_12basic_stringIcNS_11char_traitsIcEENS1_IcEEEEPvEEEEEC2B6v15007ERSA_b CODE
 0001:000131e0 0000003aH .text$_ZNSt3__110unique_ptrINS_11__hash_nodeINS_12basic_stringIcNS_11char_traitsIcEENS_9allocatorIcEEEEPvEENS_22__hash_node_destructorINS5_IS9_EEEEEC2B6v15007ILb1EvEEPS9_NS_16__dependent_typeINS_27__unique_ptr_deleter_sfinaeISC_EEXT_EE20__good_rval_ref_typeE CODE
 0001:00013220 0000002dH .text$_ZNSt3__117__compressed_pairIPNS_11__hash_nodeINS_12basic_stringIcNS_11char_traitsIcEENS_9allocatorIcEEEEPvEENS_22__hash_node_destructorINS5_IS9_EEEEEC1B6v15007IRSA_SD_EEOT_OT0_ CODE
 0001:00013250 00000040H .text$_ZNSt3__117__compressed_pairIPNS_11__hash_nodeINS_12basic_stringIcNS_11char_traitsIcEENS_9allocatorIcEEEEPvEENS_22__hash_node_destructorINS5_IS9_EEEEEC2B6v15007IRSA_SD_EEOT_OT0_ CODE
 0001:00013290 00000021H .text$_ZNSt3__122__compressed_pair_elemIPNS_11__hash_nodeINS_12basic_stringIcNS_11char_traitsIcEENS_9allocatorIcEEEEPvEELi0ELb0EEC2B6v15007IRSA_vEEOT_ CODE
 0001:000132c0 00000029H .text$_ZNSt3__122__compressed_pair_elemINS_22__hash_node_destructorINS_9allocatorINS_11__hash_nodeINS_12basic_stringIcNS_11char_traitsIcEENS2_IcEEEEPvEEEEEELi1ELb0EEC2B6v15007ISC_vEEOT_ CODE
 0001:000132f0 00000028H .text$_ZNSt3__19allocatorINS_11__hash_nodeINS_12basic_stringIcNS_11char_traitsIcEENS0_IcEEEEPvEEE9constructB6v15007IS6_JRKS6_EEEvPT_DpOT0_ CODE
 0001:00013320 0000001dH .text$_ZNSt3__117__compressed_pairIPNS_11__hash_nodeINS_12basic_stringIcNS_11char_traitsIcEENS_9allocatorIcEEEEPvEENS_22__hash_node_destructorINS5_IS9_EEEEE6secondB6v15007Ev CODE
 0001:00013340 0000000bH .text$_ZNSt3__122__compressed_pair_elemINS_22__hash_node_destructorINS_9allocatorINS_11__hash_nodeINS_12basic_stringIcNS_11char_traitsIcEENS2_IcEEEEPvEEEEEELi1ELb0EE5__getB6v15007Ev CODE
 0001:00013350 00000019H .text$_ZNKSt3__117__compressed_pairIPNS_11__hash_nodeINS_12basic_stringIcNS_11char_traitsIcEENS_9allocatorIcEEEEPvEENS_22__hash_node_destructorINS5_IS9_EEEEE5firstB6v15007Ev CODE
 0001:00013370 0000000bH .text$_ZNKSt3__122__compressed_pair_elemIPNS_11__hash_nodeINS_12basic_stringIcNS_11char_traitsIcEENS_9allocatorIcEEEEPvEELi0ELb0EE5__getB6v15007Ev CODE
 0001:00013380 00000019H .text$_ZNSt3__117__compressed_pairIPNS_11__hash_nodeINS_12basic_stringIcNS_11char_traitsIcEENS_9allocatorIcEEEEPvEENS_22__hash_node_destructorINS5_IS9_EEEEE5firstB6v15007Ev CODE
 0001:000133a0 0000000bH .text$_ZNSt3__122__compressed_pair_elemIPNS_11__hash_nodeINS_12basic_stringIcNS_11char_traitsIcEENS_9allocatorIcEEEEPvEELi0ELb0EE5__getB6v15007Ev CODE
 0001:000133b0 0000001dH .text$_ZNSt3__110unique_ptrINS_11__hash_nodeINS_12basic_stringIcNS_11char_traitsIcEENS_9allocatorIcEEEEPvEENS_22__hash_node_destructorINS5_IS9_EEEEED2B6v15007Ev CODE
 0001:000133d0 0000006aH .text$_ZNSt3__110unique_ptrINS_11__hash_nodeINS_12basic_stringIcNS_11char_traitsIcEENS_9allocatorIcEEEEPvEENS_22__hash_node_destructorINS5_IS9_EEEEE5resetB6v15007EPS9_ CODE
 0001:00013440 00000087H .text$_ZNSt3__122__hash_node_destructorINS_9allocatorINS_11__hash_nodeINS_12basic_stringIcNS_11char_traitsIcEENS1_IcEEEEPvEEEEEclB6v15007EPS9_ CODE
 0001:000134d0 0000001eH .text$_ZNSt3__116allocator_traitsINS_9allocatorINS_11__hash_nodeINS_12basic_stringIcNS_11char_traitsIcEENS1_IcEEEEPvEEEEE7destroyB6v15007IS7_vvEEvRSA_PT_ CODE
 0001:000134f0 0000002dH .text$_ZNSt3__116allocator_traitsINS_9allocatorINS_11__hash_nodeINS_12basic_stringIcNS_11char_traitsIcEENS1_IcEEEEPvEEEEE10deallocateB6v15007ERSA_PS9_y CODE
 0001:00013520 00000043H .text$_ZNSt3__19allocatorINS_11__hash_nodeINS_12basic_stringIcNS_11char_traitsIcEENS0_IcEEEEPvEEE10deallocateB6v15007EPS8_y CODE
 0001:00013570 00000024H .text$_ZNSt3__115__hash_iteratorIPNS_11__hash_nodeINS_12basic_stringIcNS_11char_traitsIcEENS_9allocatorIcEEEEPvEEEC2B6v15007EPNS_16__hash_node_baseISA_EEPKv CODE
 0001:000135a0 00000033H .text$_ZNSt3__14pairINS_15__hash_iteratorIPNS_11__hash_nodeINS_12basic_stringIcNS_11char_traitsIcEENS_9allocatorIcEEEEPvEEEEbEC2B6v15007ISC_RbLS9_0EEEOT_OT0_ CODE
 0001:000135e0 00000038H .text$_ZNKSt3__112__hash_tableINS_12basic_stringIcNS_11char_traitsIcEENS_9allocatorIcEEEENS_4hashIS6_EENS_8equal_toIS6_EENS4_IS6_EEE5beginEv CODE
 0001:00013620 00000019H .text$_ZNKSt3__117__compressed_pairINS_16__hash_node_baseIPNS_11__hash_nodeINS_12basic_stringIcNS_11char_traitsIcEENS_9allocatorIcEEEEPvEEEENS6_ISA_EEE5firstB6v15007Ev CODE
 0001:00013640 0000002dH .text$_ZNSt3__121__hash_const_iteratorIPNS_11__hash_nodeINS_12basic_stringIcNS_11char_traitsIcEENS_9allocatorIcEEEEPvEEEC1B6v15007EPNS_16__hash_node_baseISA_EEPKv CODE
 0001:00013670 0000000bH .text$_ZNKSt3__122__compressed_pair_elemINS_16__hash_node_baseIPNS_11__hash_nodeINS_12basic_stringIcNS_11char_traitsIcEENS_9allocatorIcEEEEPvEEEELi0ELb0EE5__getB6v15007Ev CODE
 0001:00013680 00000024H .text$_ZNSt3__121__hash_const_iteratorIPNS_11__hash_nodeINS_12basic_stringIcNS_11char_traitsIcEENS_9allocatorIcEEEEPvEEEC2B6v15007EPNS_16__hash_node_baseISA_EEPKv CODE
 0001:000136b0 00000026H .text$_ZNKSt3__112__hash_tableINS_12basic_stringIcNS_11char_traitsIcEENS_9allocatorIcEEEENS_4hashIS6_EENS_8equal_toIS6_EENS4_IS6_EEE3endEv CODE
 0001:000136e0 00000051H .text$_ZNSt3__112__hash_tableINS_12basic_stringIcNS_11char_traitsIcEENS_9allocatorIcEEEENS_4hashIS6_EENS_8equal_toIS6_EENS4_IS6_EEED2Ev CODE
 0001:00013740 00000093H .text$_ZNSt3__112__hash_tableINS_12basic_stringIcNS_11char_traitsIcEENS_9allocatorIcEEEENS_4hashIS6_EENS_8equal_toIS6_EENS4_IS6_EEE17__deallocate_nodeEPNS_16__hash_node_baseIPNS_11__hash_nodeIS6_PvEEEE CODE
 0001:000137e0 00000007H .text$_ZNSt3__118__debug_db_erase_cB6v15007INS_12__hash_tableINS_12basic_stringIcNS_11char_traitsIcEENS_9allocatorIcEEEENS_4hashIS7_EENS_8equal_toIS7_EENS5_IS7_EEEEEEvPT_ CODE
 0001:000137f0 0000002cH .text$_ZNSt3__14pairIKNS_12basic_stringIcNS_11char_traitsIcEENS_9allocatorIcEEEENS_13unordered_setIS6_NS_4hashIS6_EENS_8equal_toIS6_EENS4_IS6_EEEEED2Ev CODE
 0001:00013820 00000056H .text$_ZN6System5Types6TRectF4initEffff CODE
 0001:00013880 0000004cH .text$_ZN3Fmx5Forms5TFormD0Ev CODE
 0001:000138d0 00000053H .text$_ZNSt3__112basic_stringIcNS_11char_traitsIcEENS_9allocatorIcEEEC2B6v15007Ev CODE
 0001:00013930 0000002dH .text$_ZNSt3__117__compressed_pairINS_12basic_stringIcNS_11char_traitsIcEENS_9allocatorIcEEE5__repES5_EC1B6v15007INS_18__default_init_tagESA_EEOT_OT0_ CODE
 0001:00013960 00000007H .text$_ZNSt3__119__debug_db_insert_cB6v15007INS_12basic_stringIcNS_11char_traitsIcEENS_9allocatorIcEEEEEEvPT_ CODE
 0001:00013970 00000019H .text$_ZNSt3__112basic_stringIcNS_11char_traitsIcEENS_9allocatorIcEEE14__default_initB6v15007Ev CODE
 0001:00013990 0000003aH .text$_ZNSt3__117__compressed_pairINS_12basic_stringIcNS_11char_traitsIcEENS_9allocatorIcEEE5__repES5_EC2B6v15007INS_18__default_init_tagESA_EEOT_OT0_ CODE
 0001:000139d0 00000011H .text$_ZNSt3__122__compressed_pair_elemINS_12basic_stringIcNS_11char_traitsIcEENS_9allocatorIcEEE5__repELi0ELb0EEC2B6v15007ENS_18__default_init_tagE CODE
 0001:000139f0 0000001dH .text$_ZNSt3__122__compressed_pair_elemINS_9allocatorIcEELi1ELb1EEC2B6v15007ENS_18__default_init_tagE CODE
 0001:00013a10 00000019H .text$_ZNSt3__19allocatorIcEC2B6v15007Ev CODE
 0001:00013a30 00000007H .text$_ZNSt3__116__non_trivial_ifILb1ENS_9allocatorIcEEEC2B6v15007Ev CODE
 0001:00013a40 0000004eH .text$_ZNSt3__112basic_stringIcNS_11char_traitsIcEENS_9allocatorIcEEE6__zeroB6v15007Ev CODE
 0001:00013a90 00000019H .text$_ZNSt3__117__compressed_pairINS_12basic_stringIcNS_11char_traitsIcEENS_9allocatorIcEEE5__repES5_E5firstB6v15007Ev CODE
 0001:00013ab0 0000000bH .text$_ZNSt3__122__compressed_pair_elemINS_12basic_stringIcNS_11char_traitsIcEENS_9allocatorIcEEE5__repELi0ELb0EE5__getB6v15007Ev CODE
 0001:00013ac0 00000047H .text$_ZN6System11AnsiStringTILt0EEC2ERKNS_13UnicodeStringE CODE
 0001:00013b10 000000e9H .text$_ZN6System11AnsiStringTILt0EED2Ev CODE
 0001:00013c00 00000023H .text$_ZN6System11AnsiStringTILt0EEC1ERKS1_ CODE
 0001:00013c30 00000023H .text$_ZN6System11AnsiStringTILt0EEC2ERKS1_ CODE
 0001:00013c60 00000030H .text$_ZN6System11AnsiStringTILt0EEC2Ev CODE
 0001:00013c90 00000012H .text$_ZN6System14AnsiStringBaseC2Ev CODE
 0001:00013cb0 0000002aH .text$_ZN6System13UnicodeStringC2ILt0EEERKNS_11AnsiStringTIXT_EEE CODE
 0001:00013ce0 0000005dH .text$_ZNSt3__112basic_stringIcNS_11char_traitsIcEENS_9allocatorIcEEEC2B6v15007IDnEEPKc CODE
 0001:00013d40 00000019H .text$_ZNSt3__111char_traitsIcE6lengthEPKc CODE
 0001:00013d60 0000003aH .text$_ZNSt3__16vectorI7RikishiNS_9allocatorIS1_EEED2B6v15007Ev CODE
 0001:00013da0 00000023H .text$_ZNSt3__16vectorI7RikishiNS_9allocatorIS1_EEE16__destroy_vectorC1ERS4_ CODE
 0001:00013dd0 0000008cH .text$_ZNSt3__16vectorI7RikishiNS_9allocatorIS1_EEE16__destroy_vectorclB6v15007Ev CODE
 0001:00013e60 0000001eH .text$_ZNSt3__16vectorI7RikishiNS_9allocatorIS1_EEE16__destroy_vectorC2ERS4_ CODE
 0001:00013e80 000000ccH .text$_ZNKSt3__16vectorI7RikishiNS_9allocatorIS1_EEE17__annotate_deleteB6v15007Ev CODE
 0001:00013f50 00000007H .text$_ZNSt3__118__debug_db_erase_cB6v15007INS_6vectorI7RikishiNS_9allocatorIS2_EEEEEEvPT_ CODE
 0001:00013f60 0000001cH .text$_ZNSt3__16vectorI7RikishiNS_9allocatorIS1_EEE7__clearB6v15007Ev CODE
 0001:00013f80 0000002dH .text$_ZNSt3__116allocator_traitsINS_9allocatorI7RikishiEEE10deallocateB6v15007ERS3_PS2_y CODE
 0001:00013fb0 0000001dH .text$_ZNSt3__16vectorI7RikishiNS_9allocatorIS1_EEE7__allocB6v15007Ev CODE
 0001:00013fd0 00000035H .text$_ZNKSt3__16vectorI7RikishiNS_9allocatorIS1_EEE8capacityB6v15007Ev CODE
 0001:00014010 00000021H .text$_ZNKSt3__16vectorI7RikishiNS_9allocatorIS1_EEE31__annotate_contiguous_containerB6v15007EPKvS6_S6_S6_ CODE
 0001:00014040 0000001cH .text$_ZNKSt3__16vectorI7RikishiNS_9allocatorIS1_EEE4dataB6v15007Ev CODE
 0001:00014060 0000000bH .text$_ZNSt3__112__to_addressB6v15007I7RikishiEEPT_S3_ CODE
 0001:00014070 00000089H .text$_ZNSt3__16vectorI7RikishiNS_9allocatorIS1_EEE22__base_destruct_at_endB6v15007EPS1_ CODE
 0001:00014100 00000023H .text$_ZNSt3__116allocator_traitsINS_9allocatorI7RikishiEEE7destroyB6v15007IS2_vEEvRS3_PT_ CODE
 0001:00014130 0000001eH .text$_ZNSt3__19allocatorI7RikishiE7destroyB6v15007EPS1_ CODE
 0001:00014150 00000019H .text$_ZN7RikishiD1Ev   CODE
 0001:00014170 0000006dH .text$_ZN7RikishiD2Ev   CODE
 0001:000141e0 00000042H .text$_ZNSt3__19allocatorI7RikishiE10deallocateB6v15007EPS1_y CODE
 0001:00014230 00000019H .text$_ZNSt3__117__compressed_pairIP7RikishiNS_9allocatorIS1_EEE6secondB6v15007Ev CODE
 0001:00014250 0000000bH .text$_ZNSt3__122__compressed_pair_elemINS_9allocatorI7RikishiEELi1ELb1EE5__getB6v15007Ev CODE
 0001:00014260 0000001dH .text$_ZNKSt3__16vectorI7RikishiNS_9allocatorIS1_EEE9__end_capB6v15007Ev CODE
 0001:00014280 00000019H .text$_ZNKSt3__117__compressed_pairIP7RikishiNS_9allocatorIS1_EEE5firstB6v15007Ev CODE
 0001:000142a0 0000000bH .text$_ZNKSt3__122__compressed_pair_elemIP7RikishiLi0ELb0EE5__getB6v15007Ev CODE
 0001:000142b0 00000036H .text$_ZNSt3__13mapIiNS_4pairIiiEENS_4lessIiEENS_9allocatorINS1_IKiS2_EEEEEC2B6v15007Ev CODE
 0001:000142f0 00000021H .text$_ZNSt3__119__map_value_compareIiNS_12__value_typeIiNS_4pairIiiEEEENS_4lessIiEELb1EEC1B6v15007ES6_ CODE
 0001:00014320 00000023H .text$_ZNSt3__16__treeINS_12__value_typeIiNS_4pairIiiEEEENS_19__map_value_compareIiS4_NS_4lessIiEELb1EEENS_9allocatorIS4_EEEC1ERKS8_ CODE
 0001:00014350 00000011H .text$_ZNSt3__119__map_value_compareIiNS_12__value_typeIiNS_4pairIiiEEEENS_4lessIiEELb1EEC2B6v15007ES6_ CODE
 0001:00014370 0000007aH .text$_ZNSt3__16__treeINS_12__value_typeIiNS_4pairIiiEEEENS_19__map_value_compareIiS4_NS_4lessIiEELb1EEENS_9allocatorIS4_EEEC2ERKS8_ CODE
 0001:000143f0 00000019H .text$_ZNSt3__117__compressed_pairINS_15__tree_end_nodeIPNS_16__tree_node_baseIPvEEEENS_9allocatorINS_11__tree_nodeINS_12__value_typeIiNS_4pairIiiEEEES3_EEEEEC1B6v15007ILb1EvEEv CODE
 0001:00014410 0000002dH .text$_ZNSt3__117__compressed_pairIyNS_19__map_value_compareIiNS_12__value_typeIiNS_4pairIiiEEEENS_4lessIiEELb1EEEEC1B6v15007IiRKS8_EEOT_OT0_ CODE
 0001:00014440 00000025H .text$_ZNSt3__16__treeINS_12__value_typeIiNS_4pairIiiEEEENS_19__map_value_compareIiS4_NS_4lessIiEELb1EEENS_9allocatorIS4_EEE10__end_nodeB6v15007Ev CODE
 0001:00014470 0000000bH .text$_ZNSt3__16__treeINS_12__value_typeIiNS_4pairIiiEEEENS_19__map_value_compareIiS4_NS_4lessIiEELb1EEENS_9allocatorIS4_EEE12__begin_nodeB6v15007Ev CODE
 0001:00014480 00000030H .text$_ZNSt3__117__compressed_pairINS_15__tree_end_nodeIPNS_16__tree_node_baseIPvEEEENS_9allocatorINS_11__tree_nodeINS_12__value_typeIiNS_4pairIiiEEEES3_EEEEEC2B6v15007ILb1EvEEv CODE
 0001:000144b0 0000001dH .text$_ZNSt3__122__compressed_pair_elemINS_15__tree_end_nodeIPNS_16__tree_node_baseIPvEEEELi0ELb0EEC2B6v15007ENS_16__value_init_tagE CODE
 0001:000144d0 0000001dH .text$_ZNSt3__122__compressed_pair_elemINS_9allocatorINS_11__tree_nodeINS_12__value_typeIiNS_4pairIiiEEEEPvEEEELi1ELb1EEC2B6v15007ENS_16__value_init_tagE CODE
 0001:000144f0 00000019H .text$_ZNSt3__115__tree_end_nodeIPNS_16__tree_node_baseIPvEEEC1B6v15007Ev CODE
 0001:00014510 00000012H .text$_ZNSt3__115__tree_end_nodeIPNS_16__tree_node_baseIPvEEEC2B6v15007Ev CODE
 0001:00014530 00000019H .text$_ZNSt3__19allocatorINS_11__tree_nodeINS_12__value_typeIiNS_4pairIiiEEEEPvEEEC2B6v15007Ev CODE
 0001:00014550 00000007H .text$_ZNSt3__116__non_trivial_ifILb1ENS_9allocatorINS_11__tree_nodeINS_12__value_typeIiNS_4pairIiiEEEEPvEEEEEC2B6v15007Ev CODE
 0001:00014560 0000003cH .text$_ZNSt3__117__compressed_pairIyNS_19__map_value_compareIiNS_12__value_typeIiNS_4pairIiiEEEENS_4lessIiEELb1EEEEC2B6v15007IiRKS8_EEOT_OT0_ CODE
 0001:000145a0 00000012H .text$_ZNSt3__122__compressed_pair_elemINS_19__map_value_compareIiNS_12__value_typeIiNS_4pairIiiEEEENS_4lessIiEELb1EEELi1ELb1EEC2B6v15007IRKS8_vEEOT_ CODE
 0001:000145c0 0000000bH .text$_ZNSt3__114pointer_traitsIPNS_15__tree_end_nodeIPNS_16__tree_node_baseIPvEEEEE10pointer_toB6v15007ERS6_ CODE
 0001:000145d0 00000019H .text$_ZNSt3__117__compressed_pairINS_15__tree_end_nodeIPNS_16__tree_node_baseIPvEEEENS_9allocatorINS_11__tree_nodeINS_12__value_typeIiNS_4pairIiiEEEES3_EEEEE5firstB6v15007Ev CODE
 0001:000145f0 0000000bH .text$_ZNSt3__122__compressed_pair_elemINS_15__tree_end_nodeIPNS_16__tree_node_baseIPvEEEELi0ELb0EE5__getB6v15007Ev CODE
 0001:00014600 00000019H .text$_ZNSt3__13mapIiNS_4pairIiiEENS_4lessIiEENS_9allocatorINS1_IKiS2_EEEEED2B6v15007Ev CODE
 0001:00014620 00000019H .text$_ZNSt3__16__treeINS_12__value_typeIiNS_4pairIiiEEEENS_19__map_value_compareIiS4_NS_4lessIiEELb1EEENS_9allocatorIS4_EEED1Ev CODE
 0001:00014640 0000002bH .text$_ZNSt3__16__treeINS_12__value_typeIiNS_4pairIiiEEEENS_19__map_value_compareIiS4_NS_4lessIiEELb1EEENS_9allocatorIS4_EEED2Ev CODE
 0001:00014670 000000b2H .text$_ZNSt3__16__treeINS_12__value_typeIiNS_4pairIiiEEEENS_19__map_value_compareIiS4_NS_4lessIiEELb1EEENS_9allocatorIS4_EEE7destroyEPNS_11__tree_nodeIS4_PvEE CODE
 0001:00014730 0000001bH .text$_ZNKSt3__16__treeINS_12__value_typeIiNS_4pairIiiEEEENS_19__map_value_compareIiS4_NS_4lessIiEELb1EEENS_9allocatorIS4_EEE6__rootB6v15007Ev CODE
 0001:00014750 0000001dH .text$_ZNSt3__16__treeINS_12__value_typeIiNS_4pairIiiEEEENS_19__map_value_compareIiS4_NS_4lessIiEELb1EEENS_9allocatorIS4_EEE12__node_allocB6v15007Ev CODE
 0001:00014770 00000012H .text$_ZNSt3__116allocator_traitsINS_9allocatorINS_11__tree_nodeINS_12__value_typeIiNS_4pairIiiEEEEPvEEEEE7destroyB6v15007INS4_IKiS5_EEvvEEvRS9_PT_ CODE
 0001:00014790 00000019H .text$_ZNSt3__122__tree_key_value_typesINS_12__value_typeIiNS_4pairIiiEEEEE9__get_ptrB6v15007ERS4_ CODE
 0001:000147b0 0000002dH .text$_ZNSt3__116allocator_traitsINS_9allocatorINS_11__tree_nodeINS_12__value_typeIiNS_4pairIiiEEEEPvEEEEE10deallocateB6v15007ERS9_PS8_y CODE
 0001:000147e0 00000019H .text$_ZNSt3__117__compressed_pairINS_15__tree_end_nodeIPNS_16__tree_node_baseIPvEEEENS_9allocatorINS_11__tree_nodeINS_12__value_typeIiNS_4pairIiiEEEES3_EEEEE6secondB6v15007Ev CODE
 0001:00014800 0000000bH .text$_ZNSt3__122__compressed_pair_elemINS_9allocatorINS_11__tree_nodeINS_12__value_typeIiNS_4pairIiiEEEEPvEEEELi1ELb1EE5__getB6v15007Ev CODE
 0001:00014810 00000019H .text$_ZNSt3__112__value_typeIiNS_4pairIiiEEE11__get_valueB6v15007Ev CODE
 0001:00014830 00000019H .text$_ZNSt3__17launderB6v15007INS_4pairIKiNS1_IiiEEEEEEPT_S6_ CODE
 0001:00014850 0000000bH .text$_ZNSt3__19__launderB6v15007INS_4pairIKiNS1_IiiEEEEEEPT_S6_ CODE
 0001:00014860 00000043H .text$_ZNSt3__19allocatorINS_11__tree_nodeINS_12__value_typeIiNS_4pairIiiEEEEPvEEE10deallocateB6v15007EPS7_y CODE
 0001:000148b0 00000025H .text$_ZNKSt3__16__treeINS_12__value_typeIiNS_4pairIiiEEEENS_19__map_value_compareIiS4_NS_4lessIiEELb1EEENS_9allocatorIS4_EEE10__end_nodeB6v15007Ev CODE
 0001:000148e0 00000019H .text$_ZNKSt3__117__compressed_pairINS_15__tree_end_nodeIPNS_16__tree_node_baseIPvEEEENS_9allocatorINS_11__tree_nodeINS_12__value_typeIiNS_4pairIiiEEEES3_EEEEE5firstB6v15007Ev CODE
 0001:00014900 0000000bH .text$_ZNKSt3__122__compressed_pair_elemINS_15__tree_end_nodeIPNS_16__tree_node_baseIPvEEEELi0ELb0EE5__getB6v15007Ev CODE
 0001:00014910 00000153H .text$_ZNSt3__16__treeINS_12__value_typeIiNS_4pairIiiEEEENS_19__map_value_compareIiS4_NS_4lessIiEELb1EEENS_9allocatorIS4_EEE25__emplace_unique_key_argsIiJRKNS_21piecewise_construct_tENS_5tupleIJRKiEEENSG_IJEEEEEENS2_INS_15__tree_iteratorIS4_PNS_11__tree_nodeIS4_PvEExEEbEERKT_DpOT0_ CODE
 0001:00014a70 00000022H .text$_ZNSt3__116forward_as_tupleB6v15007IJRKiEEENS_5tupleIJDpOT_EEES6_ CODE
 0001:00014aa0 00000006H .text$_ZNSt3__116forward_as_tupleB6v15007IJEEENS_5tupleIJDpOT_EEES4_ CODE
 0001:00014ab0 00000025H .text$_ZNKSt3__115__tree_iteratorINS_12__value_typeIiNS_4pairIiiEEEEPNS_11__tree_nodeIS4_PvEExEptB6v15007Ev CODE
 0001:00014ae0 00000198H .text$_ZNSt3__16__treeINS_12__value_typeIiNS_4pairIiiEEEENS_19__map_value_compareIiS4_NS_4lessIiEELb1EEENS_9allocatorIS4_EEE12__find_equalIiEERPNS_16__tree_node_baseIPvEERPNS_15__tree_end_nodeISG_EERKT_ CODE
 0001:00014c80 00000170H .text$_ZNSt3__16__treeINS_12__value_typeIiNS_4pairIiiEEEENS_19__map_value_compareIiS4_NS_4lessIiEELb1EEENS_9allocatorIS4_EEE16__construct_nodeIJRKNS_21piecewise_construct_tENS_5tupleIJRKiEEENSG_IJEEEEEENS_10unique_ptrINS_11__tree_nodeIS4_PvEENS_22__tree_node_destructorINS9_ISO_EEEEEEDpOT_ CODE
 0001:00014df0 000000c2H .text$_ZNSt3__16__treeINS_12__value_typeIiNS_4pairIiiEEEENS_19__map_value_compareIiS4_NS_4lessIiEELb1EEENS_9allocatorIS4_EEE16__insert_node_atEPNS_15__tree_end_nodeIPNS_16__tree_node_baseIPvEEEERSG_SG_ CODE
 0001:00014ec0 0000001bH .text$_ZNKSt3__110unique_ptrINS_11__tree_nodeINS_12__value_typeIiNS_4pairIiiEEEEPvEENS_22__tree_node_destructorINS_9allocatorIS7_EEEEE3getB6v15007Ev CODE
 0001:00014ee0 0000003bH .text$_ZNSt3__110unique_ptrINS_11__tree_nodeINS_12__value_typeIiNS_4pairIiiEEEEPvEENS_22__tree_node_destructorINS_9allocatorIS7_EEEEE7releaseB6v15007Ev CODE
 0001:00014f20 00000019H .text$_ZNSt3__110unique_ptrINS_11__tree_nodeINS_12__value_typeIiNS_4pairIiiEEEEPvEENS_22__tree_node_destructorINS_9allocatorIS7_EEEEED1B6v15007Ev CODE
 0001:00014f40 00000023H .text$_ZNSt3__115__tree_iteratorINS_12__value_typeIiNS_4pairIiiEEEEPNS_11__tree_nodeIS4_PvEExEC1B6v15007ES8_ CODE
 0001:00014f70 0000002dH .text$_ZNSt3__14pairINS_15__tree_iteratorINS_12__value_typeIiNS0_IiiEEEEPNS_11__tree_nodeIS4_PvEExEEbEC1B6v15007IS9_RbLS6_0EEEOT_OT0_ CODE
 0001:00014fa0 00000019H .text$_ZNKSt3__16__treeINS_12__value_typeIiNS_4pairIiiEEEENS_19__map_value_compareIiS4_NS_4lessIiEELb1EEENS_9allocatorIS4_EEE10__root_ptrEv CODE
 0001:00014fc0 0000001dH .text$_ZNSt3__16__treeINS_12__value_typeIiNS_4pairIiiEEEENS_19__map_value_compareIiS4_NS_4lessIiEELb1EEENS_9allocatorIS4_EEE10value_compB6v15007Ev CODE
 0001:00014fe0 0000004dH .text$_ZNKSt3__119__map_value_compareIiNS_12__value_typeIiNS_4pairIiiEEEENS_4lessIiEELb1EEclB6v15007ERKiRKS4_ CODE
 0001:00015030 00000043H .text$_ZNKSt3__119__map_value_compareIiNS_12__value_typeIiNS_4pairIiiEEEENS_4lessIiEELb1EEclB6v15007ERKS4_RKi CODE
 0001:00015080 00000019H .text$_ZNSt3__117__compressed_pairIyNS_19__map_value_compareIiNS_12__value_typeIiNS_4pairIiiEEEENS_4lessIiEELb1EEEE6secondB6v15007Ev CODE
 0001:000150a0 0000000bH .text$_ZNSt3__122__compressed_pair_elemINS_19__map_value_compareIiNS_12__value_typeIiNS_4pairIiiEEEENS_4lessIiEELb1EEELi1ELb1EE5__getB6v15007Ev CODE
 0001:000150b0 0000002cH .text$_ZNKSt3__14lessIiEclB6v15007ERKiS3_ CODE
 0001:000150e0 00000019H .text$_ZNKSt3__112__value_typeIiNS_4pairIiiEEE11__get_valueB6v15007Ev CODE
 0001:00015100 00000019H .text$_ZNSt3__17launderB6v15007IKNS_4pairIKiNS1_IiiEEEEEEPT_S7_ CODE
 0001:00015120 0000000bH .text$_ZNSt3__19__launderB6v15007IKNS_4pairIKiNS1_IiiEEEEEEPT_S7_ CODE
 0001:00015130 00000023H .text$_ZNSt3__116allocator_traitsINS_9allocatorINS_11__tree_nodeINS_12__value_typeIiNS_4pairIiiEEEEPvEEEEE8allocateB6v15007ERS9_y CODE
 0001:00015160 00000035H .text$_ZNSt3__122__tree_node_destructorINS_9allocatorINS_11__tree_nodeINS_12__value_typeIiNS_4pairIiiEEEEPvEEEEEC1B6v15007ERS9_b CODE
 0001:000151a0 0000002dH .text$_ZNSt3__110unique_ptrINS_11__tree_nodeINS_12__value_typeIiNS_4pairIiiEEEEPvEENS_22__tree_node_destructorINS_9allocatorIS7_EEEEEC1B6v15007ILb1EvEEPS7_NS_16__dependent_typeINS_27__unique_ptr_deleter_sfinaeISB_EEXT_EE20__good_rval_ref_typeE CODE
 0001:000151d0 00000046H .text$_ZNSt3__116allocator_traitsINS_9allocatorINS_11__tree_nodeINS_12__value_typeIiNS_4pairIiiEEEEPvEEEEE9constructB6v15007INS4_IKiS5_EEJRKNS_21piecewise_construct_tENS_5tupleIJRSC_EEENSH_IJEEEEvEEvRS9_PT_DpOT0_ CODE
 0001:00015220 0000001bH .text$_ZNKSt3__110unique_ptrINS_11__tree_nodeINS_12__value_typeIiNS_4pairIiiEEEEPvEENS_22__tree_node_destructorINS_9allocatorIS7_EEEEEptB6v15007Ev CODE
 0001:00015240 00000019H .text$_ZNSt3__110unique_ptrINS_11__tree_nodeINS_12__value_typeIiNS_4pairIiiEEEEPvEENS_22__tree_node_destructorINS_9allocatorIS7_EEEEE11get_deleterB6v15007Ev CODE
 0001:00015260 0000004eH .text$_ZNSt3__19allocatorINS_11__tree_nodeINS_12__value_typeIiNS_4pairIiiEEEEPvEEE8allocateB6v15007Ey CODE
 0001:000152b0 00000019H .text$_ZNSt3__116allocator_traitsINS_9allocatorINS_11__tree_nodeINS_12__value_typeIiNS_4pairIiiEEEEPvEEEEE8max_sizeB6v15007IS9_vEEyRKS9_ CODE
 0001:000152d0 00000011H .text$_ZNKSt3__19allocatorINS_11__tree_nodeINS_12__value_typeIiNS_4pairIiiEEEEPvEEE8max_sizeB6v15007Ev CODE
 0001:000152f0 00000033H .text$_ZNSt3__122__tree_node_destructorINS_9allocatorINS_11__tree_nodeINS_12__value_typeIiNS_4pairIiiEEEEPvEEEEEC2B6v15007ERS9_b CODE
 0001:00015330 0000003aH .text$_ZNSt3__110unique_ptrINS_11__tree_nodeINS_12__value_typeIiNS_4pairIiiEEEEPvEENS_22__tree_node_destructorINS_9allocatorIS7_EEEEEC2B6v15007ILb1EvEEPS7_NS_16__dependent_typeINS_27__unique_ptr_deleter_sfinaeISB_EEXT_EE20__good_rval_ref_typeE CODE
 0001:00015370 0000002dH .text$_ZNSt3__117__compressed_pairIPNS_11__tree_nodeINS_12__value_typeIiNS_4pairIiiEEEEPvEENS_22__tree_node_destructorINS_9allocatorIS7_EEEEEC1B6v15007IRS8_SC_EEOT_OT0_ CODE
 0001:000153a0 00000040H .text$_ZNSt3__117__compressed_pairIPNS_11__tree_nodeINS_12__value_typeIiNS_4pairIiiEEEEPvEENS_22__tree_node_destructorINS_9allocatorIS7_EEEEEC2B6v15007IRS8_SC_EEOT_OT0_ CODE
 0001:000153e0 00000021H .text$_ZNSt3__122__compressed_pair_elemIPNS_11__tree_nodeINS_12__value_typeIiNS_4pairIiiEEEEPvEELi0ELb0EEC2B6v15007IRS8_vEEOT_ CODE
 0001:00015410 00000029H .text$_ZNSt3__122__compressed_pair_elemINS_22__tree_node_destructorINS_9allocatorINS_11__tree_nodeINS_12__value_typeIiNS_4pairIiiEEEEPvEEEEEELi1ELb0EEC2B6v15007ISB_vEEOT_ CODE
 0001:00015440 0000004bH .text$_ZNSt3__19allocatorINS_11__tree_nodeINS_12__value_typeIiNS_4pairIiiEEEEPvEEE9constructB6v15007INS3_IKiS4_EEJRKNS_21piecewise_construct_tENS_5tupleIJRSA_EEENSF_IJEEEEEEvPT_DpOT0_ CODE
 0001:00015490 00000057H .text$_ZNSt3__14pairIKiNS0_IiiEEEC1B6v15007IJRS1_EJEEENS_21piecewise_construct_tENS_5tupleIJDpT_EEENS7_IJDpT0_EEE CODE
 0001:000154f0 00000061H .text$_ZNSt3__14pairIKiNS0_IiiEEEC1B6v15007IJRS1_EJEJLy0EEJEEENS_21piecewise_construct_tERNS_5tupleIJDpT_EEERNS7_IJDpT0_EEENS_15__tuple_indicesIJXspT1_EEEENSG_IJXspT2_EEEE CODE
 0001:00015560 0000005dH .text$_ZNSt3__14pairIKiNS0_IiiEEEC2B6v15007IJRS1_EJEJLy0EEJEEENS_21piecewise_construct_tERNS_5tupleIJDpT_EEERNS7_IJDpT0_EEENS_15__tuple_indicesIJXspT1_EEEENSG_IJXspT2_EEEE CODE
 0001:000155c0 00000019H .text$_ZNSt3__13getB6v15007ILy0EJRKiEEERNS_13tuple_elementIXT_ENS_5tupleIJDpT0_EEEE4typeERS7_ CODE
 0001:000155e0 00000019H .text$_ZNSt3__14pairIiiEC1B6v15007ILb1ELPv0EEEv CODE
 0001:00015600 0000000eH .text$_ZNSt3__112__tuple_leafILy0ERKiLb0EE3getB6v15007Ev CODE
 0001:00015610 00000018H .text$_ZNSt3__14pairIiiEC2B6v15007ILb1ELPv0EEEv CODE
 0001:00015630 00000019H .text$_ZNKSt3__117__compressed_pairIPNS_11__tree_nodeINS_12__value_typeIiNS_4pairIiiEEEEPvEENS_22__tree_node_destructorINS_9allocatorIS7_EEEEE5firstB6v15007Ev CODE
 0001:00015650 0000000bH .text$_ZNKSt3__122__compressed_pair_elemIPNS_11__tree_nodeINS_12__value_typeIiNS_4pairIiiEEEEPvEELi0ELb0EE5__getB6v15007Ev CODE
 0001:00015660 0000001dH .text$_ZNSt3__117__compressed_pairIPNS_11__tree_nodeINS_12__value_typeIiNS_4pairIiiEEEEPvEENS_22__tree_node_destructorINS_9allocatorIS7_EEEEE6secondB6v15007Ev CODE
 0001:00015680 0000000bH .text$_ZNSt3__122__compressed_pair_elemINS_22__tree_node_destructorINS_9allocatorINS_11__tree_nodeINS_12__value_typeIiNS_4pairIiiEEEEPvEEEEEELi1ELb0EE5__getB6v15007Ev CODE
 0001:00015690 00000423H .text$_ZNSt3__127__tree_balance_after_insertIPNS_16__tree_node_baseIPvEEEEvT_S5_ CODE
 0001:00015ac0 0000001dH .text$_ZNSt3__16__treeINS_12__value_typeIiNS_4pairIiiEEEENS_19__map_value_compareIiS4_NS_4lessIiEELb1EEENS_9allocatorIS4_EEE4sizeB6v15007Ev CODE
 0001:00015ae0 0000000fH .text$_ZNKSt3__116__tree_node_baseIPvE15__parent_unsafeB6v15007Ev CODE
 0001:00015af0 0000001eH .text$_ZNSt3__120__tree_is_left_childB6v15007IPNS_16__tree_node_baseIPvEEEEbT_ CODE
 0001:00015b10 000000dbH .text$_ZNSt3__118__tree_left_rotateIPNS_16__tree_node_baseIPvEEEEvT_ CODE
 0001:00015bf0 000000c7H .text$_ZNSt3__119__tree_right_rotateIPNS_16__tree_node_baseIPvEEEEvT_ CODE
 0001:00015cc0 0000001fH .text$_ZNSt3__116__tree_node_baseIPvE12__set_parentB6v15007EPS2_ CODE
 0001:00015ce0 00000019H .text$_ZNSt3__117__compressed_pairIyNS_19__map_value_compareIiNS_12__value_typeIiNS_4pairIiiEEEENS_4lessIiEELb1EEEE5firstB6v15007Ev CODE
 0001:00015d00 00000019H .text$_ZNSt3__117__compressed_pairIPNS_11__tree_nodeINS_12__value_typeIiNS_4pairIiiEEEEPvEENS_22__tree_node_destructorINS_9allocatorIS7_EEEEE5firstB6v15007Ev CODE
 0001:00015d20 0000000bH .text$_ZNSt3__122__compressed_pair_elemIPNS_11__tree_nodeINS_12__value_typeIiNS_4pairIiiEEEEPvEELi0ELb0EE5__getB6v15007Ev CODE
 0001:00015d30 0000001dH .text$_ZNSt3__110unique_ptrINS_11__tree_nodeINS_12__value_typeIiNS_4pairIiiEEEEPvEENS_22__tree_node_destructorINS_9allocatorIS7_EEEEED2B6v15007Ev CODE
 0001:00015d50 0000006aH .text$_ZNSt3__110unique_ptrINS_11__tree_nodeINS_12__value_typeIiNS_4pairIiiEEEEPvEENS_22__tree_node_destructorINS_9allocatorIS7_EEEEE5resetB6v15007EPS7_ CODE
 0001:00015dc0 00000089H .text$_ZNSt3__122__tree_node_destructorINS_9allocatorINS_11__tree_nodeINS_12__value_typeIiNS_4pairIiiEEEEPvEEEEEclB6v15007EPS8_ CODE
 0001:00015e50 0000001eH .text$_ZNSt3__115__tree_iteratorINS_12__value_typeIiNS_4pairIiiEEEEPNS_11__tree_nodeIS4_PvEExEC2B6v15007ES8_ CODE
 0001:00015e70 00000033H .text$_ZNSt3__14pairINS_15__tree_iteratorINS_12__value_typeIiNS0_IiiEEEEPNS_11__tree_nodeIS4_PvEExEEbEC2B6v15007IS9_RbLS6_0EEEOT_OT0_ CODE
 0001:00015eb0 00000023H .text$_ZNSt3__15tupleIJRKiEEC1B6v15007INS_4_AndELi0EEES2_ CODE
 0001:00015ee0 00000040H .text$_ZNSt3__15tupleIJRKiEEC2B6v15007INS_4_AndELi0EEES2_ CODE
 0001:00015f20 0000005fH .text$_ZNSt3__112__tuple_implINS_15__tuple_indicesIJLy0EEEEJRKiEEC1B6v15007IJLy0EEJS4_EJEJEJS4_EEENS1_IJXspT_EEEENS_13__tuple_typesIJDpT0_EEENS1_IJXspT1_EEEENS8_IJDpT2_EEEDpOT3_ CODE
 0001:00015f80 00000039H .text$_ZNSt3__112__tuple_implINS_15__tuple_indicesIJLy0EEEEJRKiEEC2B6v15007IJLy0EEJS4_EJEJEJS4_EEENS1_IJXspT_EEEENS_13__tuple_typesIJDpT0_EEENS1_IJXspT1_EEEENS8_IJDpT2_EEEDpOT3_ CODE
 0001:00015fc0 0000001eH .text$_ZNSt3__112__tuple_leafILy0ERKiLb0EEC2B6v15007IS2_vEEOT_ CODE
 0001:00015fe0 0000000bH .text$_ZNSt3__114pointer_traitsIPNS_12__value_typeIiNS_4pairIiiEEEEE10pointer_toB6v15007ERS4_ CODE
 0001:00015ff0 0000000eH .text$_ZNKSt3__115__tree_iteratorINS_12__value_typeIiNS_4pairIiiEEEEPNS_11__tree_nodeIS4_PvEExE8__get_npB6v15007Ev CODE
 0001:00016000 00000132H .text$_ZNSt3__16vectorI7RikishiNS_9allocatorIS1_EEEC2ERKS4_ CODE
 0001:00016140 00000011H .text$_ZNSt3__116allocator_traitsINS_9allocatorI7RikishiEEE37select_on_container_copy_constructionB6v15007IS3_vvEES3_RKS3_ CODE
 0001:00016160 0000001dH .text$_ZNKSt3__16vectorI7RikishiNS_9allocatorIS1_EEE7__allocB6v15007Ev CODE
 0001:00016180 0000002dH .text$_ZNSt3__117__compressed_pairIP7RikishiNS_9allocatorIS1_EEEC1B6v15007IDnS4_EEOT_OT0_ CODE
 0001:000161b0 00000034H .text$_ZNSt3__118__make_transactionB6v15007INS_6vectorI7RikishiNS_9allocatorIS2_EEE16__destroy_vectorEEENS_13__transactionIT_EES8_ CODE
 0001:000161f0 00000007H .text$_ZNSt3__119__debug_db_insert_cB6v15007INS_6vectorI7RikishiNS_9allocatorIS2_EEEEEEvPT_ CODE
 0001:00016200 000000a9H .text$_ZNSt3__16vectorI7RikishiNS_9allocatorIS1_EEE11__vallocateB6v15007Ey CODE
 0001:000162b0 00000099H .text$_ZNSt3__16vectorI7RikishiNS_9allocatorIS1_EEE18__construct_at_endIPS1_EENS_9enable_ifIXsr27__is_cpp17_forward_iteratorIT_EE5valueEvE4typeES8_S8_y CODE
 0001:00016350 0000000fH .text$_ZNSt3__113__transactionINS_6vectorI7RikishiNS_9allocatorIS2_EEE16__destroy_vectorEE10__completeB6v15007Ev CODE
 0001:00016360 00000019H .text$_ZNSt3__113__transactionINS_6vectorI7RikishiNS_9allocatorIS2_EEE16__destroy_vectorEED1B6v15007Ev CODE
 0001:00016380 00000019H .text$_ZNKSt3__117__compressed_pairIP7RikishiNS_9allocatorIS1_EEE6secondB6v15007Ev CODE
 0001:000163a0 0000000bH .text$_ZNKSt3__122__compressed_pair_elemINS_9allocatorI7RikishiEELi1ELb1EE5__getB6v15007Ev CODE
 0001:000163b0 0000003cH .text$_ZNSt3__117__compressed_pairIP7RikishiNS_9allocatorIS1_EEEC2B6v15007IDnS4_EEOT_OT0_ CODE
 0001:000163f0 0000001eH .text$_ZNSt3__122__compressed_pair_elemIP7RikishiLi0ELb0EEC2B6v15007IDnvEEOT_ CODE
 0001:00016410 00000012H .text$_ZNSt3__122__compressed_pair_elemINS_9allocatorI7RikishiEELi1ELb1EEC2B6v15007IS3_vEEOT_ CODE
 0001:00016430 00000023H .text$_ZNSt3__113__transactionINS_6vectorI7RikishiNS_9allocatorIS2_EEE16__destroy_vectorEEC1B6v15007ES6_ CODE
 0001:00016460 00000022H .text$_ZNSt3__113__transactionINS_6vectorI7RikishiNS_9allocatorIS2_EEE16__destroy_vectorEEC2B6v15007ES6_ CODE
 0001:00016490 00000059H .text$_ZNKSt3__16vectorI7RikishiNS_9allocatorIS1_EEE8max_sizeEv CODE
 0001:000164f0 00000016H .text$_ZNKSt3__16vectorI7RikishiNS_9allocatorIS1_EEE20__throw_length_errorB6v15007Ev CODE
 0001:00016510 0000004dH .text$_ZNSt3__119__allocate_at_leastB6v15007INS_9allocatorI7RikishiEEEENS_19__allocation_resultINS_16allocator_traitsIT_E7pointerEEERS6_y CODE
 0001:00016560 0000001dH .text$_ZNSt3__16vectorI7RikishiNS_9allocatorIS1_EEE9__end_capB6v15007Ev CODE
 0001:00016580 000000bcH .text$_ZNKSt3__16vectorI7RikishiNS_9allocatorIS1_EEE14__annotate_newB6v15007Ey CODE
 0001:00016640 00000028H .text$_ZNSt3__13minB6v15007IyEERKT_S3_S3_ CODE
 0001:00016670 00000019H .text$_ZNSt3__116allocator_traitsINS_9allocatorI7RikishiEEE8max_sizeB6v15007IS3_vEEyRKS3_ CODE
 0001:00016690 0000000fH .text$_ZNSt3__114numeric_limitsIxE3maxB6v15007Ev CODE
 0001:000166a0 00000057H .text$_ZNSt3__13minB6v15007IyNS_6__lessIyyEEEERKT_S5_S5_T0_ CODE
 0001:00016700 00000011H .text$_ZNKSt3__19allocatorI7RikishiE8max_sizeB6v15007Ev CODE
 0001:00016720 0000000bH .text$_ZNSt3__123__libcpp_numeric_limitsIxLb1EE3maxB6v15007Ev CODE
 0001:00016730 00000070H .text$_ZNSt3__120__throw_length_errorB6v15007EPKc CODE
 0001:000167a0 00000023H .text$_ZNSt12length_errorC1B6v15007EPKc CODE
 0001:000167d0 0000003aH .text$_ZNSt12length_errorC2B6v15007EPKc CODE
 0001:00016810 00000051H .text$_ZNSt3__19allocatorI7RikishiE8allocateB6v15007Ey CODE
 0001:00016870 00000019H .text$_ZNSt3__117__compressed_pairIP7RikishiNS_9allocatorIS1_EEE5firstB6v15007Ev CODE
 0001:00016890 0000000bH .text$_ZNSt3__122__compressed_pair_elemIP7RikishiLi0ELb0EE5__getB6v15007Ev CODE
 0001:000168a0 0000002dH .text$_ZNSt3__16vectorI7RikishiNS_9allocatorIS1_EEE21_ConstructTransactionC1ERS4_y CODE
 0001:000168d0 00000110H .text$_ZNSt3__130__uninitialized_allocator_copyB6v15007INS_9allocatorI7RikishiEEPS2_S4_S4_EET2_RT_T0_T1_S5_ CODE
 0001:000169e0 00000019H .text$_ZNSt3__16vectorI7RikishiNS_9allocatorIS1_EEE21_ConstructTransactionD1Ev CODE
 0001:00016a00 00000049H .text$_ZNSt3__16vectorI7RikishiNS_9allocatorIS1_EEE21_ConstructTransactionC2ERS4_y CODE
 0001:00016a50 0000002dH .text$_ZNSt3__116allocator_traitsINS_9allocatorI7RikishiEEE9constructB6v15007IS2_JRS2_EvEEvRS3_PT_DpOT0_ CODE
 0001:00016a80 00000037H .text$_ZNSt3__129_AllocatorDestroyRangeReverseINS_9allocatorI7RikishiEEPS2_EC1B6v15007ERS3_RS4_S7_ CODE
 0001:00016ac0 0000005cH .text$_ZNKSt3__129_AllocatorDestroyRangeReverseINS_9allocatorI7RikishiEEPS2_EclB6v15007Ev CODE
 0001:00016b20 00000028H .text$_ZNSt3__19allocatorI7RikishiE9constructB6v15007IS1_JRS1_EEEvPT_DpOT0_ CODE
 0001:00016b50 00000023H .text$_ZN7RikishiC1ERKS_ CODE
 0001:00016b80 000001daH .text$_ZN7RikishiC2ERKS_ CODE
 0001:00016d60 0000003aH .text$_ZNSt3__129_AllocatorDestroyRangeReverseINS_9allocatorI7RikishiEEPS2_EC2B6v15007ERS3_RS4_S7_ CODE
 0001:00016da0 00000064H .text$_ZNSt3__119__allocator_destroyB6v15007INS_9allocatorI7RikishiEENS_16reverse_iteratorIPS2_EES6_EEvRT_T0_T1_ CODE
 0001:00016e10 00000023H .text$_ZNSt3__116reverse_iteratorIP7RikishiEC1B6v15007ES2_ CODE
 0001:00016e40 0000003fH .text$_ZNSt3__1neB6v15007IP7RikishiS2_EEbRKNS_16reverse_iteratorIT_EERKNS3_IT0_EE CODE
 0001:00016e80 00000019H .text$_ZNSt3__112__to_addressB6v15007INS_16reverse_iteratorIP7RikishiEEvEENS_5decayIDTclsr19__to_address_helperIT_EE6__callcl7declvalIRKS6_EEEEE4typeES8_ CODE
 0001:00016ea0 0000001aH .text$_ZNSt3__116reverse_iteratorIP7RikishiEppB6v15007Ev CODE
 0001:00016ec0 0000000fH .text$_ZNKSt3__116reverse_iteratorIP7RikishiE4baseB6v15007Ev CODE
 0001:00016ed0 00000036H .text$_ZNSt3__119__to_address_helperINS_16reverse_iteratorIP7RikishiEEvE6__callB6v15007ERKS4_ CODE
 0001:00016f10 00000019H .text$_ZNKSt3__116reverse_iteratorIP7RikishiEptB6v15007Ev CODE
 0001:00016f30 00000029H .text$_ZNKSt3__116reverse_iteratorIP7RikishiEdeB6v15007Ev CODE
 0001:00016f60 00000026H .text$_ZNSt3__116reverse_iteratorIP7RikishiEC2B6v15007ES2_ CODE
 0001:00016f90 00000016H .text$_ZNSt3__16vectorI7RikishiNS_9allocatorIS1_EEE21_ConstructTransactionD2Ev CODE
 0001:00016fb0 0000003fH .text$_ZNSt3__113__transactionINS_6vectorI7RikishiNS_9allocatorIS2_EEE16__destroy_vectorEED2B6v15007Ev CODE
 0001:00016ff0 0000002dH .text$_ZNSt3__111__wrap_iterIP7RikishiEC1B6v15007EPKvS2_ CODE
 0001:00017020 00000023H .text$_ZNSt3__111__wrap_iterIP7RikishiEC2B6v15007EPKvS2_ CODE
 0001:00017050 00000012H .text$_ZNSt3__123__debug_randomize_rangeB6v15007INS_17_ClassicAlgPolicyENS_11__wrap_iterIP7RikishiEES5_EEvT0_T1_ CODE
 0001:00017070 00000023H .text$_ZNSt3__113__unwrap_iterB6v15007INS_11__wrap_iterIP7RikishiEENS_18__unwrap_iter_implIS4_Lb1EEELi0EEEDTclsrT0_8__unwrapclsr3stdE7declvalIT_EEEES8_ CODE
 0001:000170a0 00000047H .text$_ZNSt3__17__log2iB6v15007IxEET_S1_ CODE
 0001:000170f0 00000029H .text$_ZNSt3__18_IterOpsINS_17_ClassicAlgPolicyEE9iter_swapB6v15007IRP7RikishiS6_EEvOT_OT0_ CODE
 0001:00017120 00000023H .text$_ZNSt3__19iter_swapB6v15007IP7RikishiS2_EEvT_T0_ CODE
 0001:00017150 00000090H .text$_ZNSt3__14swapB6v15007I7RikishiEENS_9enable_ifIXaasr21is_move_constructibleIT_EE5valuesr18is_move_assignableIS3_EE5valueEvE4typeERS3_S6_ CODE
 0001:000171e0 00000023H .text$_ZN7RikishiC1EOS_ CODE
 0001:00017210 00000105H .text$_ZN7RikishiaSEOS_ CODE
 0001:00017320 0000014eH .text$_ZN7RikishiC2EOS_ CODE
 0001:00017470 00000023H .text$_ZNSt3__112basic_stringIcNS_11char_traitsIcEENS_9allocatorIcEEEC1B6v15007EOS5_ CODE
 0001:000174a0 00000085H .text$_ZNSt3__112basic_stringIcNS_11char_traitsIcEENS_9allocatorIcEEEC2B6v15007EOS5_ CODE
 0001:00017530 00000012H .text$_ZNSt3__115__debug_db_swapB6v15007INS_12basic_stringIcNS_11char_traitsIcEENS_9allocatorIcEEEEEEvPT_S8_ CODE
 0001:00017550 00000031H .text$_ZNSt3__112basic_stringIcNS_11char_traitsIcEENS_9allocatorIcEEEaSB6v15007EOS5_ CODE
 0001:00017590 000000dcH .text$_ZNSt3__112basic_stringIcNS_11char_traitsIcEENS_9allocatorIcEEE13__move_assignB6v15007ERS5_NS_17integral_constantIbLb1EEE CODE
 0001:00017670 0000002dH .text$_ZNSt3__116allocator_traitsINS_9allocatorIcEEE10deallocateB6v15007ERS2_Pcy CODE
 0001:000176a0 00000019H .text$_ZNSt3__112basic_stringIcNS_11char_traitsIcEENS_9allocatorIcEEE7__allocB6v15007Ev CODE
 0001:000176c0 0000001cH .text$_ZNSt3__112basic_stringIcNS_11char_traitsIcEENS_9allocatorIcEEE18__get_long_pointerB6v15007Ev CODE
 0001:000176e0 00000023H .text$_ZNKSt3__112basic_stringIcNS_11char_traitsIcEENS_9allocatorIcEEE14__get_long_capB6v15007Ev CODE
 0001:00017710 00000028H .text$_ZNSt3__112basic_stringIcNS_11char_traitsIcEENS_9allocatorIcEEE19__move_assign_allocB6v15007ERS5_ CODE
 0001:00017740 00000056H .text$_ZNSt3__112basic_stringIcNS_11char_traitsIcEENS_9allocatorIcEEE16__set_short_sizeB6v15007Ey CODE
 0001:000177a0 0000001fH .text$_ZNSt3__111char_traitsIcE6assignERcRKc CODE
 0001:000177c0 00000025H .text$_ZNSt3__112basic_stringIcNS_11char_traitsIcEENS_9allocatorIcEEE19__get_short_pointerB6v15007Ev CODE
 0001:000177f0 0000003bH .text$_ZNSt3__19allocatorIcE10deallocateB6v15007EPcy CODE
 0001:00017830 00000019H .text$_ZNSt3__117__compressed_pairINS_12basic_stringIcNS_11char_traitsIcEENS_9allocatorIcEEE5__repES5_E6secondB6v15007Ev CODE
 0001:00017850 0000000bH .text$_ZNSt3__122__compressed_pair_elemINS_9allocatorIcEELi1ELb1EE5__getB6v15007Ev CODE
 0001:00017860 00000037H .text$_ZNSt3__112basic_stringIcNS_11char_traitsIcEENS_9allocatorIcEEE19__move_assign_allocB6v15007ERS5_NS_17integral_constantIbLb1EEE CODE
 0001:000178a0 0000000bH .text$_ZNSt3__114pointer_traitsIPcE10pointer_toB6v15007ERc CODE
 0001:000178b0 0000001bH .text$_ZNSt3__18_IterOpsINS_17_ClassicAlgPolicyEE11__iter_moveB6v15007IRP7RikishiEENS_9enable_ifIXsr12is_referenceIDTdeclsr3stdE7declvalIRT_EEEEE5valueEDTclsr3stdE4movedeclsr3stdE7declvalIS9_EEEEE4typeEOS8_ CODE
 0001:000178d0 00000001H .text$_ZNSt3__18_IterOpsINS_17_ClassicAlgPolicyEE25__validate_iter_referenceB6v15007IRP7RikishiEEvv CODE
 0001:000178e0 00000016H .text$_ZNSt3__18_IterOpsINS_17_ClassicAlgPolicyEE4nextB6v15007IP7RikishiEET_S6_S6_ CODE
 0001:00017900 00000012H .text$_ZNSt3__123__debug_randomize_rangeB6v15007INS_17_ClassicAlgPolicyEP7RikishiS3_EEvT0_T1_ CODE
 0001:00017920 00000019H .text$_ZNSt3__118__unwrap_iter_implINS_11__wrap_iterIP7RikishiEELb1EE8__unwrapB6v15007ES4_ CODE
 0001:00017940 00000019H .text$_ZNSt3__112__to_addressB6v15007INS_11__wrap_iterIP7RikishiEEvEENS_5decayIDTclsr19__to_address_helperIT_EE6__callcl7declvalIRKS6_EEEEE4typeES8_ CODE
 0001:00017960 00000026H .text$_ZNSt3__119__to_address_helperINS_11__wrap_iterIP7RikishiEEvE6__callB6v15007ERKS4_ CODE
 0001:00017990 00000021H .text$_ZNSt3__114pointer_traitsINS_11__wrap_iterIP7RikishiEEE10to_addressB6v15007ES4_ CODE
 0001:000179c0 00000052H .text$_ZNSt3__112basic_stringIcNS_11char_traitsIcEENS_9allocatorIcEEE13__get_pointerB6v15007Ev CODE
 0001:00017a20 00000019H .text$_ZNKSt3__112basic_stringIcNS_11char_traitsIcEENS_9allocatorIcEEE7__allocB6v15007Ev CODE
 0001:00017a40 00000019H .text$_ZNKSt3__117__compressed_pairINS_12basic_stringIcNS_11char_traitsIcEENS_9allocatorIcEEE5__repES5_E6secondB6v15007Ev CODE
 0001:00017a60 0000000bH .text$_ZNKSt3__122__compressed_pair_elemINS_9allocatorIcEELi1ELb1EE5__getB6v15007Ev CODE
 0001:00017a70 00000049H .text$_ZNSt3__112basic_stringIcNS_11char_traitsIcEENS_9allocatorIcEEE6appendB6v15007ERKS5_ CODE
 0001:00017ac0 00000047H .text$_ZN6System11AnsiStringTILt0EEC2EPKc CODE
 0001:00017b10 0000006eH .text$_ZN6System11AnsiStringTILt0EEC2Ei CODE
 0001:00017b80 00000047H .text$_ZN6System11AnsiStringTILt0EE7sprintfEPKcz CODE
 0001:00017bd0 00000137H .text$_ZNSt3__16vectorINS_12basic_stringIcNS_11char_traitsIcEENS_9allocatorIcEEEENS4_IS6_EEEC2B6v15007ESt16initializer_listIS6_E CODE
 0001:00017d10 0000002dH .text$_ZNSt3__117__compressed_pairIPNS_12basic_stringIcNS_11char_traitsIcEENS_9allocatorIcEEEENS4_IS6_EEEC1B6v15007IDnNS_18__default_init_tagEEEOT_OT0_ CODE
 0001:00017d40 00000034H .text$_ZNSt3__118__make_transactionB6v15007INS_6vectorINS_12basic_stringIcNS_11char_traitsIcEENS_9allocatorIcEEEENS5_IS7_EEE16__destroy_vectorEEENS_13__transactionIT_EESC_ CODE
 0001:00017d80 00000023H .text$_ZNSt3__16vectorINS_12basic_stringIcNS_11char_traitsIcEENS_9allocatorIcEEEENS4_IS6_EEE16__destroy_vectorC1ERS8_ CODE
 0001:00017db0 00000007H .text$_ZNSt3__119__debug_db_insert_cB6v15007INS_6vectorINS_12basic_stringIcNS_11char_traitsIcEENS_9allocatorIcEEEENS5_IS7_EEEEEEvPT_ CODE
 0001:00017dc0 0000000fH .text$_ZNKSt16initializer_listINSt3__112basic_stringIcNS0_11char_traitsIcEENS0_9allocatorIcEEEEE4sizeB6v15007Ev CODE
 0001:00017dd0 000000a6H .text$_ZNSt3__16vectorINS_12basic_stringIcNS_11char_traitsIcEENS_9allocatorIcEEEENS4_IS6_EEE11__vallocateB6v15007Ey CODE
 0001:00017e80 00000099H .text$_ZNSt3__16vectorINS_12basic_stringIcNS_11char_traitsIcEENS_9allocatorIcEEEENS4_IS6_EEE18__construct_at_endIPKS6_EENS_9enable_ifIXsr27__is_cpp17_forward_iteratorIT_EE5valueEvE4typeESD_SD_y CODE
 0001:00017f20 0000000eH .text$_ZNKSt16initializer_listINSt3__112basic_stringIcNS0_11char_traitsIcEENS0_9allocatorIcEEEEE5beginB6v15007Ev CODE
 0001:00017f30 00000016H .text$_ZNKSt16initializer_listINSt3__112basic_stringIcNS0_11char_traitsIcEENS0_9allocatorIcEEEEE3endB6v15007Ev CODE
 0001:00017f50 0000000fH .text$_ZNSt3__113__transactionINS_6vectorINS_12basic_stringIcNS_11char_traitsIcEENS_9allocatorIcEEEENS5_IS7_EEE16__destroy_vectorEE10__completeB6v15007Ev CODE
 0001:00017f60 00000019H .text$_ZNSt3__113__transactionINS_6vectorINS_12basic_stringIcNS_11char_traitsIcEENS_9allocatorIcEEEENS5_IS7_EEE16__destroy_vectorEED1B6v15007Ev CODE
 0001:00017f80 0000003bH .text$_ZNSt3__117__compressed_pairIPNS_12basic_stringIcNS_11char_traitsIcEENS_9allocatorIcEEEENS4_IS6_EEEC2B6v15007IDnNS_18__default_init_tagEEEOT_OT0_ CODE
 0001:00017fc0 0000001eH .text$_ZNSt3__122__compressed_pair_elemIPNS_12basic_stringIcNS_11char_traitsIcEENS_9allocatorIcEEEELi0ELb0EEC2B6v15007IDnvEEOT_ CODE
 0001:00017fe0 0000001dH .text$_ZNSt3__122__compressed_pair_elemINS_9allocatorINS_12basic_stringIcNS_11char_traitsIcEENS1_IcEEEEEELi1ELb1EEC2B6v15007ENS_18__default_init_tagE CODE
 0001:00018000 00000019H .text$_ZNSt3__19allocatorINS_12basic_stringIcNS_11char_traitsIcEENS0_IcEEEEEC2B6v15007Ev CODE
 0001:00018020 00000007H .text$_ZNSt3__116__non_trivial_ifILb1ENS_9allocatorINS_12basic_stringIcNS_11char_traitsIcEENS1_IcEEEEEEEC2B6v15007Ev CODE
 0001:00018030 00000023H .text$_ZNSt3__113__transactionINS_6vectorINS_12basic_stringIcNS_11char_traitsIcEENS_9allocatorIcEEEENS5_IS7_EEE16__destroy_vectorEEC1B6v15007ESA_ CODE
 0001:00018060 00000022H .text$_ZNSt3__113__transactionINS_6vectorINS_12basic_stringIcNS_11char_traitsIcEENS_9allocatorIcEEEENS5_IS7_EEE16__destroy_vectorEEC2B6v15007ESA_ CODE
 0001:00018090 0000001eH .text$_ZNSt3__16vectorINS_12basic_stringIcNS_11char_traitsIcEENS_9allocatorIcEEEENS4_IS6_EEE16__destroy_vectorC2ERS8_ CODE
 0001:000180b0 00000059H .text$_ZNKSt3__16vectorINS_12basic_stringIcNS_11char_traitsIcEENS_9allocatorIcEEEENS4_IS6_EEE8max_sizeEv CODE
 0001:00018110 00000016H .text$_ZNKSt3__16vectorINS_12basic_stringIcNS_11char_traitsIcEENS_9allocatorIcEEEENS4_IS6_EEE20__throw_length_errorB6v15007Ev CODE
 0001:00018130 0000004dH .text$_ZNSt3__119__allocate_at_leastB6v15007INS_9allocatorINS_12basic_stringIcNS_11char_traitsIcEENS1_IcEEEEEEEENS_19__allocation_resultINS_16allocator_traitsIT_E7pointerEEERSA_y CODE
 0001:00018180 0000001dH .text$_ZNSt3__16vectorINS_12basic_stringIcNS_11char_traitsIcEENS_9allocatorIcEEEENS4_IS6_EEE7__allocB6v15007Ev CODE
 0001:000181a0 0000001dH .text$_ZNSt3__16vectorINS_12basic_stringIcNS_11char_traitsIcEENS_9allocatorIcEEEENS4_IS6_EEE9__end_capB6v15007Ev CODE
 0001:000181c0 000000b3H .text$_ZNKSt3__16vectorINS_12basic_stringIcNS_11char_traitsIcEENS_9allocatorIcEEEENS4_IS6_EEE14__annotate_newB6v15007Ey CODE
 0001:00018280 00000019H .text$_ZNSt3__116allocator_traitsINS_9allocatorINS_12basic_stringIcNS_11char_traitsIcEENS1_IcEEEEEEE8max_sizeB6v15007IS7_vEEyRKS7_ CODE
 0001:000182a0 0000001dH .text$_ZNKSt3__16vectorINS_12basic_stringIcNS_11char_traitsIcEENS_9allocatorIcEEEENS4_IS6_EEE7__allocB6v15007Ev CODE
 0001:000182c0 00000011H .text$_ZNKSt3__19allocatorINS_12basic_stringIcNS_11char_traitsIcEENS0_IcEEEEE8max_sizeB6v15007Ev CODE
 0001:000182e0 00000019H .text$_ZNKSt3__117__compressed_pairIPNS_12basic_stringIcNS_11char_traitsIcEENS_9allocatorIcEEEENS4_IS6_EEE6secondB6v15007Ev CODE
 0001:00018300 0000000bH .text$_ZNKSt3__122__compressed_pair_elemINS_9allocatorINS_12basic_stringIcNS_11char_traitsIcEENS1_IcEEEEEELi1ELb1EE5__getB6v15007Ev CODE
 0001:00018310 0000004eH .text$_ZNSt3__19allocatorINS_12basic_stringIcNS_11char_traitsIcEENS0_IcEEEEE8allocateB6v15007Ey CODE
 0001:00018360 00000019H .text$_ZNSt3__117__compressed_pairIPNS_12basic_stringIcNS_11char_traitsIcEENS_9allocatorIcEEEENS4_IS6_EEE6secondB6v15007Ev CODE
 0001:00018380 0000000bH .text$_ZNSt3__122__compressed_pair_elemINS_9allocatorINS_12basic_stringIcNS_11char_traitsIcEENS1_IcEEEEEELi1ELb1EE5__getB6v15007Ev CODE
 0001:00018390 00000019H .text$_ZNSt3__117__compressed_pairIPNS_12basic_stringIcNS_11char_traitsIcEENS_9allocatorIcEEEENS4_IS6_EEE5firstB6v15007Ev CODE
 0001:000183b0 0000000bH .text$_ZNSt3__122__compressed_pair_elemIPNS_12basic_stringIcNS_11char_traitsIcEENS_9allocatorIcEEEELi0ELb0EE5__getB6v15007Ev CODE
 0001:000183c0 00000021H .text$_ZNKSt3__16vectorINS_12basic_stringIcNS_11char_traitsIcEENS_9allocatorIcEEEENS4_IS6_EEE31__annotate_contiguous_containerB6v15007EPKvSA_SA_SA_ CODE
 0001:000183f0 0000001cH .text$_ZNKSt3__16vectorINS_12basic_stringIcNS_11char_traitsIcEENS_9allocatorIcEEEENS4_IS6_EEE4dataB6v15007Ev CODE
 0001:00018410 00000035H .text$_ZNKSt3__16vectorINS_12basic_stringIcNS_11char_traitsIcEENS_9allocatorIcEEEENS4_IS6_EEE8capacityB6v15007Ev CODE
 0001:00018450 0000000bH .text$_ZNSt3__112__to_addressB6v15007INS_12basic_stringIcNS_11char_traitsIcEENS_9allocatorIcEEEEEEPT_S8_ CODE
 0001:00018460 0000001dH .text$_ZNKSt3__16vectorINS_12basic_stringIcNS_11char_traitsIcEENS_9allocatorIcEEEENS4_IS6_EEE9__end_capB6v15007Ev CODE
 0001:00018480 00000019H .text$_ZNKSt3__117__compressed_pairIPNS_12basic_stringIcNS_11char_traitsIcEENS_9allocatorIcEEEENS4_IS6_EEE5firstB6v15007Ev CODE
 0001:000184a0 0000000bH .text$_ZNKSt3__122__compressed_pair_elemIPNS_12basic_stringIcNS_11char_traitsIcEENS_9allocatorIcEEEELi0ELb0EE5__getB6v15007Ev CODE
 0001:000184b0 0000002dH .text$_ZNSt3__16vectorINS_12basic_stringIcNS_11char_traitsIcEENS_9allocatorIcEEEENS4_IS6_EEE21_ConstructTransactionC1ERS8_y CODE
 0001:000184e0 0000010cH .text$_ZNSt3__130__uninitialized_allocator_copyB6v15007INS_9allocatorINS_12basic_stringIcNS_11char_traitsIcEENS1_IcEEEEEEPKS6_S9_PS6_EET2_RT_T0_T1_SB_ CODE
 0001:000185f0 00000019H .text$_ZNSt3__16vectorINS_12basic_stringIcNS_11char_traitsIcEENS_9allocatorIcEEEENS4_IS6_EEE21_ConstructTransactionD1Ev CODE
 0001:00018610 00000046H .text$_ZNSt3__16vectorINS_12basic_stringIcNS_11char_traitsIcEENS_9allocatorIcEEEENS4_IS6_EEE21_ConstructTransactionC2ERS8_y CODE
 0001:00018660 0000002dH .text$_ZNSt3__116allocator_traitsINS_9allocatorINS_12basic_stringIcNS_11char_traitsIcEENS1_IcEEEEEEE9constructB6v15007IS6_JRKS6_EvEEvRS7_PT_DpOT0_ CODE
 0001:00018690 00000037H .text$_ZNSt3__129_AllocatorDestroyRangeReverseINS_9allocatorINS_12basic_stringIcNS_11char_traitsIcEENS1_IcEEEEEEPS6_EC1B6v15007ERS7_RS8_SB_ CODE
 0001:000186d0 0000005cH .text$_ZNKSt3__129_AllocatorDestroyRangeReverseINS_9allocatorINS_12basic_stringIcNS_11char_traitsIcEENS1_IcEEEEEEPS6_EclB6v15007Ev CODE
 0001:00018730 00000028H .text$_ZNSt3__19allocatorINS_12basic_stringIcNS_11char_traitsIcEENS0_IcEEEEE9constructB6v15007IS5_JRKS5_EEEvPT_DpOT0_ CODE
 0001:00018760 0000003aH .text$_ZNSt3__129_AllocatorDestroyRangeReverseINS_9allocatorINS_12basic_stringIcNS_11char_traitsIcEENS1_IcEEEEEEPS6_EC2B6v15007ERS7_RS8_SB_ CODE
 0001:000187a0 00000064H .text$_ZNSt3__119__allocator_destroyB6v15007INS_9allocatorINS_12basic_stringIcNS_11char_traitsIcEENS1_IcEEEEEENS_16reverse_iteratorIPS6_EESA_EEvRT_T0_T1_ CODE
 0001:00018810 00000023H .text$_ZNSt3__116reverse_iteratorIPNS_12basic_stringIcNS_11char_traitsIcEENS_9allocatorIcEEEEEC1B6v15007ES7_ CODE
 0001:00018840 0000003fH .text$_ZNSt3__1neB6v15007IPNS_12basic_stringIcNS_11char_traitsIcEENS_9allocatorIcEEEES7_EEbRKNS_16reverse_iteratorIT_EERKNS8_IT0_EE CODE
 0001:00018880 00000023H .text$_ZNSt3__116allocator_traitsINS_9allocatorINS_12basic_stringIcNS_11char_traitsIcEENS1_IcEEEEEEE7destroyB6v15007IS6_vEEvRS7_PT_ CODE
 0001:000188b0 00000019H .text$_ZNSt3__112__to_addressB6v15007INS_16reverse_iteratorIPNS_12basic_stringIcNS_11char_traitsIcEENS_9allocatorIcEEEEEEvEENS_5decayIDTclsr19__to_address_helperIT_EE6__callcl7declvalIRKSB_EEEEE4typeESD_ CODE
 0001:000188d0 00000017H .text$_ZNSt3__116reverse_iteratorIPNS_12basic_stringIcNS_11char_traitsIcEENS_9allocatorIcEEEEEppB6v15007Ev CODE
 0001:000188f0 0000000fH .text$_ZNKSt3__116reverse_iteratorIPNS_12basic_stringIcNS_11char_traitsIcEENS_9allocatorIcEEEEE4baseB6v15007Ev CODE
 0001:00018900 0000001eH .text$_ZNSt3__19allocatorINS_12basic_stringIcNS_11char_traitsIcEENS0_IcEEEEE7destroyB6v15007EPS5_ CODE
 0001:00018920 00000036H .text$_ZNSt3__119__to_address_helperINS_16reverse_iteratorIPNS_12basic_stringIcNS_11char_traitsIcEENS_9allocatorIcEEEEEEvE6__callB6v15007ERKS9_ CODE
 0001:00018960 00000019H .text$_ZNKSt3__116reverse_iteratorIPNS_12basic_stringIcNS_11char_traitsIcEENS_9allocatorIcEEEEEptB6v15007Ev CODE
 0001:00018980 00000027H .text$_ZNKSt3__116reverse_iteratorIPNS_12basic_stringIcNS_11char_traitsIcEENS_9allocatorIcEEEEEdeB6v15007Ev CODE
 0001:000189b0 00000026H .text$_ZNSt3__116reverse_iteratorIPNS_12basic_stringIcNS_11char_traitsIcEENS_9allocatorIcEEEEEC2B6v15007ES7_ CODE
 0001:000189e0 00000016H .text$_ZNSt3__16vectorINS_12basic_stringIcNS_11char_traitsIcEENS_9allocatorIcEEEENS4_IS6_EEE21_ConstructTransactionD2Ev CODE
 0001:00018a00 0000003fH .text$_ZNSt3__113__transactionINS_6vectorINS_12basic_stringIcNS_11char_traitsIcEENS_9allocatorIcEEEENS5_IS7_EEE16__destroy_vectorEED2B6v15007Ev CODE
 0001:00018a40 0000008cH .text$_ZNSt3__16vectorINS_12basic_stringIcNS_11char_traitsIcEENS_9allocatorIcEEEENS4_IS6_EEE16__destroy_vectorclB6v15007Ev CODE
 0001:00018ad0 000000c3H .text$_ZNKSt3__16vectorINS_12basic_stringIcNS_11char_traitsIcEENS_9allocatorIcEEEENS4_IS6_EEE17__annotate_deleteB6v15007Ev CODE
 0001:00018ba0 00000007H .text$_ZNSt3__118__debug_db_erase_cB6v15007INS_6vectorINS_12basic_stringIcNS_11char_traitsIcEENS_9allocatorIcEEEENS5_IS7_EEEEEEvPT_ CODE
 0001:00018bb0 0000001cH .text$_ZNSt3__16vectorINS_12basic_stringIcNS_11char_traitsIcEENS_9allocatorIcEEEENS4_IS6_EEE7__clearB6v15007Ev CODE
 0001:00018bd0 0000002dH .text$_ZNSt3__116allocator_traitsINS_9allocatorINS_12basic_stringIcNS_11char_traitsIcEENS1_IcEEEEEEE10deallocateB6v15007ERS7_PS6_y CODE
 0001:00018c00 00000086H .text$_ZNSt3__16vectorINS_12basic_stringIcNS_11char_traitsIcEENS_9allocatorIcEEEENS4_IS6_EEE22__base_destruct_at_endB6v15007EPS6_ CODE
 0001:00018c90 00000043H .text$_ZNSt3__19allocatorINS_12basic_stringIcNS_11char_traitsIcEENS0_IcEEEEE10deallocateB6v15007EPS5_y CODE
 0001:00018ce0 0000003aH .text$_ZNSt3__16vectorINS_12basic_stringIcNS_11char_traitsIcEENS_9allocatorIcEEEENS4_IS6_EEED2B6v15007Ev CODE
 0001:00018d20 0000003aH .text$_ZNSt3__16vectorINS_4pairIiiEENS_9allocatorIS2_EEED2B6v15007Ev CODE
 0001:00018d60 00000023H .text$_ZNSt3__16vectorINS_4pairIiiEENS_9allocatorIS2_EEE16__destroy_vectorC1ERS5_ CODE
 0001:00018d90 0000008cH .text$_ZNSt3__16vectorINS_4pairIiiEENS_9allocatorIS2_EEE16__destroy_vectorclB6v15007Ev CODE
 0001:00018e20 0000001eH .text$_ZNSt3__16vectorINS_4pairIiiEENS_9allocatorIS2_EEE16__destroy_vectorC2ERS5_ CODE
 0001:00018e40 000000c3H .text$_ZNKSt3__16vectorINS_4pairIiiEENS_9allocatorIS2_EEE17__annotate_deleteB6v15007Ev CODE
 0001:00018f10 00000007H .text$_ZNSt3__118__debug_db_erase_cB6v15007INS_6vectorINS_4pairIiiEENS_9allocatorIS3_EEEEEEvPT_ CODE
 0001:00018f20 0000001cH .text$_ZNSt3__16vectorINS_4pairIiiEENS_9allocatorIS2_EEE7__clearB6v15007Ev CODE
 0001:00018f40 0000002dH .text$_ZNSt3__116allocator_traitsINS_9allocatorINS_4pairIiiEEEEE10deallocateB6v15007ERS4_PS3_y CODE
 0001:00018f70 0000001dH .text$_ZNSt3__16vectorINS_4pairIiiEENS_9allocatorIS2_EEE7__allocB6v15007Ev CODE
 0001:00018f90 0000002fH .text$_ZNKSt3__16vectorINS_4pairIiiEENS_9allocatorIS2_EEE8capacityB6v15007Ev CODE
 0001:00018fc0 00000021H .text$_ZNKSt3__16vectorINS_4pairIiiEENS_9allocatorIS2_EEE31__annotate_contiguous_containerB6v15007EPKvS7_S7_S7_ CODE
 0001:00018ff0 0000001cH .text$_ZNKSt3__16vectorINS_4pairIiiEENS_9allocatorIS2_EEE4dataB6v15007Ev CODE
 0001:00019010 00000019H .text$_ZNKSt3__16vectorINS_4pairIiiEENS_9allocatorIS2_EEE4sizeB6v15007Ev CODE
 0001:00019030 0000000bH .text$_ZNSt3__112__to_addressB6v15007INS_4pairIiiEEEEPT_S4_ CODE
 0001:00019040 00000086H .text$_ZNSt3__16vectorINS_4pairIiiEENS_9allocatorIS2_EEE22__base_destruct_at_endB6v15007EPS2_ CODE
 0001:000190d0 00000023H .text$_ZNSt3__116allocator_traitsINS_9allocatorINS_4pairIiiEEEEE7destroyB6v15007IS3_vEEvRS4_PT_ CODE
 0001:00019100 00000012H .text$_ZNSt3__19allocatorINS_4pairIiiEEE7destroyB6v15007EPS2_ CODE
 0001:00019120 0000003fH .text$_ZNSt3__19allocatorINS_4pairIiiEEE10deallocateB6v15007EPS2_y CODE
 0001:00019160 00000019H .text$_ZNSt3__117__compressed_pairIPNS_4pairIiiEENS_9allocatorIS2_EEE6secondB6v15007Ev CODE
 0001:00019180 0000000bH .text$_ZNSt3__122__compressed_pair_elemINS_9allocatorINS_4pairIiiEEEELi1ELb1EE5__getB6v15007Ev CODE
 0001:00019190 0000001dH .text$_ZNKSt3__16vectorINS_4pairIiiEENS_9allocatorIS2_EEE9__end_capB6v15007Ev CODE
 0001:000191b0 00000019H .text$_ZNKSt3__117__compressed_pairIPNS_4pairIiiEENS_9allocatorIS2_EEE5firstB6v15007Ev CODE
 0001:000191d0 0000000bH .text$_ZNKSt3__122__compressed_pair_elemIPNS_4pairIiiEELi0ELb0EE5__getB6v15007Ev CODE
 0001:000191e0 00000137H .text$_ZNSt3__16vectorINS_4pairIiiEENS_9allocatorIS2_EEEC2B6v15007ESt16initializer_listIS2_E CODE
 0001:00019320 0000002dH .text$_ZNSt3__117__compressed_pairIPNS_4pairIiiEENS_9allocatorIS2_EEEC1B6v15007IDnNS_18__default_init_tagEEEOT_OT0_ CODE
 0001:00019350 00000034H .text$_ZNSt3__118__make_transactionB6v15007INS_6vectorINS_4pairIiiEENS_9allocatorIS3_EEE16__destroy_vectorEEENS_13__transactionIT_EES9_ CODE
 0001:00019390 00000007H .text$_ZNSt3__119__debug_db_insert_cB6v15007INS_6vectorINS_4pairIiiEENS_9allocatorIS3_EEEEEEvPT_ CODE
 0001:000193a0 0000000fH .text$_ZNKSt16initializer_listINSt3__14pairIiiEEE4sizeB6v15007Ev CODE
 0001:000193b0 000000a9H .text$_ZNSt3__16vectorINS_4pairIiiEENS_9allocatorIS2_EEE11__vallocateB6v15007Ey CODE
 0001:00019460 00000099H .text$_ZNSt3__16vectorINS_4pairIiiEENS_9allocatorIS2_EEE18__construct_at_endIPKS2_EENS_9enable_ifIXsr27__is_cpp17_forward_iteratorIT_EE5valueEvE4typeESA_SA_y CODE
 0001:00019500 0000000eH .text$_ZNKSt16initializer_listINSt3__14pairIiiEEE5beginB6v15007Ev CODE
 0001:00019510 00000019H .text$_ZNKSt16initializer_listINSt3__14pairIiiEEE3endB6v15007Ev CODE
 0001:00019530 0000000fH .text$_ZNSt3__113__transactionINS_6vectorINS_4pairIiiEENS_9allocatorIS3_EEE16__destroy_vectorEE10__completeB6v15007Ev CODE
 0001:00019540 00000019H .text$_ZNSt3__113__transactionINS_6vectorINS_4pairIiiEENS_9allocatorIS3_EEE16__destroy_vectorEED1B6v15007Ev CODE
 0001:00019560 0000003bH .text$_ZNSt3__117__compressed_pairIPNS_4pairIiiEENS_9allocatorIS2_EEEC2B6v15007IDnNS_18__default_init_tagEEEOT_OT0_ CODE
 0001:000195a0 0000001eH .text$_ZNSt3__122__compressed_pair_elemIPNS_4pairIiiEELi0ELb0EEC2B6v15007IDnvEEOT_ CODE
 0001:000195c0 0000001dH .text$_ZNSt3__122__compressed_pair_elemINS_9allocatorINS_4pairIiiEEEELi1ELb1EEC2B6v15007ENS_18__default_init_tagE CODE
 0001:000195e0 00000019H .text$_ZNSt3__19allocatorINS_4pairIiiEEEC2B6v15007Ev CODE
 0001:00019600 00000007H .text$_ZNSt3__116__non_trivial_ifILb1ENS_9allocatorINS_4pairIiiEEEEEC2B6v15007Ev CODE
 0001:00019610 00000023H .text$_ZNSt3__113__transactionINS_6vectorINS_4pairIiiEENS_9allocatorIS3_EEE16__destroy_vectorEEC1B6v15007ES7_ CODE
 0001:00019640 00000022H .text$_ZNSt3__113__transactionINS_6vectorINS_4pairIiiEENS_9allocatorIS3_EEE16__destroy_vectorEEC2B6v15007ES7_ CODE
 0001:00019670 00000059H .text$_ZNKSt3__16vectorINS_4pairIiiEENS_9allocatorIS2_EEE8max_sizeEv CODE
 0001:000196d0 00000016H .text$_ZNKSt3__16vectorINS_4pairIiiEENS_9allocatorIS2_EEE20__throw_length_errorB6v15007Ev CODE
 0001:000196f0 0000004dH .text$_ZNSt3__119__allocate_at_leastB6v15007INS_9allocatorINS_4pairIiiEEEEEENS_19__allocation_resultINS_16allocator_traitsIT_E7pointerEEERS7_y CODE
 0001:00019740 0000001dH .text$_ZNSt3__16vectorINS_4pairIiiEENS_9allocatorIS2_EEE9__end_capB6v15007Ev CODE
 0001:00019760 000000b6H .text$_ZNKSt3__16vectorINS_4pairIiiEENS_9allocatorIS2_EEE14__annotate_newB6v15007Ey CODE
 0001:00019820 00000019H .text$_ZNSt3__116allocator_traitsINS_9allocatorINS_4pairIiiEEEEE8max_sizeB6v15007IS4_vEEyRKS4_ CODE
 0001:00019840 0000001dH .text$_ZNKSt3__16vectorINS_4pairIiiEENS_9allocatorIS2_EEE7__allocB6v15007Ev CODE
 0001:00019860 00000011H .text$_ZNKSt3__19allocatorINS_4pairIiiEEE8max_sizeB6v15007Ev CODE
 0001:00019880 00000019H .text$_ZNKSt3__117__compressed_pairIPNS_4pairIiiEENS_9allocatorIS2_EEE6secondB6v15007Ev CODE
 0001:000198a0 0000000bH .text$_ZNKSt3__122__compressed_pair_elemINS_9allocatorINS_4pairIiiEEEELi1ELb1EE5__getB6v15007Ev CODE
 0001:000198b0 00000051H .text$_ZNSt3__19allocatorINS_4pairIiiEEE8allocateB6v15007Ey CODE
 0001:00019910 00000019H .text$_ZNSt3__117__compressed_pairIPNS_4pairIiiEENS_9allocatorIS2_EEE5firstB6v15007Ev CODE
 0001:00019930 0000000bH .text$_ZNSt3__122__compressed_pair_elemIPNS_4pairIiiEELi0ELb0EE5__getB6v15007Ev CODE
 0001:00019940 0000002dH .text$_ZNSt3__16vectorINS_4pairIiiEENS_9allocatorIS2_EEE21_ConstructTransactionC1ERS5_y CODE
 0001:00019970 0000010cH .text$_ZNSt3__130__uninitialized_allocator_copyB6v15007INS_9allocatorINS_4pairIiiEEEEPKS3_S6_PS3_EET2_RT_T0_T1_S8_ CODE
 0001:00019a80 00000019H .text$_ZNSt3__16vectorINS_4pairIiiEENS_9allocatorIS2_EEE21_ConstructTransactionD1Ev CODE
 0001:00019aa0 00000049H .text$_ZNSt3__16vectorINS_4pairIiiEENS_9allocatorIS2_EEE21_ConstructTransactionC2ERS5_y CODE
 0001:00019af0 0000002dH .text$_ZNSt3__116allocator_traitsINS_9allocatorINS_4pairIiiEEEEE9constructB6v15007IS3_JRKS3_EvEEvRS4_PT_DpOT0_ CODE
 0001:00019b20 00000037H .text$_ZNSt3__129_AllocatorDestroyRangeReverseINS_9allocatorINS_4pairIiiEEEEPS3_EC1B6v15007ERS4_RS5_S8_ CODE
 0001:00019b60 0000005cH .text$_ZNKSt3__129_AllocatorDestroyRangeReverseINS_9allocatorINS_4pairIiiEEEEPS3_EclB6v15007Ev CODE
 0001:00019bc0 00000026H .text$_ZNSt3__19allocatorINS_4pairIiiEEE9constructB6v15007IS2_JRKS2_EEEvPT_DpOT0_ CODE
 0001:00019bf0 0000003aH .text$_ZNSt3__129_AllocatorDestroyRangeReverseINS_9allocatorINS_4pairIiiEEEEPS3_EC2B6v15007ERS4_RS5_S8_ CODE
 0001:00019c30 00000064H .text$_ZNSt3__119__allocator_destroyB6v15007INS_9allocatorINS_4pairIiiEEEENS_16reverse_iteratorIPS3_EES7_EEvRT_T0_T1_ CODE
 0001:00019ca0 00000023H .text$_ZNSt3__116reverse_iteratorIPNS_4pairIiiEEEC1B6v15007ES3_ CODE
 0001:00019cd0 0000003fH .text$_ZNSt3__1neB6v15007IPNS_4pairIiiEES3_EEbRKNS_16reverse_iteratorIT_EERKNS4_IT0_EE CODE
 0001:00019d10 00000019H .text$_ZNSt3__112__to_addressB6v15007INS_16reverse_iteratorIPNS_4pairIiiEEEEvEENS_5decayIDTclsr19__to_address_helperIT_EE6__callcl7declvalIRKS7_EEEEE4typeES9_ CODE
 0001:00019d30 00000017H .text$_ZNSt3__116reverse_iteratorIPNS_4pairIiiEEEppB6v15007Ev CODE
 0001:00019d50 0000000fH .text$_ZNKSt3__116reverse_iteratorIPNS_4pairIiiEEE4baseB6v15007Ev CODE
 0001:00019d60 00000036H .text$_ZNSt3__119__to_address_helperINS_16reverse_iteratorIPNS_4pairIiiEEEEvE6__callB6v15007ERKS5_ CODE
 0001:00019da0 00000019H .text$_ZNKSt3__116reverse_iteratorIPNS_4pairIiiEEEptB6v15007Ev CODE
 0001:00019dc0 00000027H .text$_ZNKSt3__116reverse_iteratorIPNS_4pairIiiEEEdeB6v15007Ev CODE
 0001:00019df0 00000026H .text$_ZNSt3__116reverse_iteratorIPNS_4pairIiiEEEC2B6v15007ES3_ CODE
 0001:00019e20 00000016H .text$_ZNSt3__16vectorINS_4pairIiiEENS_9allocatorIS2_EEE21_ConstructTransactionD2Ev CODE
 0001:00019e40 0000003fH .text$_ZNSt3__113__transactionINS_6vectorINS_4pairIiiEENS_9allocatorIS3_EEE16__destroy_vectorEED2B6v15007Ev CODE
 0001:00019e80 00000011H .text$_ZNSt3__116allocator_traitsINS_9allocatorIcEEE37select_on_container_copy_constructionB6v15007IS2_vvEES2_RKS2_ CODE
 0001:00019ea0 0000001cH .text$_ZNKSt3__112basic_stringIcNS_11char_traitsIcEENS_9allocatorIcEEE13get_allocatorB6v15007Ev CODE
 0001:00019ec0 00000035H .text$_ZNSt3__112basic_stringIcNS_11char_traitsIcEENS_9allocatorIcEEEC1B6v15007ENS_24__uninitialized_size_tagEyRKS4_ CODE
 0001:00019f00 0000000bH .text$_ZNSt3__112__to_addressB6v15007IcEEPT_S2_ CODE
 0001:00019f10 00000072H .text$_ZNSt3__111char_traitsIcE4copyEPcPKcy CODE
 0001:00019f90 0000003fH .text$_ZNSt3__111char_traitsIcE6assignEPcyc CODE
 0001:00019fd0 0000010fH .text$_ZNSt3__112basic_stringIcNS_11char_traitsIcEENS_9allocatorIcEEEC2B6v15007ENS_24__uninitialized_size_tagEyRKS4_ CODE
 0001:0001a0e0 0000002dH .text$_ZNSt3__117__compressed_pairINS_12basic_stringIcNS_11char_traitsIcEENS_9allocatorIcEEE5__repES5_EC1B6v15007INS_18__default_init_tagERKS5_EEOT_OT0_ CODE
 0001:0001a110 000000a0H .text$_ZNKSt3__112basic_stringIcNS_11char_traitsIcEENS_9allocatorIcEEE8max_sizeB6v15007Ev CODE
 0001:0001a1b0 00000016H .text$_ZNKSt3__112basic_stringIcNS_11char_traitsIcEENS_9allocatorIcEEE20__throw_length_errorB6v15007Ev CODE
 0001:0001a1d0 00000014H .text$_ZNSt3__112basic_stringIcNS_11char_traitsIcEENS_9allocatorIcEEE13__fits_in_ssoB6v15007Ey CODE
 0001:0001a1f0 00000068H .text$_ZNSt3__112basic_stringIcNS_11char_traitsIcEENS_9allocatorIcEEE11__recommendB6v15007Ey CODE
 0001:0001a260 00000023H .text$_ZNSt3__116allocator_traitsINS_9allocatorIcEEE8allocateB6v15007ERS2_y CODE
 0001:0001a290 00000012H .text$_ZNSt3__112basic_stringIcNS_11char_traitsIcEENS_9allocatorIcEEE16__begin_lifetimeB6v15007EPcy CODE
 0001:0001a2b0 0000006bH .text$_ZNSt3__112basic_stringIcNS_11char_traitsIcEENS_9allocatorIcEEE14__set_long_capB6v15007Ey CODE
 0001:0001a320 00000030H .text$_ZNSt3__112basic_stringIcNS_11char_traitsIcEENS_9allocatorIcEEE18__set_long_pointerB6v15007EPc CODE
 0001:0001a350 00000030H .text$_ZNSt3__112basic_stringIcNS_11char_traitsIcEENS_9allocatorIcEEE15__set_long_sizeB6v15007Ey CODE
 0001:0001a380 0000003bH .text$_ZNSt3__117__compressed_pairINS_12basic_stringIcNS_11char_traitsIcEENS_9allocatorIcEEE5__repES5_EC2B6v15007INS_18__default_init_tagERKS5_EEOT_OT0_ CODE
 0001:0001a3c0 00000012H .text$_ZNSt3__122__compressed_pair_elemINS_9allocatorIcEELi1ELb1EEC2B6v15007IRKS2_vEEOT_ CODE
 0001:0001a3e0 00000019H .text$_ZNSt3__116allocator_traitsINS_9allocatorIcEEE8max_sizeB6v15007IS2_vEEyRKS2_ CODE
 0001:0001a400 0000000fH .text$_ZNSt3__114numeric_limitsIyE3maxB6v15007Ev CODE
 0001:0001a410 0000000eH .text$_ZNKSt3__19allocatorIcE8max_sizeB6v15007Ev CODE
 0001:0001a420 00000008H .text$_ZNSt3__123__libcpp_numeric_limitsIyLb1EE3maxB6v15007Ev CODE
 0001:0001a430 00000013H .text$_ZNSt3__112basic_stringIcNS_11char_traitsIcEENS_9allocatorIcEEE10__align_itB6v15007ILy16EEEyy CODE
 0001:0001a450 00000051H .text$_ZNSt3__19allocatorIcE8allocateB6v15007Ey CODE
 0001:0001a4b0 0000003cH .text$_ZNSt3__16copy_nB6v15007IPKcyPcEENS_9enable_ifIXsr33__is_cpp17_random_access_iteratorIT_EE5valueET1_E4typeES5_T0_S6_ CODE
 0001:0001a4f0 00000036H .text$_ZNSt3__14copyB6v15007IPKcPcEET0_T_S5_S4_ CODE
 0001:0001a530 000000ccH .text$_ZNSt3__16__copyB6v15007IPKcS2_PcLi0EEENS_4pairIT_T1_EES5_T0_S6_ CODE
 0001:0001a600 0000005cH .text$_ZNSt3__114__unwrap_rangeB6v15007IPKcS2_EENS_4pairIT0_S4_EET_S6_ CODE
 0001:0001a660 00000097H .text$_ZNSt3__111__copy_implB6v15007IKccvEENS_4pairIPT_PT0_EES4_S4_S6_ CODE
 0001:0001a700 00000019H .text$_ZNSt3__113__unwrap_iterB6v15007IPcNS_18__unwrap_iter_implIS1_Lb1EEELi0EEEDTclsrT0_8__unwrapclsr3stdE7declvalIT_EEEES5_ CODE
 0001:0001a720 00000034H .text$_ZNSt3__19make_pairB6v15007IPKcPcEENS_4pairINS_18__unwrap_ref_decayIT_E4typeENS5_IT0_E4typeEEEOS6_OS9_ CODE
 0001:0001a760 00000023H .text$_ZNSt3__114__rewrap_rangeB6v15007IPKcS2_EET_S3_T0_ CODE
 0001:0001a790 0000003aH .text$_ZNSt3__113__rewrap_iterB6v15007IPcS1_NS_18__unwrap_iter_implIS1_Lb1EEEEET_S4_T0_ CODE
 0001:0001a7d0 00000034H .text$_ZNSt3__19make_pairB6v15007IPKcS2_EENS_4pairINS_18__unwrap_ref_decayIT_E4typeENS4_IT0_E4typeEEEOS5_OS8_ CODE
 0001:0001a810 00000019H .text$_ZNSt3__113__unwrap_iterB6v15007IPKcNS_18__unwrap_iter_implIS2_Lb1EEELi0EEEDTclsrT0_8__unwrapclsr3stdE7declvalIT_EEEES6_ CODE
 0001:0001a830 0000002dH .text$_ZNSt3__14pairIPKcS2_EC1B6v15007IS2_S2_LPv0EEEOT_OT0_ CODE
 0001:0001a860 00000032H .text$_ZNSt3__14pairIPKcS2_EC2B6v15007IS2_S2_LPv0EEEOT_OT0_ CODE
 0001:0001a8a0 00000019H .text$_ZNSt3__118__unwrap_iter_implIPKcLb1EE8__unwrapB6v15007ES2_ CODE
 0001:0001a8c0 00000019H .text$_ZNSt3__118__unwrap_iter_implIPcLb1EE8__unwrapB6v15007ES1_ CODE
 0001:0001a8e0 0000002dH .text$_ZNSt3__14pairIPKcPcEC1B6v15007IS2_S3_LPv0EEEOT_OT0_ CODE
 0001:0001a910 00000032H .text$_ZNSt3__14pairIPKcPcEC2B6v15007IS2_S3_LPv0EEEOT_OT0_ CODE
 0001:0001a950 0000003aH .text$_ZNSt3__113__rewrap_iterB6v15007IPKcS2_NS_18__unwrap_iter_implIS2_Lb1EEEEET_S5_T0_ CODE
 0001:0001a990 00000044H .text$_ZNSt3__118__unwrap_iter_implIPKcLb1EE8__rewrapB6v15007ES2_S2_ CODE
 0001:0001a9e0 00000044H .text$_ZNSt3__118__unwrap_iter_implIPcLb1EE8__rewrapB6v15007ES1_S1_ CODE
 0001:0001aa30 0000003fH .text$_ZNSt3__16fill_nB6v15007IPcycEET_S2_T0_RKT1_ CODE
 0001:0001aa70 00000056H .text$_ZNSt3__18__fill_nB6v15007IPcycEET_S2_T0_RKT1_ CODE
 0001:0001aad0 0000000bH .text$_ZNSt3__121__convert_to_integralB6v15007Ey CODE
 0001:0001aae0 000000eeH .text$_ZNSt3__111basic_regexIcNS_12regex_traitsIcEEEC2B6v15007EPKcNS_15regex_constants18syntax_option_typeE CODE
 0001:0001abd0 00000019H .text$_ZNSt3__112regex_traitsIcEC1Ev CODE
 0001:0001abf0 00000019H .text$_ZNSt3__110shared_ptrINS_13__empty_stateIcEEEC1B6v15007Ev CODE
 0001:0001ac10 00000072H .text$_ZNSt3__111basic_regexIcNS_12regex_traitsIcEEE6__initIPKcEEvT_S7_ CODE
 0001:0001ac90 00000019H .text$_ZNSt3__112regex_traitsIcE6lengthB6v15007EPKc CODE
 0001:0001acb0 00000057H .text$_ZNSt3__112regex_traitsIcEC2Ev CODE
 0001:0001ad10 00000037H .text$_ZNSt3__112regex_traitsIcE6__initEv CODE
 0001:0001ad50 00000020H .text$_ZNSt3__19use_facetB6v15007INS_5ctypeIcEEEERKT_RKNS_6localeE CODE
 0001:0001ad70 00000020H .text$_ZNSt3__19use_facetB6v15007INS_7collateIcEEEERKT_RKNS_6localeE CODE
 0001:0001ad90 0000001aH .text$_ZNSt3__110shared_ptrINS_13__empty_stateIcEEEC2B6v15007Ev CODE
 0001:0001adb0 00000010H .text$_ZNSt3__115regex_constants13__get_grammarENS0_18syntax_option_typeE CODE
 0001:0001adc0 00000030H .text$_ZNSt3__115regex_constantsoRB6v15007ERNS0_18syntax_option_typeES1_ CODE
 0001:0001adf0 000002a7H .text$_ZNSt3__111basic_regexIcNS_12regex_traitsIcEEE7__parseIPKcEET_S7_S7_ CODE
 0001:0001b0a0 0000006bH .text$_ZNSt3__119__throw_regex_errorB6v15007ILNS_15regex_constants10error_typeE17EEEvv CODE
 0001:0001b110 00000011H .text$_ZNSt3__115regex_constantsorB6v15007ENS0_18syntax_option_typeES1_ CODE
 0001:0001b130 00000019H .text$_ZNSt3__111__end_stateIcEC1B6v15007Ev CODE
 0001:0001b150 00000023H .text$_ZNSt3__110unique_ptrINS_6__nodeIcEENS_14default_deleteIS2_EEEC1B6v15007ILb1EvEEPS2_ CODE
 0001:0001b180 00000046H .text$_ZNSt3__110shared_ptrINS_13__empty_stateIcEEE5resetB6v15007IS2_vEEvPT_ CODE
 0001:0001b1d0 0000001bH .text$_ZNKSt3__110unique_ptrINS_6__nodeIcEENS_14default_deleteIS2_EEE3getB6v15007Ev CODE
 0001:0001b1f0 00000023H .text$_ZNSt3__113__empty_stateIcEC1B6v15007EPNS_6__nodeIcEE CODE
 0001:0001b220 0000003bH .text$_ZNSt3__110unique_ptrINS_6__nodeIcEENS_14default_deleteIS2_EEE7releaseB6v15007Ev CODE
 0001:0001b260 0000000eH .text$_ZNKSt3__110shared_ptrINS_13__empty_stateIcEEE3getB6v15007Ev CODE
 0001:0001b270 00000019H .text$_ZNSt3__110unique_ptrINS_6__nodeIcEENS_14default_deleteIS2_EEED1B6v15007Ev CODE
 0001:0001b290 00000109H .text$_ZNSt3__111basic_regexIcNS_12regex_traitsIcEEE16__parse_ecma_expIPKcEET_S7_S7_ CODE
 0001:0001b3a0 0000010aH .text$_ZNSt3__111basic_regexIcNS_12regex_traitsIcEEE21__parse_basic_reg_expIPKcEET_S7_S7_ CODE
 0001:0001b4b0 000000ffH .text$_ZNSt3__111basic_regexIcNS_12regex_traitsIcEEE24__parse_extended_reg_expIPKcEET_S7_S7_ CODE
 0001:0001b5b0 00000161H .text$_ZNSt3__111basic_regexIcNS_12regex_traitsIcEEE12__parse_grepIPKcEET_S7_S7_ CODE
 0001:0001b720 00000161H .text$_ZNSt3__111basic_regexIcNS_12regex_traitsIcEEE13__parse_egrepIPKcEET_S7_S7_ CODE
 0001:0001b890 0000006bH .text$_ZNSt3__119__throw_regex_errorB6v15007ILNS_15regex_constants10error_typeE14EEEvv CODE
 0001:0001b900 00000030H .text$_ZNSt3__111__end_stateIcEC2B6v15007Ev CODE
 0001:0001b930 00000019H .text$_ZNSt3__16__nodeIcEC2B6v15007Ev CODE
 0001:0001b950 00000019H .text$_ZNSt3__111__end_stateIcED1Ev CODE
 0001:0001b970 00000028H .text$_ZNSt3__111__end_stateIcED0Ev CODE
 0001:0001b9a0 0000001cH .text$_ZNKSt3__111__end_stateIcE6__execERNS_7__stateIcEE CODE
 0001:0001b9c0 00000019H .text$_ZNKSt3__16__nodeIcE12__exec_splitB6v15007EbRNS_7__stateIcEE CODE
 0001:0001b9e0 00000019H .text$_ZNSt3__16__nodeIcED1B6v15007Ev CODE
 0001:0001ba00 00000028H .text$_ZNSt3__16__nodeIcED0B6v15007Ev CODE
 0001:0001ba30 00000012H .text$_ZNKSt3__16__nodeIcE6__execB6v15007ERNS_7__stateIcEE CODE
 0001:0001ba50 00000007H .text$_ZNSt3__16__nodeIcED2B6v15007Ev CODE
 0001:0001ba60 00000019H .text$_ZNSt3__111__end_stateIcED2Ev CODE
 0001:0001ba80 00000035H .text$_ZNSt3__110unique_ptrINS_6__nodeIcEENS_14default_deleteIS2_EEEC2B6v15007ILb1EvEEPS2_ CODE
 0001:0001bac0 0000002dH .text$_ZNSt3__117__compressed_pairIPNS_6__nodeIcEENS_14default_deleteIS2_EEEC1B6v15007IRS3_NS_16__value_init_tagEEEOT_OT0_ CODE
 0001:0001baf0 0000003bH .text$_ZNSt3__117__compressed_pairIPNS_6__nodeIcEENS_14default_deleteIS2_EEEC2B6v15007IRS3_NS_16__value_init_tagEEEOT_OT0_ CODE
 0001:0001bb30 00000021H .text$_ZNSt3__122__compressed_pair_elemIPNS_6__nodeIcEELi0ELb0EEC2B6v15007IRS3_vEEOT_ CODE
 0001:0001bb60 00000011H .text$_ZNSt3__122__compressed_pair_elemINS_14default_deleteINS_6__nodeIcEEEELi1ELb1EEC2B6v15007ENS_16__value_init_tagE CODE
 0001:0001bb80 00000023H .text$_ZNSt3__110shared_ptrINS_13__empty_stateIcEEEC1IS2_vEEPT_ CODE
 0001:0001bbb0 0000003fH .text$_ZNSt3__110shared_ptrINS_13__empty_stateIcEEE4swapB6v15007ERS3_ CODE
 0001:0001bbf0 000000f9H .text$_ZNSt3__110shared_ptrINS_13__empty_stateIcEEEC2IS2_vEEPT_ CODE
 0001:0001bcf0 00000023H .text$_ZNSt3__110unique_ptrINS_13__empty_stateIcEENS_14default_deleteIS2_EEEC1B6v15007ILb1EvEEPS2_ CODE
 0001:0001bd20 00000019H .text$_ZNSt3__19allocatorINS_13__empty_stateIcEEEC1B6v15007Ev CODE
 0001:0001bd40 00000037H .text$_ZNSt3__120__shared_ptr_pointerIPNS_13__empty_stateIcEENS_10shared_ptrIS2_E27__shared_ptr_default_deleteIS2_S2_EENS_9allocatorIS2_EEEC1B6v15007ES3_S7_S9_ CODE
 0001:0001bd80 0000003bH .text$_ZNSt3__110unique_ptrINS_13__empty_stateIcEENS_14default_deleteIS2_EEE7releaseB6v15007Ev CODE
 0001:0001bdc0 00000007H .text$_ZNSt3__110shared_ptrINS_13__empty_stateIcEEE18__enable_weak_thisB6v15007Ez CODE
 0001:0001bdd0 00000019H .text$_ZNSt3__110unique_ptrINS_13__empty_stateIcEENS_14default_deleteIS2_EEED1B6v15007Ev CODE
 0001:0001bdf0 00000035H .text$_ZNSt3__110unique_ptrINS_13__empty_stateIcEENS_14default_deleteIS2_EEEC2B6v15007ILb1EvEEPS2_ CODE
 0001:0001be30 0000002dH .text$_ZNSt3__117__compressed_pairIPNS_13__empty_stateIcEENS_14default_deleteIS2_EEEC1B6v15007IRS3_NS_16__value_init_tagEEEOT_OT0_ CODE
 0001:0001be60 0000003bH .text$_ZNSt3__117__compressed_pairIPNS_13__empty_stateIcEENS_14default_deleteIS2_EEEC2B6v15007IRS3_NS_16__value_init_tagEEEOT_OT0_ CODE
 0001:0001bea0 00000021H .text$_ZNSt3__122__compressed_pair_elemIPNS_13__empty_stateIcEELi0ELb0EEC2B6v15007IRS3_vEEOT_ CODE
 0001:0001bed0 00000011H .text$_ZNSt3__122__compressed_pair_elemINS_14default_deleteINS_13__empty_stateIcEEEELi1ELb1EEC2B6v15007ENS_16__value_init_tagE CODE
 0001:0001bef0 00000019H .text$_ZNSt3__19allocatorINS_13__empty_stateIcEEEC2B6v15007Ev CODE
 0001:0001bf10 00000007H .text$_ZNSt3__116__non_trivial_ifILb1ENS_9allocatorINS_13__empty_stateIcEEEEEC2B6v15007Ev CODE
 0001:0001bf20 000000a3H .text$_ZNSt3__120__shared_ptr_pointerIPNS_13__empty_stateIcEENS_10shared_ptrIS2_E27__shared_ptr_default_deleteIS2_S2_EENS_9allocatorIS2_EEEC2B6v15007ES3_S7_S9_ CODE
 0001:0001bfd0 0000003fH .text$_ZNSt3__119__shared_weak_countC2B6v15007El CODE
 0001:0001c010 0000002dH .text$_ZNSt3__117__compressed_pairIPNS_13__empty_stateIcEENS_10shared_ptrIS2_E27__shared_ptr_default_deleteIS2_S2_EEEC1B6v15007IRS3_S7_EEOT_OT0_ CODE
 0001:0001c040 0000002dH .text$_ZNSt3__117__compressed_pairINS0_IPNS_13__empty_stateIcEENS_10shared_ptrIS2_E27__shared_ptr_default_deleteIS2_S2_EEEENS_9allocatorIS2_EEEC1B6v15007IS8_SA_EEOT_OT0_ CODE
 0001:0001c070 00000019H .text$_ZNSt3__120__shared_ptr_pointerIPNS_13__empty_stateIcEENS_10shared_ptrIS2_E27__shared_ptr_default_deleteIS2_S2_EENS_9allocatorIS2_EEED1Ev CODE
 0001:0001c090 00000028H .text$_ZNSt3__120__shared_ptr_pointerIPNS_13__empty_stateIcEENS_10shared_ptrIS2_E27__shared_ptr_default_deleteIS2_S2_EENS_9allocatorIS2_EEED0Ev CODE
 0001:0001c0c0 00000068H .text$_ZNSt3__120__shared_ptr_pointerIPNS_13__empty_stateIcEENS_10shared_ptrIS2_E27__shared_ptr_default_deleteIS2_S2_EENS_9allocatorIS2_EEE16__on_zero_sharedEv CODE
 0001:0001c130 0000006cH .text$_ZNKSt3__120__shared_ptr_pointerIPNS_13__empty_stateIcEENS_10shared_ptrIS2_E27__shared_ptr_default_deleteIS2_S2_EENS_9allocatorIS2_EEE13__get_deleterERKSt9type_info CODE
 0001:0001c1a0 0000005aH .text$_ZNSt3__120__shared_ptr_pointerIPNS_13__empty_stateIcEENS_10shared_ptrIS2_E27__shared_ptr_default_deleteIS2_S2_EENS_9allocatorIS2_EEE21__on_zero_shared_weakEv CODE
 0001:0001c200 0000002cH .text$_ZNSt3__114__shared_countC2B6v15007El CODE
 0001:0001c230 0000003cH .text$_ZNSt3__117__compressed_pairIPNS_13__empty_stateIcEENS_10shared_ptrIS2_E27__shared_ptr_default_deleteIS2_S2_EEEC2B6v15007IRS3_S7_EEOT_OT0_ CODE
 0001:0001c270 00000012H .text$_ZNSt3__122__compressed_pair_elemINS_10shared_ptrINS_13__empty_stateIcEEE27__shared_ptr_default_deleteIS3_S3_EELi1ELb1EEC2B6v15007IS6_vEEOT_ CODE
 0001:0001c290 0000003cH .text$_ZNSt3__117__compressed_pairINS0_IPNS_13__empty_stateIcEENS_10shared_ptrIS2_E27__shared_ptr_default_deleteIS2_S2_EEEENS_9allocatorIS2_EEEC2B6v15007IS8_SA_EEOT_OT0_ CODE
 0001:0001c2d0 00000021H .text$_ZNSt3__122__compressed_pair_elemINS_17__compressed_pairIPNS_13__empty_stateIcEENS_10shared_ptrIS3_E27__shared_ptr_default_deleteIS3_S3_EEEELi0ELb0EEC2B6v15007IS9_vEEOT_ CODE
 0001:0001c300 00000012H .text$_ZNSt3__122__compressed_pair_elemINS_9allocatorINS_13__empty_stateIcEEEELi1ELb1EEC2B6v15007IS4_vEEOT_ CODE
 0001:0001c320 00000019H .text$_ZNSt3__120__shared_ptr_pointerIPNS_13__empty_stateIcEENS_10shared_ptrIS2_E27__shared_ptr_default_deleteIS2_S2_EENS_9allocatorIS2_EEED2Ev CODE
 0001:0001c340 00000019H .text$_ZNSt3__117__compressed_pairINS0_IPNS_13__empty_stateIcEENS_10shared_ptrIS2_E27__shared_ptr_default_deleteIS2_S2_EEEENS_9allocatorIS2_EEE5firstB6v15007Ev CODE
 0001:0001c360 00000019H .text$_ZNSt3__117__compressed_pairIPNS_13__empty_stateIcEENS_10shared_ptrIS2_E27__shared_ptr_default_deleteIS2_S2_EEE6secondB6v15007Ev CODE
 0001:0001c380 00000033H .text$_ZNKSt3__114default_deleteINS_13__empty_stateIcEEEclB6v15007EPS2_ CODE
 0001:0001c3c0 00000019H .text$_ZNSt3__117__compressed_pairIPNS_13__empty_stateIcEENS_10shared_ptrIS2_E27__shared_ptr_default_deleteIS2_S2_EEE5firstB6v15007Ev CODE
 0001:0001c3e0 0000000bH .text$_ZNSt3__122__compressed_pair_elemINS_17__compressed_pairIPNS_13__empty_stateIcEENS_10shared_ptrIS3_E27__shared_ptr_default_deleteIS3_S3_EEEELi0ELb0EE5__getB6v15007Ev CODE
 0001:0001c3f0 0000000bH .text$_ZNSt3__122__compressed_pair_elemINS_10shared_ptrINS_13__empty_stateIcEEE27__shared_ptr_default_deleteIS3_S3_EELi1ELb1EE5__getB6v15007Ev CODE
 0001:0001c400 0000000bH .text$_ZNSt3__122__compressed_pair_elemIPNS_13__empty_stateIcEELi0ELb0EE5__getB6v15007Ev CODE
 0001:0001c410 00000067H .text$_ZNKSt9type_infoeqB6v15007ERKS_ CODE
 0001:0001c480 00000019H .text$_ZNKSt3__117__compressed_pairINS0_IPNS_13__empty_stateIcEENS_10shared_ptrIS2_E27__shared_ptr_default_deleteIS2_S2_EEEENS_9allocatorIS2_EEE5firstB6v15007Ev CODE
 0001:0001c4a0 00000019H .text$_ZNKSt3__117__compressed_pairIPNS_13__empty_stateIcEENS_10shared_ptrIS2_E27__shared_ptr_default_deleteIS2_S2_EEE6secondB6v15007Ev CODE
 0001:0001c4c0 0000000bH .text$_ZNKSt3__122__compressed_pair_elemINS_17__compressed_pairIPNS_13__empty_stateIcEENS_10shared_ptrIS3_E27__shared_ptr_default_deleteIS3_S3_EEEELi0ELb0EE5__getB6v15007Ev CODE
 0001:0001c4d0 0000000bH .text$_ZNKSt3__122__compressed_pair_elemINS_10shared_ptrINS_13__empty_stateIcEEE27__shared_ptr_default_deleteIS3_S3_EELi1ELb1EE5__getB6v15007Ev CODE
 0001:0001c4e0 00000019H .text$_ZNSt3__117__compressed_pairINS0_IPNS_13__empty_stateIcEENS_10shared_ptrIS2_E27__shared_ptr_default_deleteIS2_S2_EEEENS_9allocatorIS2_EEE6secondB6v15007Ev CODE
 0001:0001c500 00000023H .text$_ZNSt3__19allocatorINS_20__shared_ptr_pointerIPNS_13__empty_stateIcEENS_10shared_ptrIS3_E27__shared_ptr_default_deleteIS3_S3_EENS0_IS3_EEEEEC1B6v15007IS3_EERKNS0_IT_EE CODE
 0001:0001c530 0000003fH .text$_ZNSt3__19allocatorINS_20__shared_ptr_pointerIPNS_13__empty_stateIcEENS_10shared_ptrIS3_E27__shared_ptr_default_deleteIS3_S3_EENS0_IS3_EEEEE10deallocateB6v15007EPSA_y CODE
 0001:0001c570 0000000bH .text$_ZNSt3__114pointer_traitsIPNS_20__shared_ptr_pointerIPNS_13__empty_stateIcEENS_10shared_ptrIS3_E27__shared_ptr_default_deleteIS3_S3_EENS_9allocatorIS3_EEEEE10pointer_toB6v15007ERSB_ CODE
 0001:0001c580 0000000bH .text$_ZNSt3__122__compressed_pair_elemINS_9allocatorINS_13__empty_stateIcEEEELi1ELb1EE5__getB6v15007Ev CODE
 0001:0001c590 0000001eH .text$_ZNSt3__19allocatorINS_20__shared_ptr_pointerIPNS_13__empty_stateIcEENS_10shared_ptrIS3_E27__shared_ptr_default_deleteIS3_S3_EENS0_IS3_EEEEEC2B6v15007IS3_EERKNS0_IT_EE CODE
 0001:0001c5b0 00000007H .text$_ZNSt3__116__non_trivial_ifILb1ENS_9allocatorINS_20__shared_ptr_pointerIPNS_13__empty_stateIcEENS_10shared_ptrIS4_E27__shared_ptr_default_deleteIS4_S4_EENS1_IS4_EEEEEEEC2B6v15007Ev CODE
 0001:0001c5c0 00000019H .text$_ZNSt3__117__compressed_pairIPNS_13__empty_stateIcEENS_14default_deleteIS2_EEE5firstB6v15007Ev CODE
 0001:0001c5e0 0000001dH .text$_ZNSt3__110unique_ptrINS_13__empty_stateIcEENS_14default_deleteIS2_EEED2B6v15007Ev CODE
 0001:0001c600 0000006aH .text$_ZNSt3__110unique_ptrINS_13__empty_stateIcEENS_14default_deleteIS2_EEE5resetB6v15007EPS2_ CODE
 0001:0001c670 00000019H .text$_ZNSt3__117__compressed_pairIPNS_13__empty_stateIcEENS_14default_deleteIS2_EEE6secondB6v15007Ev CODE
 0001:0001c690 0000000bH .text$_ZNSt3__122__compressed_pair_elemINS_14default_deleteINS_13__empty_stateIcEEEELi1ELb1EE5__getB6v15007Ev CODE
 0001:0001c6a0 0000003bH .text$_ZNSt3__14swapB6v15007IPNS_13__empty_stateIcEEEENS_9enable_ifIXaasr21is_move_constructibleIT_EE5valuesr18is_move_assignableIS5_EE5valueEvE4typeERS5_S8_ CODE
 0001:0001c6e0 0000003bH .text$_ZNSt3__14swapB6v15007IPNS_19__shared_weak_countEEENS_9enable_ifIXaasr21is_move_constructibleIT_EE5valuesr18is_move_assignableIS4_EE5valueEvE4typeERS4_S7_ CODE
 0001:0001c720 00000019H .text$_ZNKSt3__117__compressed_pairIPNS_6__nodeIcEENS_14default_deleteIS2_EEE5firstB6v15007Ev CODE
 0001:0001c740 0000000bH .text$_ZNKSt3__122__compressed_pair_elemIPNS_6__nodeIcEELi0ELb0EE5__getB6v15007Ev CODE
 0001:0001c750 0000003aH .text$_ZNSt3__113__empty_stateIcEC2B6v15007EPNS_6__nodeIcEE CODE
 0001:0001c790 0000003aH .text$_ZNSt3__116__owns_one_stateIcEC2B6v15007EPNS_6__nodeIcEE CODE
 0001:0001c7d0 00000019H .text$_ZNSt3__113__empty_stateIcED1Ev CODE
 0001:0001c7f0 00000028H .text$_ZNSt3__113__empty_stateIcED0Ev CODE
 0001:0001c820 00000034H .text$_ZNKSt3__113__empty_stateIcE6__execERNS_7__stateIcEE CODE
 0001:0001c860 0000003eH .text$_ZNSt3__115__has_one_stateIcEC2B6v15007EPNS_6__nodeIcEE CODE
 0001:0001c8a0 00000019H .text$_ZNSt3__116__owns_one_stateIcED1Ev CODE
 0001:0001c8c0 00000028H .text$_ZNSt3__116__owns_one_stateIcED0Ev CODE
 0001:0001c8f0 00000019H .text$_ZNSt3__115__has_one_stateIcED1Ev CODE
 0001:0001c910 00000028H .text$_ZNSt3__115__has_one_stateIcED0Ev CODE
 0001:0001c940 00000019H .text$_ZNSt3__115__has_one_stateIcED2Ev CODE
 0001:0001c960 00000067H .text$_ZNSt3__116__owns_one_stateIcED2Ev CODE
 0001:0001c9d0 0000000fH .text$_ZNSt3__115__has_one_stateIcE5firstB6v15007Ev CODE
 0001:0001c9e0 00000019H .text$_ZNSt3__113__empty_stateIcED2Ev CODE
 0001:0001ca00 0000000fH .text$_ZNKSt3__115__has_one_stateIcE5firstB6v15007Ev CODE
 0001:0001ca10 00000019H .text$_ZNSt3__117__compressed_pairIPNS_6__nodeIcEENS_14default_deleteIS2_EEE5firstB6v15007Ev CODE
 0001:0001ca30 0000000bH .text$_ZNSt3__122__compressed_pair_elemIPNS_6__nodeIcEELi0ELb0EE5__getB6v15007Ev CODE
 0001:0001ca40 0000001dH .text$_ZNSt3__110unique_ptrINS_6__nodeIcEENS_14default_deleteIS2_EEED2B6v15007Ev CODE
 0001:0001ca60 0000006aH .text$_ZNSt3__110unique_ptrINS_6__nodeIcEENS_14default_deleteIS2_EEE5resetB6v15007EPS2_ CODE
 0001:0001cad0 00000019H .text$_ZNSt3__117__compressed_pairIPNS_6__nodeIcEENS_14default_deleteIS2_EEE6secondB6v15007Ev CODE
 0001:0001caf0 00000033H .text$_ZNKSt3__114default_deleteINS_6__nodeIcEEEclB6v15007EPS2_ CODE
 0001:0001cb30 0000000bH .text$_ZNSt3__122__compressed_pair_elemINS_14default_deleteINS_6__nodeIcEEEELi1ELb1EE5__getB6v15007Ev CODE
 0001:0001cb40 00000064H .text$_ZNSt3__111basic_regexIcNS_12regex_traitsIcEEE19__parse_alternativeIPKcEET_S7_S7_ CODE
 0001:0001cbb0 000000b0H .text$_ZNSt3__111basic_regexIcNS_12regex_traitsIcEEE12__push_emptyEv CODE
 0001:0001cc60 000001fdH .text$_ZNSt3__111basic_regexIcNS_12regex_traitsIcEEE18__push_alternationEPNS_16__owns_one_stateIcEES6_ CODE
 0001:0001ce60 000000c9H .text$_ZNSt3__111basic_regexIcNS_12regex_traitsIcEEE12__parse_termIPKcEET_S7_S7_ CODE
 0001:0001cf30 0000048cH .text$_ZNSt3__111basic_regexIcNS_12regex_traitsIcEEE17__parse_assertionIPKcEET_S7_S7_ CODE
 0001:0001d3c0 0000029fH .text$_ZNSt3__111basic_regexIcNS_12regex_traitsIcEEE12__parse_atomIPKcEET_S7_S7_ CODE
 0001:0001d660 00000641H .text$_ZNSt3__111basic_regexIcNS_12regex_traitsIcEEE23__parse_ERE_dupl_symbolIPKcEET_S7_S7_PNS_16__owns_one_stateIcEEjj CODE
 0001:0001dcb0 000000c2H .text$_ZNSt3__111basic_regexIcNS_12regex_traitsIcEEE15__push_l_anchorEv CODE
 0001:0001dd80 000000c2H .text$_ZNSt3__111basic_regexIcNS_12regex_traitsIcEEE15__push_r_anchorEv CODE
 0001:0001de50 00000048H .text$_ZNSt3__14nextB6v15007IPKcEENS_9enable_ifIXsr25__is_cpp17_input_iteratorIT_EE5valueES4_E4typeES4_NS_15iterator_traitsIS4_E15difference_typeE CODE
 0001:0001dea0 000000cdH .text$_ZNSt3__111basic_regexIcNS_12regex_traitsIcEEE20__push_word_boundaryEb CODE
 0001:0001df70 00000019H .text$_ZNSt3__111basic_regexIcNS_12regex_traitsIcEEEC1B6v15007Ev CODE
 0001:0001df90 000000fbH .text$_ZNSt3__111basic_regexIcNS_12regex_traitsIcEEE16__push_lookaheadERKS3_bj CODE
 0001:0001e090 0000006bH .text$_ZNSt3__119__throw_regex_errorB6v15007ILNS_15regex_constants10error_typeE6EEEvv CODE
 0001:0001e100 00000056H .text$_ZNKSt3__111basic_regexIcNS_12regex_traitsIcEEE15__use_multilineB6v15007Ev CODE
 0001:0001e160 00000031H .text$_ZNSt3__120__l_anchor_multilineIcEC1B6v15007EbPNS_6__nodeIcEE CODE
 0001:0001e1a0 00000011H .text$_ZNSt3__115regex_constantsanB6v15007ENS0_18syntax_option_typeES1_ CODE
 0001:0001e1c0 0000004bH .text$_ZNSt3__120__l_anchor_multilineIcEC2B6v15007EbPNS_6__nodeIcEE CODE
 0001:0001e210 00000019H .text$_ZNSt3__120__l_anchor_multilineIcED1Ev CODE
 0001:0001e230 00000028H .text$_ZNSt3__120__l_anchor_multilineIcED0Ev CODE
 0001:0001e260 0000010dH .text$_ZNKSt3__120__l_anchor_multilineIcE6__execERNS_7__stateIcEE CODE
 0001:0001e370 00000019H .text$_ZNSt3__120__l_anchor_multilineIcED2Ev CODE
 0001:0001e390 00000011H .text$_ZNSt3__115regex_constantsanB6v15007ENS0_15match_flag_typeES1_ CODE
 0001:0001e3b0 00000033H .text$_ZNSt3__18__is_eolB6v15007IcEEbT_ CODE
 0001:0001e3f0 0000004cH .text$_ZNSt3__14prevB6v15007IPKcEENS_9enable_ifIXsr25__is_cpp17_input_iteratorIT_EE5valueES4_E4typeES4_NS_15iterator_traitsIS4_E15difference_typeE CODE
 0001:0001e440 00000058H .text$_ZNSt3__17advanceB6v15007IPKcxxvEEvRT_T0_ CODE
 0001:0001e4a0 0000000bH .text$_ZNSt3__121__convert_to_integralB6v15007Ex CODE
 0001:0001e4b0 00000026H .text$_ZNSt3__19__advanceB6v15007IPKcEEvRT_NS_15iterator_traitsIS3_E15difference_typeENS_26random_access_iterator_tagE CODE
 0001:0001e4e0 00000031H .text$_ZNSt3__120__r_anchor_multilineIcEC1B6v15007EbPNS_6__nodeIcEE CODE
 0001:0001e520 0000004bH .text$_ZNSt3__120__r_anchor_multilineIcEC2B6v15007EbPNS_6__nodeIcEE CODE
 0001:0001e570 00000019H .text$_ZNSt3__120__r_anchor_multilineIcED1Ev CODE
 0001:0001e590 00000028H .text$_ZNSt3__120__r_anchor_multilineIcED0Ev CODE
 0001:0001e5c0 000000e5H .text$_ZNKSt3__120__r_anchor_multilineIcE6__execERNS_7__stateIcEE CODE
 0001:0001e6b0 00000019H .text$_ZNSt3__120__r_anchor_multilineIcED2Ev CODE
 0001:0001e6d0 0000003fH .text$_ZNSt3__115__word_boundaryIcNS_12regex_traitsIcEEEC1B6v15007ERKS2_bPNS_6__nodeIcEE CODE
 0001:0001e710 00000065H .text$_ZNSt3__115__word_boundaryIcNS_12regex_traitsIcEEEC2B6v15007ERKS2_bPNS_6__nodeIcEE CODE
 0001:0001e780 00000023H .text$_ZNSt3__112regex_traitsIcEC1ERKS1_ CODE
 0001:0001e7b0 00000019H .text$_ZNSt3__115__word_boundaryIcNS_12regex_traitsIcEEED1Ev CODE
 0001:0001e7d0 00000028H .text$_ZNSt3__115__word_boundaryIcNS_12regex_traitsIcEEED0Ev CODE
 0001:0001e800 00000270H .text$_ZNKSt3__115__word_boundaryIcNS_12regex_traitsIcEEE6__execERNS_7__stateIcEE CODE
 0001:0001ea70 00000041H .text$_ZNSt3__112regex_traitsIcEC2ERKS1_ CODE
 0001:0001eac0 0000003aH .text$_ZNSt3__115__word_boundaryIcNS_12regex_traitsIcEEED2Ev CODE
 0001:0001eb00 00000082H .text$_ZNKSt3__112regex_traitsIcE7isctypeEct CODE
 0001:0001eb90 00000071H .text$_ZNKSt3__15ctypeIcE2isB6v15007Etc CODE
 0001:0001ec10 00000054H .text$_ZNSt3__111basic_regexIcNS_12regex_traitsIcEEEC2B6v15007Ev CODE
 0001:0001ec70 0000004bH .text$_ZNSt3__111__lookaheadIcNS_12regex_traitsIcEEEC1B6v15007ERKNS_11basic_regexIcS2_EEbPNS_6__nodeIcEEj CODE
 0001:0001ecc0 00000070H .text$_ZNSt3__111__lookaheadIcNS_12regex_traitsIcEEEC2B6v15007ERKNS_11basic_regexIcS2_EEbPNS_6__nodeIcEEj CODE
 0001:0001ed30 00000023H .text$_ZNSt3__111basic_regexIcNS_12regex_traitsIcEEEC1ERKS3_ CODE
 0001:0001ed60 00000019H .text$_ZNSt3__111__lookaheadIcNS_12regex_traitsIcEEED1Ev CODE
 0001:0001ed80 00000028H .text$_ZNSt3__111__lookaheadIcNS_12regex_traitsIcEEED0Ev CODE
 0001:0001edb0 000002b4H .text$_ZNKSt3__111__lookaheadIcNS_12regex_traitsIcEEE6__execERNS_7__stateIcEE CODE
 0001:0001f070 00000065H .text$_ZNSt3__111basic_regexIcNS_12regex_traitsIcEEEC2ERKS3_ CODE
 0001:0001f0e0 00000023H .text$_ZNSt3__110shared_ptrINS_13__empty_stateIcEEEC1B6v15007ERKS3_ CODE
 0001:0001f110 0000004fH .text$_ZNSt3__110shared_ptrINS_13__empty_stateIcEEEC2B6v15007ERKS3_ CODE
 0001:0001f160 00000019H .text$_ZNSt3__119__shared_weak_count12__add_sharedB6v15007Ev CODE
 0001:0001f180 0000001dH .text$_ZNSt3__114__shared_count12__add_sharedB6v15007Ev CODE
 0001:0001f1a0 0000002dH .text$_ZNSt3__134__libcpp_atomic_refcount_incrementB6v15007IlEET_RS1_ CODE
 0001:0001f1d0 0000003aH .text$_ZNSt3__111__lookaheadIcNS_12regex_traitsIcEEED2Ev CODE
 0001:0001f210 00000032H .text$_ZNSt3__113match_resultsIPKcNS_9allocatorINS_9sub_matchIS2_EEEEEC1Ev CODE
 0001:0001f250 000000a7H .text$_ZNSt3__113match_resultsIPKcNS_9allocatorINS_9sub_matchIS2_EEEEE6__initEjS2_S2_b CODE
 0001:0001f300 0000000eH .text$_ZNKSt3__111basic_regexIcNS_12regex_traitsIcEEE10mark_countB6v15007Ev CODE
 0001:0001f310 000006bcH .text$_ZNKSt3__111basic_regexIcNS_12regex_traitsIcEEE21__match_at_start_ecmaINS_9allocatorINS_9sub_matchIPKcEEEEEEbS8_S8_RNS_13match_resultsIS8_T_EENS_15regex_constants15match_flag_typeEb CODE
 0001:0001f9d0 00000011H .text$_ZNSt3__115regex_constantsorB6v15007ENS0_15match_flag_typeES1_ CODE
 0001:0001f9f0 00000013H .text$_ZNSt3__115regex_constantscoB6v15007ENS0_15match_flag_typeE CODE
 0001:0001fa10 00000019H .text$_ZNKSt3__113match_resultsIPKcNS_9allocatorINS_9sub_matchIS2_EEEEE4sizeB6v15007Ev CODE
 0001:0001fa30 00000022H .text$_ZNSt3__16vectorINS_9sub_matchIPKcEENS_9allocatorIS4_EEEixB6v15007Ey CODE
 0001:0001fa60 0000003aH .text$_ZNSt3__19sub_matchIPKcEaSERKS3_ CODE
 0001:0001faa0 00000019H .text$_ZNSt3__113match_resultsIPKcNS_9allocatorINS_9sub_matchIS2_EEEEED1Ev CODE
 0001:0001fac0 00000019H .text$_ZNSt3__19allocatorINS_9sub_matchIPKcEEEC1B6v15007Ev CODE
 0001:0001fae0 00000023H .text$_ZNSt3__113match_resultsIPKcNS_9allocatorINS_9sub_matchIS2_EEEEEC1ERKS6_ CODE
 0001:0001fb10 00000019H .text$_ZNSt3__19allocatorINS_9sub_matchIPKcEEEC2B6v15007Ev CODE
 0001:0001fb30 00000007H .text$_ZNSt3__116__non_trivial_ifILb1ENS_9allocatorINS_9sub_matchIPKcEEEEEC2B6v15007Ev CODE
 0001:0001fb40 000000a4H .text$_ZNSt3__113match_resultsIPKcNS_9allocatorINS_9sub_matchIS2_EEEEEC2ERKS6_ CODE
 0001:0001fbf0 00000023H .text$_ZNSt3__16vectorINS_9sub_matchIPKcEENS_9allocatorIS4_EEEC1B6v15007ERKS6_ CODE
 0001:0001fc20 00000019H .text$_ZNSt3__19sub_matchIPKcEC1B6v15007Ev CODE
 0001:0001fc40 00000019H .text$_ZNSt3__16vectorINS_9sub_matchIPKcEENS_9allocatorIS4_EEED1B6v15007Ev CODE
 0001:0001fc60 00000065H .text$_ZNSt3__16vectorINS_9sub_matchIPKcEENS_9allocatorIS4_EEEC2B6v15007ERKS6_ CODE
 0001:0001fcd0 0000002dH .text$_ZNSt3__117__compressed_pairIPNS_9sub_matchIPKcEENS_9allocatorIS4_EEEC1B6v15007IDnRKS7_EEOT_OT0_ CODE
 0001:0001fd00 00000007H .text$_ZNSt3__119__debug_db_insert_cB6v15007INS_6vectorINS_9sub_matchIPKcEENS_9allocatorIS5_EEEEEEvPT_ CODE
 0001:0001fd10 0000003cH .text$_ZNSt3__117__compressed_pairIPNS_9sub_matchIPKcEENS_9allocatorIS4_EEEC2B6v15007IDnRKS7_EEOT_OT0_ CODE
 0001:0001fd50 0000001eH .text$_ZNSt3__122__compressed_pair_elemIPNS_9sub_matchIPKcEELi0ELb0EEC2B6v15007IDnvEEOT_ CODE
 0001:0001fd70 00000012H .text$_ZNSt3__122__compressed_pair_elemINS_9allocatorINS_9sub_matchIPKcEEEELi1ELb1EEC2B6v15007IRKS6_vEEOT_ CODE
 0001:0001fd90 00000026H .text$_ZNSt3__19sub_matchIPKcEC2B6v15007Ev CODE
 0001:0001fdc0 0000001aH .text$_ZNSt3__14pairIPKcS2_EC2B6v15007ILb1ELPv0EEEv CODE
 0001:0001fde0 0000003aH .text$_ZNSt3__16vectorINS_9sub_matchIPKcEENS_9allocatorIS4_EEED2B6v15007Ev CODE
 0001:0001fe20 00000023H .text$_ZNSt3__16vectorINS_9sub_matchIPKcEENS_9allocatorIS4_EEE16__destroy_vectorC1ERS7_ CODE
 0001:0001fe50 0000008cH .text$_ZNSt3__16vectorINS_9sub_matchIPKcEENS_9allocatorIS4_EEE16__destroy_vectorclB6v15007Ev CODE
 0001:0001fee0 0000001eH .text$_ZNSt3__16vectorINS_9sub_matchIPKcEENS_9allocatorIS4_EEE16__destroy_vectorC2ERS7_ CODE
 0001:0001ff00 000000c3H .text$_ZNKSt3__16vectorINS_9sub_matchIPKcEENS_9allocatorIS4_EEE17__annotate_deleteB6v15007Ev CODE
 0001:0001ffd0 00000007H .text$_ZNSt3__118__debug_db_erase_cB6v15007INS_6vectorINS_9sub_matchIPKcEENS_9allocatorIS5_EEEEEEvPT_ CODE
 0001:0001ffe0 0000001cH .text$_ZNSt3__16vectorINS_9sub_matchIPKcEENS_9allocatorIS4_EEE7__clearB6v15007Ev CODE
 0001:00020000 0000002dH .text$_ZNSt3__116allocator_traitsINS_9allocatorINS_9sub_matchIPKcEEEEE10deallocateB6v15007ERS6_PS5_y CODE
 0001:00020030 0000001dH .text$_ZNSt3__16vectorINS_9sub_matchIPKcEENS_9allocatorIS4_EEE7__allocB6v15007Ev CODE
 0001:00020050 00000035H .text$_ZNKSt3__16vectorINS_9sub_matchIPKcEENS_9allocatorIS4_EEE8capacityB6v15007Ev CODE
 0001:00020090 00000021H .text$_ZNKSt3__16vectorINS_9sub_matchIPKcEENS_9allocatorIS4_EEE31__annotate_contiguous_containerB6v15007EPKvS9_S9_S9_ CODE
 0001:000200c0 0000001cH .text$_ZNKSt3__16vectorINS_9sub_matchIPKcEENS_9allocatorIS4_EEE4dataB6v15007Ev CODE
 0001:000200e0 0000001fH .text$_ZNKSt3__16vectorINS_9sub_matchIPKcEENS_9allocatorIS4_EEE4sizeB6v15007Ev CODE
 0001:00020100 0000000bH .text$_ZNSt3__112__to_addressB6v15007INS_9sub_matchIPKcEEEEPT_S6_ CODE
 0001:00020110 00000086H .text$_ZNSt3__16vectorINS_9sub_matchIPKcEENS_9allocatorIS4_EEE22__base_destruct_at_endB6v15007EPS4_ CODE
 0001:000201a0 00000023H .text$_ZNSt3__116allocator_traitsINS_9allocatorINS_9sub_matchIPKcEEEEE7destroyB6v15007IS5_vEEvRS6_PT_ CODE
 0001:000201d0 00000012H .text$_ZNSt3__19allocatorINS_9sub_matchIPKcEEE7destroyB6v15007EPS4_ CODE
 0001:000201f0 00000043H .text$_ZNSt3__19allocatorINS_9sub_matchIPKcEEE10deallocateB6v15007EPS4_y CODE
 0001:00020240 00000019H .text$_ZNSt3__117__compressed_pairIPNS_9sub_matchIPKcEENS_9allocatorIS4_EEE6secondB6v15007Ev CODE
 0001:00020260 0000000bH .text$_ZNSt3__122__compressed_pair_elemINS_9allocatorINS_9sub_matchIPKcEEEELi1ELb1EE5__getB6v15007Ev CODE
 0001:00020270 0000001dH .text$_ZNKSt3__16vectorINS_9sub_matchIPKcEENS_9allocatorIS4_EEE9__end_capB6v15007Ev CODE
 0001:00020290 00000019H .text$_ZNKSt3__117__compressed_pairIPNS_9sub_matchIPKcEENS_9allocatorIS4_EEE5firstB6v15007Ev CODE
 0001:000202b0 0000000bH .text$_ZNKSt3__122__compressed_pair_elemIPNS_9sub_matchIPKcEELi0ELb0EE5__getB6v15007Ev CODE
 0001:000202c0 00000110H .text$_ZNSt3__16vectorINS_9sub_matchIPKcEENS_9allocatorIS4_EEE6assignEyRKS4_ CODE
 0001:000203d0 0000003fH .text$_ZNSt3__16fill_nB6v15007IPNS_9sub_matchIPKcEEyS4_EET_S6_T0_RKT1_ CODE
 0001:00020410 000000e1H .text$_ZNSt3__16vectorINS_9sub_matchIPKcEENS_9allocatorIS4_EEE18__construct_at_endEyRKS4_ CODE
 0001:00020500 00000063H .text$_ZNSt3__16vectorINS_9sub_matchIPKcEENS_9allocatorIS4_EEE17__destruct_at_endB6v15007EPS4_ CODE
 0001:00020570 00000087H .text$_ZNSt3__16vectorINS_9sub_matchIPKcEENS_9allocatorIS4_EEE13__vdeallocateEv CODE
 0001:00020600 000000a6H .text$_ZNSt3__16vectorINS_9sub_matchIPKcEENS_9allocatorIS4_EEE11__vallocateB6v15007Ey CODE
 0001:000206b0 000000a0H .text$_ZNKSt3__16vectorINS_9sub_matchIPKcEENS_9allocatorIS4_EEE11__recommendB6v15007Ey CODE
 0001:00020750 00000007H .text$_ZNSt3__125__debug_db_invalidate_allB6v15007INS_6vectorINS_9sub_matchIPKcEENS_9allocatorIS5_EEEEEEvPT_ CODE
 0001:00020760 00000059H .text$_ZNSt3__18__fill_nB6v15007IPNS_9sub_matchIPKcEEyS4_EET_S6_T0_RKT1_ CODE
 0001:000207c0 0000002dH .text$_ZNSt3__16vectorINS_9sub_matchIPKcEENS_9allocatorIS4_EEE21_ConstructTransactionC1ERS7_y CODE
 0001:000207f0 0000002dH .text$_ZNSt3__116allocator_traitsINS_9allocatorINS_9sub_matchIPKcEEEEE9constructB6v15007IS5_JRKS5_EvEEvRS6_PT_DpOT0_ CODE
 0001:00020820 00000019H .text$_ZNSt3__16vectorINS_9sub_matchIPKcEENS_9allocatorIS4_EEE21_ConstructTransactionD1Ev CODE
 0001:00020840 00000046H .text$_ZNSt3__16vectorINS_9sub_matchIPKcEENS_9allocatorIS4_EEE21_ConstructTransactionC2ERS7_y CODE
 0001:00020890 00000036H .text$_ZNSt3__19allocatorINS_9sub_matchIPKcEEE9constructB6v15007IS4_JRKS4_EEEvPT_DpOT0_ CODE
 0001:000208d0 00000016H .text$_ZNSt3__16vectorINS_9sub_matchIPKcEENS_9allocatorIS4_EEE21_ConstructTransactionD2Ev CODE
 0001:000208f0 00000012H .text$_ZNSt3__16vectorINS_9sub_matchIPKcEENS_9allocatorIS4_EEE27__invalidate_iterators_pastB6v15007EPS4_ CODE
 0001:00020910 000000b3H .text$_ZNKSt3__16vectorINS_9sub_matchIPKcEENS_9allocatorIS4_EEE17__annotate_shrinkB6v15007Ey CODE
 0001:000209d0 00000053H .text$_ZNSt3__16vectorINS_9sub_matchIPKcEENS_9allocatorIS4_EEE5clearB6v15007Ev CODE
 0001:00020a30 0000001dH .text$_ZNSt3__16vectorINS_9sub_matchIPKcEENS_9allocatorIS4_EEE9__end_capB6v15007Ev CODE
 0001:00020a50 00000019H .text$_ZNSt3__117__compressed_pairIPNS_9sub_matchIPKcEENS_9allocatorIS4_EEE5firstB6v15007Ev CODE
 0001:00020a70 0000000bH .text$_ZNSt3__122__compressed_pair_elemIPNS_9sub_matchIPKcEELi0ELb0EE5__getB6v15007Ev CODE
 0001:00020a80 00000059H .text$_ZNKSt3__16vectorINS_9sub_matchIPKcEENS_9allocatorIS4_EEE8max_sizeEv CODE
 0001:00020ae0 00000016H .text$_ZNKSt3__16vectorINS_9sub_matchIPKcEENS_9allocatorIS4_EEE20__throw_length_errorB6v15007Ev CODE
 0001:00020b00 0000004dH .text$_ZNSt3__119__allocate_at_leastB6v15007INS_9allocatorINS_9sub_matchIPKcEEEEEENS_19__allocation_resultINS_16allocator_traitsIT_E7pointerEEERS9_y CODE
 0001:00020b50 000000b3H .text$_ZNKSt3__16vectorINS_9sub_matchIPKcEENS_9allocatorIS4_EEE14__annotate_newB6v15007Ey CODE
 0001:00020c10 00000019H .text$_ZNSt3__116allocator_traitsINS_9allocatorINS_9sub_matchIPKcEEEEE8max_sizeB6v15007IS6_vEEyRKS6_ CODE
 0001:00020c30 0000001dH .text$_ZNKSt3__16vectorINS_9sub_matchIPKcEENS_9allocatorIS4_EEE7__allocB6v15007Ev CODE
 0001:00020c50 00000011H .text$_ZNKSt3__19allocatorINS_9sub_matchIPKcEEE8max_sizeB6v15007Ev CODE
 0001:00020c70 00000019H .text$_ZNKSt3__117__compressed_pairIPNS_9sub_matchIPKcEENS_9allocatorIS4_EEE6secondB6v15007Ev CODE
 0001:00020c90 0000000bH .text$_ZNKSt3__122__compressed_pair_elemINS_9allocatorINS_9sub_matchIPKcEEEELi1ELb1EE5__getB6v15007Ev CODE
 0001:00020ca0 0000004eH .text$_ZNSt3__19allocatorINS_9sub_matchIPKcEEE8allocateB6v15007Ey CODE
 0001:00020cf0 00000019H .text$_ZNSt3__16vectorINS_7__stateIcEENS_9allocatorIS2_EEEC1B6v15007Ev CODE
 0001:00020d10 00000060H .text$_ZNSt3__16vectorINS_7__stateIcEENS_9allocatorIS2_EEE9push_backB6v15007EOS2_ CODE
 0001:00020d70 00000019H .text$_ZNSt3__17__stateIcEC1B6v15007Ev CODE
 0001:00020d90 00000019H .text$_ZNSt3__17__stateIcED1Ev CODE
 0001:00020db0 00000013H .text$_ZNSt3__16vectorINS_7__stateIcEENS_9allocatorIS2_EEE4backB6v15007Ev CODE
 0001:00020dd0 00000085H .text$_ZNSt3__16vectorINS_9sub_matchIPKcEENS_9allocatorIS4_EEE6resizeEyRKS4_ CODE
 0001:00020e60 0000007eH .text$_ZNSt3__16vectorINS_4pairIyPKcEENS_9allocatorIS4_EEE6resizeEy CODE
 0001:00020ee0 0000000eH .text$_ZNKSt3__111basic_regexIcNS_12regex_traitsIcEEE12__loop_countB6v15007Ev CODE
 0001:00020ef0 0000006bH .text$_ZNSt3__119__throw_regex_errorB6v15007ILNS_15regex_constants10error_typeE12EEEvv CODE
 0001:00020f60 00000021H .text$_ZNSt3__16vectorINS_7__stateIcEENS_9allocatorIS2_EEE8pop_backEv CODE
 0001:00020f90 00000023H .text$_ZNSt3__17__stateIcEC1ERKS1_ CODE
 0001:00020fc0 0000006bH .text$_ZNSt3__119__throw_regex_errorB6v15007ILNS_15regex_constants10error_typeE16EEEvv CODE
 0001:00021030 0000001aH .text$_ZNKSt3__16vectorINS_7__stateIcEENS_9allocatorIS2_EEE5emptyB6v15007Ev CODE
 0001:00021050 00000019H .text$_ZNSt3__16vectorINS_7__stateIcEENS_9allocatorIS2_EEED1B6v15007Ev CODE
 0001:00021070 00000060H .text$_ZNSt3__16vectorINS_7__stateIcEENS_9allocatorIS2_EEEC2B6v15007Ev CODE
 0001:000210d0 0000002dH .text$_ZNSt3__117__compressed_pairIPNS_7__stateIcEENS_9allocatorIS2_EEEC1B6v15007IDnNS_18__default_init_tagEEEOT_OT0_ CODE
 0001:00021100 00000007H .text$_ZNSt3__119__debug_db_insert_cB6v15007INS_6vectorINS_7__stateIcEENS_9allocatorIS3_EEEEEEvPT_ CODE
 0001:00021110 0000003bH .text$_ZNSt3__117__compressed_pairIPNS_7__stateIcEENS_9allocatorIS2_EEEC2B6v15007IDnNS_18__default_init_tagEEEOT_OT0_ CODE
 0001:00021150 0000001eH .text$_ZNSt3__122__compressed_pair_elemIPNS_7__stateIcEELi0ELb0EEC2B6v15007IDnvEEOT_ CODE
 0001:00021170 0000001dH .text$_ZNSt3__122__compressed_pair_elemINS_9allocatorINS_7__stateIcEEEELi1ELb1EEC2B6v15007ENS_18__default_init_tagE CODE
 0001:00021190 00000019H .text$_ZNSt3__19allocatorINS_7__stateIcEEEC2B6v15007Ev CODE
 0001:000211b0 00000007H .text$_ZNSt3__116__non_trivial_ifILb1ENS_9allocatorINS_7__stateIcEEEEEC2B6v15007Ev CODE
 0001:000211c0 0000001dH .text$_ZNSt3__16vectorINS_7__stateIcEENS_9allocatorIS2_EEE9__end_capB6v15007Ev CODE
 0001:000211e0 00000099H .text$_ZNSt3__16vectorINS_7__stateIcEENS_9allocatorIS2_EEE22__construct_one_at_endB6v15007IJS2_EEEvDpOT_ CODE
 0001:00021280 000000eeH .text$_ZNSt3__16vectorINS_7__stateIcEENS_9allocatorIS2_EEE21__push_back_slow_pathIS2_EEvOT_ CODE
 0001:00021370 00000019H .text$_ZNSt3__117__compressed_pairIPNS_7__stateIcEENS_9allocatorIS2_EEE5firstB6v15007Ev CODE
 0001:00021390 0000000bH .text$_ZNSt3__122__compressed_pair_elemIPNS_7__stateIcEELi0ELb0EE5__getB6v15007Ev CODE
 0001:000213a0 0000002dH .text$_ZNSt3__16vectorINS_7__stateIcEENS_9allocatorIS2_EEE21_ConstructTransactionC1ERS5_y CODE
 0001:000213d0 0000002dH .text$_ZNSt3__116allocator_traitsINS_9allocatorINS_7__stateIcEEEEE9constructB6v15007IS3_JS3_EvEEvRS4_PT_DpOT0_ CODE
 0001:00021400 0000001dH .text$_ZNSt3__16vectorINS_7__stateIcEENS_9allocatorIS2_EEE7__allocB6v15007Ev CODE
 0001:00021420 0000000bH .text$_ZNSt3__112__to_addressB6v15007INS_7__stateIcEEEEPT_S4_ CODE
 0001:00021430 00000019H .text$_ZNSt3__16vectorINS_7__stateIcEENS_9allocatorIS2_EEE21_ConstructTransactionD1Ev CODE
 0001:00021450 00000046H .text$_ZNSt3__16vectorINS_7__stateIcEENS_9allocatorIS2_EEE21_ConstructTransactionC2ERS5_y CODE
 0001:000214a0 00000028H .text$_ZNSt3__19allocatorINS_7__stateIcEEE9constructB6v15007IS2_JS2_EEEvPT_DpOT0_ CODE
 0001:000214d0 00000023H .text$_ZNSt3__17__stateIcEC1EOS1_ CODE
 0001:00021500 00000087H .text$_ZNSt3__17__stateIcEC2EOS1_ CODE
 0001:00021590 00000023H .text$_ZNSt3__16vectorINS_9sub_matchIPKcEENS_9allocatorIS4_EEEC1B6v15007EOS7_ CODE
 0001:000215c0 00000023H .text$_ZNSt3__16vectorINS_4pairIyPKcEENS_9allocatorIS4_EEEC1B6v15007EOS7_ CODE
 0001:000215f0 000000f1H .text$_ZNSt3__16vectorINS_9sub_matchIPKcEENS_9allocatorIS4_EEEC2B6v15007EOS7_ CODE
 0001:000216f0 0000002dH .text$_ZNSt3__117__compressed_pairIPNS_9sub_matchIPKcEENS_9allocatorIS4_EEEC1B6v15007IDnS7_EEOT_OT0_ CODE
 0001:00021720 00000012H .text$_ZNSt3__115__debug_db_swapB6v15007INS_6vectorINS_9sub_matchIPKcEENS_9allocatorIS5_EEEEEEvPT_SA_ CODE
 0001:00021740 0000003cH .text$_ZNSt3__117__compressed_pairIPNS_9sub_matchIPKcEENS_9allocatorIS4_EEEC2B6v15007IDnS7_EEOT_OT0_ CODE
 0001:00021780 00000012H .text$_ZNSt3__122__compressed_pair_elemINS_9allocatorINS_9sub_matchIPKcEEEELi1ELb1EEC2B6v15007IS6_vEEOT_ CODE
 0001:000217a0 000000f6H .text$_ZNSt3__16vectorINS_4pairIyPKcEENS_9allocatorIS4_EEEC2B6v15007EOS7_ CODE
 0001:000218a0 0000001dH .text$_ZNSt3__16vectorINS_4pairIyPKcEENS_9allocatorIS4_EEE7__allocB6v15007Ev CODE
 0001:000218c0 0000002dH .text$_ZNSt3__117__compressed_pairIPNS_4pairIyPKcEENS_9allocatorIS4_EEEC1B6v15007IDnS7_EEOT_OT0_ CODE
 0001:000218f0 00000007H .text$_ZNSt3__119__debug_db_insert_cB6v15007INS_6vectorINS_4pairIyPKcEENS_9allocatorIS5_EEEEEEvPT_ CODE
 0001:00021900 00000012H .text$_ZNSt3__115__debug_db_swapB6v15007INS_6vectorINS_4pairIyPKcEENS_9allocatorIS5_EEEEEEvPT_SA_ CODE
 0001:00021920 0000001dH .text$_ZNSt3__16vectorINS_4pairIyPKcEENS_9allocatorIS4_EEE9__end_capB6v15007Ev CODE
 0001:00021940 00000019H .text$_ZNSt3__117__compressed_pairIPNS_4pairIyPKcEENS_9allocatorIS4_EEE6secondB6v15007Ev CODE
 0001:00021960 0000000bH .text$_ZNSt3__122__compressed_pair_elemINS_9allocatorINS_4pairIyPKcEEEELi1ELb1EE5__getB6v15007Ev CODE
 0001:00021970 0000003cH .text$_ZNSt3__117__compressed_pairIPNS_4pairIyPKcEENS_9allocatorIS4_EEEC2B6v15007IDnS7_EEOT_OT0_ CODE
 0001:000219b0 0000001eH .text$_ZNSt3__122__compressed_pair_elemIPNS_4pairIyPKcEELi0ELb0EEC2B6v15007IDnvEEOT_ CODE
 0001:000219d0 00000012H .text$_ZNSt3__122__compressed_pair_elemINS_9allocatorINS_4pairIyPKcEEEELi1ELb1EEC2B6v15007IS6_vEEOT_ CODE
 0001:000219f0 00000019H .text$_ZNSt3__117__compressed_pairIPNS_4pairIyPKcEENS_9allocatorIS4_EEE5firstB6v15007Ev CODE
 0001:00021a10 0000000bH .text$_ZNSt3__122__compressed_pair_elemIPNS_4pairIyPKcEELi0ELb0EE5__getB6v15007Ev CODE
 0001:00021a20 00000019H .text$_ZNSt3__117__compressed_pairIPNS_7__stateIcEENS_9allocatorIS2_EEE6secondB6v15007Ev CODE
 0001:00021a40 0000000bH .text$_ZNSt3__122__compressed_pair_elemINS_9allocatorINS_7__stateIcEEEELi1ELb1EE5__getB6v15007Ev CODE
 0001:00021a50 00000016H .text$_ZNSt3__16vectorINS_7__stateIcEENS_9allocatorIS2_EEE21_ConstructTransactionD2Ev CODE
 0001:00021a70 000000a0H .text$_ZNKSt3__16vectorINS_7__stateIcEENS_9allocatorIS2_EEE11__recommendB6v15007Ey CODE
 0001:00021b10 0000001fH .text$_ZNKSt3__16vectorINS_7__stateIcEENS_9allocatorIS2_EEE4sizeB6v15007Ev CODE
 0001:00021b30 00000037H .text$_ZNSt3__114__split_bufferINS_7__stateIcEERNS_9allocatorIS2_EEEC1EyyS5_ CODE
 0001:00021b70 0000014cH .text$_ZNSt3__16vectorINS_7__stateIcEENS_9allocatorIS2_EEE26__swap_out_circular_bufferERNS_14__split_bufferIS2_RS4_EE CODE
 0001:00021cc0 00000019H .text$_ZNSt3__114__split_bufferINS_7__stateIcEERNS_9allocatorIS2_EEED1Ev CODE
 0001:00021ce0 00000059H .text$_ZNKSt3__16vectorINS_7__stateIcEENS_9allocatorIS2_EEE8max_sizeEv CODE
 0001:00021d40 00000016H .text$_ZNKSt3__16vectorINS_7__stateIcEENS_9allocatorIS2_EEE20__throw_length_errorB6v15007Ev CODE
 0001:00021d60 00000035H .text$_ZNKSt3__16vectorINS_7__stateIcEENS_9allocatorIS2_EEE8capacityB6v15007Ev CODE
 0001:00021da0 00000019H .text$_ZNSt3__116allocator_traitsINS_9allocatorINS_7__stateIcEEEEE8max_sizeB6v15007IS4_vEEyRKS4_ CODE
 0001:00021dc0 0000001dH .text$_ZNKSt3__16vectorINS_7__stateIcEENS_9allocatorIS2_EEE7__allocB6v15007Ev CODE
 0001:00021de0 00000011H .text$_ZNKSt3__19allocatorINS_7__stateIcEEE8max_sizeB6v15007Ev CODE
 0001:00021e00 00000019H .text$_ZNKSt3__117__compressed_pairIPNS_7__stateIcEENS_9allocatorIS2_EEE6secondB6v15007Ev CODE
 0001:00021e20 0000000bH .text$_ZNKSt3__122__compressed_pair_elemINS_9allocatorINS_7__stateIcEEEELi1ELb1EE5__getB6v15007Ev CODE
 0001:00021e30 0000001dH .text$_ZNKSt3__16vectorINS_7__stateIcEENS_9allocatorIS2_EEE9__end_capB6v15007Ev CODE
 0001:00021e50 00000019H .text$_ZNKSt3__117__compressed_pairIPNS_7__stateIcEENS_9allocatorIS2_EEE5firstB6v15007Ev CODE
 0001:00021e70 0000000bH .text$_ZNKSt3__122__compressed_pair_elemIPNS_7__stateIcEELi0ELb0EE5__getB6v15007Ev CODE
 0001:00021e80 000000caH .text$_ZNSt3__114__split_bufferINS_7__stateIcEERNS_9allocatorIS2_EEEC2EyyS5_ CODE
 0001:00021f50 0000002dH .text$_ZNSt3__117__compressed_pairIPNS_7__stateIcEERNS_9allocatorIS2_EEEC1B6v15007IDnS6_EEOT_OT0_ CODE
 0001:00021f80 0000004dH .text$_ZNSt3__119__allocate_at_leastB6v15007INS_9allocatorINS_7__stateIcEEEEEENS_19__allocation_resultINS_16allocator_traitsIT_E7pointerEEERS7_y CODE
 0001:00021fd0 0000001dH .text$_ZNSt3__114__split_bufferINS_7__stateIcEERNS_9allocatorIS2_EEE7__allocB6v15007Ev CODE
 0001:00021ff0 0000001dH .text$_ZNSt3__114__split_bufferINS_7__stateIcEERNS_9allocatorIS2_EEE9__end_capB6v15007Ev CODE
 0001:00022010 00000040H .text$_ZNSt3__117__compressed_pairIPNS_7__stateIcEERNS_9allocatorIS2_EEEC2B6v15007IDnS6_EEOT_OT0_ CODE
 0001:00022050 0000001eH .text$_ZNSt3__122__compressed_pair_elemIRNS_9allocatorINS_7__stateIcEEEELi1ELb0EEC2B6v15007IS5_vEEOT_ CODE
 0001:00022070 0000004eH .text$_ZNSt3__19allocatorINS_7__stateIcEEE8allocateB6v15007Ey CODE
 0001:000220c0 0000001dH .text$_ZNSt3__117__compressed_pairIPNS_7__stateIcEERNS_9allocatorIS2_EEE6secondB6v15007Ev CODE
 0001:000220e0 0000000eH .text$_ZNSt3__122__compressed_pair_elemIRNS_9allocatorINS_7__stateIcEEEELi1ELb0EE5__getB6v15007Ev CODE
 0001:000220f0 00000019H .text$_ZNSt3__117__compressed_pairIPNS_7__stateIcEERNS_9allocatorIS2_EEE5firstB6v15007Ev CODE
 0001:00022110 000000c3H .text$_ZNKSt3__16vectorINS_7__stateIcEENS_9allocatorIS2_EEE17__annotate_deleteB6v15007Ev CODE
 0001:000221e0 000001a8H .text$_ZNSt3__142__uninitialized_allocator_move_if_noexceptB6v15007INS_9allocatorINS_7__stateIcEEEENS_16reverse_iteratorIPS3_EES7_S7_EET2_RT_T0_T1_S8_ CODE
 0001:00022390 00000023H .text$_ZNSt3__116reverse_iteratorIPNS_7__stateIcEEEC1B6v15007ES3_ CODE
 0001:000223c0 0000000fH .text$_ZNKSt3__116reverse_iteratorIPNS_7__stateIcEEE4baseB6v15007Ev CODE
 0001:000223d0 0000003bH .text$_ZNSt3__14swapB6v15007IPNS_7__stateIcEEEENS_9enable_ifIXaasr21is_move_constructibleIT_EE5valuesr18is_move_assignableIS5_EE5valueEvE4typeERS5_S8_ CODE
 0001:00022410 000000b3H .text$_ZNKSt3__16vectorINS_7__stateIcEENS_9allocatorIS2_EEE14__annotate_newB6v15007Ey CODE
 0001:000224d0 00000007H .text$_ZNSt3__125__debug_db_invalidate_allB6v15007INS_6vectorINS_7__stateIcEENS_9allocatorIS3_EEEEEEvPT_ CODE
 0001:000224e0 00000021H .text$_ZNKSt3__16vectorINS_7__stateIcEENS_9allocatorIS2_EEE31__annotate_contiguous_containerB6v15007EPKvS7_S7_S7_ CODE
 0001:00022510 0000001cH .text$_ZNKSt3__16vectorINS_7__stateIcEENS_9allocatorIS2_EEE4dataB6v15007Ev CODE
 0001:00022530 0000003fH .text$_ZNSt3__1neB6v15007IPNS_7__stateIcEES3_EEbRKNS_16reverse_iteratorIT_EERKNS4_IT0_EE CODE
 0001:00022570 00000019H .text$_ZNSt3__112__to_addressB6v15007INS_16reverse_iteratorIPNS_7__stateIcEEEEvEENS_5decayIDTclsr19__to_address_helperIT_EE6__callcl7declvalIRKS7_EEEEE4typeES9_ CODE
 0001:00022590 00000027H .text$_ZNKSt3__116reverse_iteratorIPNS_7__stateIcEEEdeB6v15007Ev CODE
 0001:000225c0 00000017H .text$_ZNSt3__116reverse_iteratorIPNS_7__stateIcEEEppB6v15007Ev CODE
 0001:000225e0 00000037H .text$_ZNSt3__129_AllocatorDestroyRangeReverseINS_9allocatorINS_7__stateIcEEEENS_16reverse_iteratorIPS3_EEEC1B6v15007ERS4_RS7_SA_ CODE
 0001:00022620 0000008eH .text$_ZNKSt3__129_AllocatorDestroyRangeReverseINS_9allocatorINS_7__stateIcEEEENS_16reverse_iteratorIPS3_EEEclB6v15007Ev CODE
 0001:000226b0 00000036H .text$_ZNSt3__119__to_address_helperINS_16reverse_iteratorIPNS_7__stateIcEEEEvE6__callB6v15007ERKS5_ CODE
 0001:000226f0 00000019H .text$_ZNKSt3__116reverse_iteratorIPNS_7__stateIcEEEptB6v15007Ev CODE
 0001:00022710 0000003aH .text$_ZNSt3__129_AllocatorDestroyRangeReverseINS_9allocatorINS_7__stateIcEEEENS_16reverse_iteratorIPS3_EEEC2B6v15007ERS4_RS7_SA_ CODE
 0001:00022750 00000064H .text$_ZNSt3__119__allocator_destroyB6v15007INS_9allocatorINS_7__stateIcEEEENS_16reverse_iteratorINS5_IPS3_EEEES8_EEvRT_T0_T1_ CODE
 0001:000227c0 00000019H .text$_ZNSt3__116reverse_iteratorINS0_IPNS_7__stateIcEEEEEC1B6v15007ES4_ CODE
 0001:000227e0 00000045H .text$_ZNSt3__1neB6v15007INS_16reverse_iteratorIPNS_7__stateIcEEEES5_EEbRKNS1_IT_EERKNS1_IT0_EE CODE
 0001:00022830 00000023H .text$_ZNSt3__116allocator_traitsINS_9allocatorINS_7__stateIcEEEEE7destroyB6v15007IS3_vEEvRS4_PT_ CODE
 0001:00022860 00000019H .text$_ZNSt3__112__to_addressB6v15007INS_16reverse_iteratorINS1_IPNS_7__stateIcEEEEEEvEENS_5decayIDTclsr19__to_address_helperIT_EE6__callcl7declvalIRKS8_EEEEE4typeESA_ CODE
 0001:00022880 00000026H .text$_ZNSt3__116reverse_iteratorINS0_IPNS_7__stateIcEEEEEppB6v15007Ev CODE
 0001:000228b0 00000028H .text$_ZNKSt3__116reverse_iteratorINS0_IPNS_7__stateIcEEEEE4baseB6v15007Ev CODE
 0001:000228e0 0000001eH .text$_ZNSt3__19allocatorINS_7__stateIcEEE7destroyB6v15007EPS2_ CODE
 0001:00022900 00000036H .text$_ZNSt3__119__to_address_helperINS_16reverse_iteratorINS1_IPNS_7__stateIcEEEEEEvE6__callB6v15007ERKS6_ CODE
 0001:00022940 00000019H .text$_ZNKSt3__116reverse_iteratorINS0_IPNS_7__stateIcEEEEEptB6v15007Ev CODE
 0001:00022960 00000038H .text$_ZNKSt3__116reverse_iteratorINS0_IPNS_7__stateIcEEEEEdeB6v15007Ev CODE
 0001:000229a0 00000017H .text$_ZNSt3__116reverse_iteratorIPNS_7__stateIcEEEmmB6v15007Ev CODE
 0001:000229c0 00000029H .text$_ZNSt3__116reverse_iteratorINS0_IPNS_7__stateIcEEEEEC2B6v15007ES4_ CODE
 0001:000229f0 00000026H .text$_ZNSt3__116reverse_iteratorIPNS_7__stateIcEEEC2B6v15007ES3_ CODE
 0001:00022a20 00000075H .text$_ZNSt3__114__split_bufferINS_7__stateIcEERNS_9allocatorIS2_EEED2Ev CODE
 0001:00022aa0 0000001dH .text$_ZNSt3__114__split_bufferINS_7__stateIcEERNS_9allocatorIS2_EEE5clearB6v15007Ev CODE
 0001:00022ac0 0000002dH .text$_ZNSt3__116allocator_traitsINS_9allocatorINS_7__stateIcEEEEE10deallocateB6v15007ERS4_PS3_y CODE
 0001:00022af0 00000035H .text$_ZNKSt3__114__split_bufferINS_7__stateIcEERNS_9allocatorIS2_EEE8capacityB6v15007Ev CODE
 0001:00022b30 00000028H .text$_ZNSt3__114__split_bufferINS_7__stateIcEERNS_9allocatorIS2_EEE17__destruct_at_endB6v15007EPS2_ CODE
 0001:00022b60 0000007eH .text$_ZNSt3__114__split_bufferINS_7__stateIcEERNS_9allocatorIS2_EEE17__destruct_at_endB6v15007EPS2_NS_17integral_constantIbLb0EEE CODE
 0001:00022be0 00000043H .text$_ZNSt3__19allocatorINS_7__stateIcEEE10deallocateB6v15007EPS2_y CODE
 0001:00022c30 0000001dH .text$_ZNKSt3__114__split_bufferINS_7__stateIcEERNS_9allocatorIS2_EEE9__end_capB6v15007Ev CODE
 0001:00022c50 00000019H .text$_ZNKSt3__117__compressed_pairIPNS_7__stateIcEERNS_9allocatorIS2_EEE5firstB6v15007Ev CODE
 0001:00022c70 00000061H .text$_ZNSt3__17__stateIcEC2B6v15007Ev CODE
 0001:00022ce0 00000019H .text$_ZNSt3__16vectorINS_9sub_matchIPKcEENS_9allocatorIS4_EEEC1B6v15007Ev CODE
 0001:00022d00 00000019H .text$_ZNSt3__16vectorINS_4pairIyPKcEENS_9allocatorIS4_EEEC1B6v15007Ev CODE
 0001:00022d20 0000005cH .text$_ZNSt3__16vectorINS_9sub_matchIPKcEENS_9allocatorIS4_EEEC2B6v15007Ev CODE
 0001:00022d80 0000002dH .text$_ZNSt3__117__compressed_pairIPNS_9sub_matchIPKcEENS_9allocatorIS4_EEEC1B6v15007IDnNS_18__default_init_tagEEEOT_OT0_ CODE
 0001:00022db0 0000003bH .text$_ZNSt3__117__compressed_pairIPNS_9sub_matchIPKcEENS_9allocatorIS4_EEEC2B6v15007IDnNS_18__default_init_tagEEEOT_OT0_ CODE
 0001:00022df0 0000001dH .text$_ZNSt3__122__compressed_pair_elemINS_9allocatorINS_9sub_matchIPKcEEEELi1ELb1EEC2B6v15007ENS_18__default_init_tagE CODE
 0001:00022e10 0000005cH .text$_ZNSt3__16vectorINS_4pairIyPKcEENS_9allocatorIS4_EEEC2B6v15007Ev CODE
 0001:00022e70 0000002dH .text$_ZNSt3__117__compressed_pairIPNS_4pairIyPKcEENS_9allocatorIS4_EEEC1B6v15007IDnNS_18__default_init_tagEEEOT_OT0_ CODE
 0001:00022ea0 0000003bH .text$_ZNSt3__117__compressed_pairIPNS_4pairIyPKcEENS_9allocatorIS4_EEEC2B6v15007IDnNS_18__default_init_tagEEEOT_OT0_ CODE
 0001:00022ee0 0000001dH .text$_ZNSt3__122__compressed_pair_elemINS_9allocatorINS_4pairIyPKcEEEELi1ELb1EEC2B6v15007ENS_18__default_init_tagE CODE
 0001:00022f00 00000019H .text$_ZNSt3__19allocatorINS_4pairIyPKcEEEC2B6v15007Ev CODE
 0001:00022f20 00000007H .text$_ZNSt3__116__non_trivial_ifILb1ENS_9allocatorINS_4pairIyPKcEEEEEC2B6v15007Ev CODE
 0001:00022f30 00000030H .text$_ZNSt3__17__stateIcED2Ev CODE
 0001:00022f60 00000019H .text$_ZNSt3__16vectorINS_4pairIyPKcEENS_9allocatorIS4_EEED1B6v15007Ev CODE
 0001:00022f80 0000003aH .text$_ZNSt3__16vectorINS_4pairIyPKcEENS_9allocatorIS4_EEED2B6v15007Ev CODE
 0001:00022fc0 00000023H .text$_ZNSt3__16vectorINS_4pairIyPKcEENS_9allocatorIS4_EEE16__destroy_vectorC1ERS7_ CODE
 0001:00022ff0 0000008cH .text$_ZNSt3__16vectorINS_4pairIyPKcEENS_9allocatorIS4_EEE16__destroy_vectorclB6v15007Ev CODE
 0001:00023080 0000001eH .text$_ZNSt3__16vectorINS_4pairIyPKcEENS_9allocatorIS4_EEE16__destroy_vectorC2ERS7_ CODE
 0001:000230a0 000000c3H .text$_ZNKSt3__16vectorINS_4pairIyPKcEENS_9allocatorIS4_EEE17__annotate_deleteB6v15007Ev CODE
 0001:00023170 00000007H .text$_ZNSt3__118__debug_db_erase_cB6v15007INS_6vectorINS_4pairIyPKcEENS_9allocatorIS5_EEEEEEvPT_ CODE
 0001:00023180 0000001cH .text$_ZNSt3__16vectorINS_4pairIyPKcEENS_9allocatorIS4_EEE7__clearB6v15007Ev CODE
 0001:000231a0 0000002dH .text$_ZNSt3__116allocator_traitsINS_9allocatorINS_4pairIyPKcEEEEE10deallocateB6v15007ERS6_PS5_y CODE
 0001:000231d0 0000002fH .text$_ZNKSt3__16vectorINS_4pairIyPKcEENS_9allocatorIS4_EEE8capacityB6v15007Ev CODE
 0001:00023200 00000021H .text$_ZNKSt3__16vectorINS_4pairIyPKcEENS_9allocatorIS4_EEE31__annotate_contiguous_containerB6v15007EPKvS9_S9_S9_ CODE
 0001:00023230 0000001cH .text$_ZNKSt3__16vectorINS_4pairIyPKcEENS_9allocatorIS4_EEE4dataB6v15007Ev CODE
 0001:00023250 00000019H .text$_ZNKSt3__16vectorINS_4pairIyPKcEENS_9allocatorIS4_EEE4sizeB6v15007Ev CODE
 0001:00023270 0000000bH .text$_ZNSt3__112__to_addressB6v15007INS_4pairIyPKcEEEEPT_S6_ CODE
 0001:00023280 00000086H .text$_ZNSt3__16vectorINS_4pairIyPKcEENS_9allocatorIS4_EEE22__base_destruct_at_endB6v15007EPS4_ CODE
 0001:00023310 00000023H .text$_ZNSt3__116allocator_traitsINS_9allocatorINS_4pairIyPKcEEEEE7destroyB6v15007IS5_vEEvRS6_PT_ CODE
 0001:00023340 00000012H .text$_ZNSt3__19allocatorINS_4pairIyPKcEEE7destroyB6v15007EPS4_ CODE
 0001:00023360 0000003fH .text$_ZNSt3__19allocatorINS_4pairIyPKcEEE10deallocateB6v15007EPS4_y CODE
 0001:000233a0 0000001dH .text$_ZNKSt3__16vectorINS_4pairIyPKcEENS_9allocatorIS4_EEE9__end_capB6v15007Ev CODE
 0001:000233c0 00000019H .text$_ZNKSt3__117__compressed_pairIPNS_4pairIyPKcEENS_9allocatorIS4_EEE5firstB6v15007Ev CODE
 0001:000233e0 0000000bH .text$_ZNKSt3__122__compressed_pair_elemIPNS_4pairIyPKcEELi0ELb0EE5__getB6v15007Ev CODE
 0001:000233f0 00000145H .text$_ZNSt3__16vectorINS_9sub_matchIPKcEENS_9allocatorIS4_EEE8__appendEyRKS4_ CODE
 0001:00023540 00000037H .text$_ZNSt3__114__split_bufferINS_9sub_matchIPKcEERNS_9allocatorIS4_EEEC1EyyS7_ CODE
 0001:00023580 000000c0H .text$_ZNSt3__114__split_bufferINS_9sub_matchIPKcEERNS_9allocatorIS4_EEE18__construct_at_endEyRKS4_ CODE
 0001:00023640 0000014cH .text$_ZNSt3__16vectorINS_9sub_matchIPKcEENS_9allocatorIS4_EEE26__swap_out_circular_bufferERNS_14__split_bufferIS4_RS6_EE CODE
 0001:00023790 00000019H .text$_ZNSt3__114__split_bufferINS_9sub_matchIPKcEERNS_9allocatorIS4_EEED1Ev CODE
 0001:000237b0 000000caH .text$_ZNSt3__114__split_bufferINS_9sub_matchIPKcEERNS_9allocatorIS4_EEEC2EyyS7_ CODE
 0001:00023880 0000002dH .text$_ZNSt3__117__compressed_pairIPNS_9sub_matchIPKcEERNS_9allocatorIS4_EEEC1B6v15007IDnS8_EEOT_OT0_ CODE
 0001:000238b0 0000001dH .text$_ZNSt3__114__split_bufferINS_9sub_matchIPKcEERNS_9allocatorIS4_EEE7__allocB6v15007Ev CODE
 0001:000238d0 0000001dH .text$_ZNSt3__114__split_bufferINS_9sub_matchIPKcEERNS_9allocatorIS4_EEE9__end_capB6v15007Ev CODE
 0001:000238f0 00000040H .text$_ZNSt3__117__compressed_pairIPNS_9sub_matchIPKcEERNS_9allocatorIS4_EEEC2B6v15007IDnS8_EEOT_OT0_ CODE
 0001:00023930 0000001eH .text$_ZNSt3__122__compressed_pair_elemIRNS_9allocatorINS_9sub_matchIPKcEEEELi1ELb0EEC2B6v15007IS7_vEEOT_ CODE
 0001:00023950 0000001dH .text$_ZNSt3__117__compressed_pairIPNS_9sub_matchIPKcEERNS_9allocatorIS4_EEE6secondB6v15007Ev CODE
 0001:00023970 0000000eH .text$_ZNSt3__122__compressed_pair_elemIRNS_9allocatorINS_9sub_matchIPKcEEEELi1ELb0EE5__getB6v15007Ev CODE
 0001:00023980 00000019H .text$_ZNSt3__117__compressed_pairIPNS_9sub_matchIPKcEERNS_9allocatorIS4_EEE5firstB6v15007Ev CODE
 0001:000239a0 0000002dH .text$_ZNSt3__114__split_bufferINS_9sub_matchIPKcEERNS_9allocatorIS4_EEE21_ConstructTransactionC1EPPS4_y CODE
 0001:000239d0 00000019H .text$_ZNSt3__114__split_bufferINS_9sub_matchIPKcEERNS_9allocatorIS4_EEE21_ConstructTransactionD1Ev CODE
 0001:000239f0 00000044H .text$_ZNSt3__114__split_bufferINS_9sub_matchIPKcEERNS_9allocatorIS4_EEE21_ConstructTransactionC2EPPS4_y CODE
 0001:00023a40 00000015H .text$_ZNSt3__114__split_bufferINS_9sub_matchIPKcEERNS_9allocatorIS4_EEE21_ConstructTransactionD2Ev CODE
 0001:00023a60 000001a8H .text$_ZNSt3__142__uninitialized_allocator_move_if_noexceptB6v15007INS_9allocatorINS_9sub_matchIPKcEEEENS_16reverse_iteratorIPS5_EES9_S9_EET2_RT_T0_T1_SA_ CODE
 0001:00023c10 00000023H .text$_ZNSt3__116reverse_iteratorIPNS_9sub_matchIPKcEEEC1B6v15007ES5_ CODE
 0001:00023c40 0000000fH .text$_ZNKSt3__116reverse_iteratorIPNS_9sub_matchIPKcEEE4baseB6v15007Ev CODE
 0001:00023c50 0000003bH .text$_ZNSt3__14swapB6v15007IPNS_9sub_matchIPKcEEEENS_9enable_ifIXaasr21is_move_constructibleIT_EE5valuesr18is_move_assignableIS7_EE5valueEvE4typeERS7_SA_ CODE
 0001:00023c90 0000003fH .text$_ZNSt3__1neB6v15007IPNS_9sub_matchIPKcEES5_EEbRKNS_16reverse_iteratorIT_EERKNS6_IT0_EE CODE
 0001:00023cd0 0000002dH .text$_ZNSt3__116allocator_traitsINS_9allocatorINS_9sub_matchIPKcEEEEE9constructB6v15007IS5_JS5_EvEEvRS6_PT_DpOT0_ CODE
 0001:00023d00 00000019H .text$_ZNSt3__112__to_addressB6v15007INS_16reverse_iteratorIPNS_9sub_matchIPKcEEEEvEENS_5decayIDTclsr19__to_address_helperIT_EE6__callcl7declvalIRKS9_EEEEE4typeESB_ CODE
 0001:00023d20 00000027H .text$_ZNKSt3__116reverse_iteratorIPNS_9sub_matchIPKcEEEdeB6v15007Ev CODE
 0001:00023d50 00000017H .text$_ZNSt3__116reverse_iteratorIPNS_9sub_matchIPKcEEEppB6v15007Ev CODE
 0001:00023d70 00000037H .text$_ZNSt3__129_AllocatorDestroyRangeReverseINS_9allocatorINS_9sub_matchIPKcEEEENS_16reverse_iteratorIPS5_EEEC1B6v15007ERS6_RS9_SC_ CODE
 0001:00023db0 0000008eH .text$_ZNKSt3__129_AllocatorDestroyRangeReverseINS_9allocatorINS_9sub_matchIPKcEEEENS_16reverse_iteratorIPS5_EEEclB6v15007Ev CODE
 0001:00023e40 00000036H .text$_ZNSt3__19allocatorINS_9sub_matchIPKcEEE9constructB6v15007IS4_JS4_EEEvPT_DpOT0_ CODE
 0001:00023e80 00000036H .text$_ZNSt3__119__to_address_helperINS_16reverse_iteratorIPNS_9sub_matchIPKcEEEEvE6__callB6v15007ERKS7_ CODE
 0001:00023ec0 00000019H .text$_ZNKSt3__116reverse_iteratorIPNS_9sub_matchIPKcEEEptB6v15007Ev CODE
 0001:00023ee0 0000003aH .text$_ZNSt3__129_AllocatorDestroyRangeReverseINS_9allocatorINS_9sub_matchIPKcEEEENS_16reverse_iteratorIPS5_EEEC2B6v15007ERS6_RS9_SC_ CODE
 0001:00023f20 00000064H .text$_ZNSt3__119__allocator_destroyB6v15007INS_9allocatorINS_9sub_matchIPKcEEEENS_16reverse_iteratorINS7_IPS5_EEEESA_EEvRT_T0_T1_ CODE
 0001:00023f90 00000019H .text$_ZNSt3__116reverse_iteratorINS0_IPNS_9sub_matchIPKcEEEEEC1B6v15007ES6_ CODE
 0001:00023fb0 00000045H .text$_ZNSt3__1neB6v15007INS_16reverse_iteratorIPNS_9sub_matchIPKcEEEES7_EEbRKNS1_IT_EERKNS1_IT0_EE CODE
 0001:00024000 00000019H .text$_ZNSt3__112__to_addressB6v15007INS_16reverse_iteratorINS1_IPNS_9sub_matchIPKcEEEEEEvEENS_5decayIDTclsr19__to_address_helperIT_EE6__callcl7declvalIRKSA_EEEEE4typeESC_ CODE
 0001:00024020 00000026H .text$_ZNSt3__116reverse_iteratorINS0_IPNS_9sub_matchIPKcEEEEEppB6v15007Ev CODE
 0001:00024050 00000028H .text$_ZNKSt3__116reverse_iteratorINS0_IPNS_9sub_matchIPKcEEEEE4baseB6v15007Ev CODE
 0001:00024080 00000036H .text$_ZNSt3__119__to_address_helperINS_16reverse_iteratorINS1_IPNS_9sub_matchIPKcEEEEEEvE6__callB6v15007ERKS8_ CODE
 0001:000240c0 00000019H .text$_ZNKSt3__116reverse_iteratorINS0_IPNS_9sub_matchIPKcEEEEEptB6v15007Ev CODE
 0001:000240e0 00000038H .text$_ZNKSt3__116reverse_iteratorINS0_IPNS_9sub_matchIPKcEEEEEdeB6v15007Ev CODE
 0001:00024120 00000017H .text$_ZNSt3__116reverse_iteratorIPNS_9sub_matchIPKcEEEmmB6v15007Ev CODE
 0001:00024140 00000029H .text$_ZNSt3__116reverse_iteratorINS0_IPNS_9sub_matchIPKcEEEEEC2B6v15007ES6_ CODE
 0001:00024170 00000026H .text$_ZNSt3__116reverse_iteratorIPNS_9sub_matchIPKcEEEC2B6v15007ES5_ CODE
 0001:000241a0 00000075H .text$_ZNSt3__114__split_bufferINS_9sub_matchIPKcEERNS_9allocatorIS4_EEED2Ev CODE
 0001:00024220 0000001dH .text$_ZNSt3__114__split_bufferINS_9sub_matchIPKcEERNS_9allocatorIS4_EEE5clearB6v15007Ev CODE
 0001:00024240 00000035H .text$_ZNKSt3__114__split_bufferINS_9sub_matchIPKcEERNS_9allocatorIS4_EEE8capacityB6v15007Ev CODE
 0001:00024280 00000028H .text$_ZNSt3__114__split_bufferINS_9sub_matchIPKcEERNS_9allocatorIS4_EEE17__destruct_at_endB6v15007EPS4_ CODE
 0001:000242b0 0000007eH .text$_ZNSt3__114__split_bufferINS_9sub_matchIPKcEERNS_9allocatorIS4_EEE17__destruct_at_endB6v15007EPS4_NS_17integral_constantIbLb0EEE CODE
 0001:00024330 0000001dH .text$_ZNKSt3__114__split_bufferINS_9sub_matchIPKcEERNS_9allocatorIS4_EEE9__end_capB6v15007Ev CODE
 0001:00024350 00000019H .text$_ZNKSt3__117__compressed_pairIPNS_9sub_matchIPKcEERNS_9allocatorIS4_EEE5firstB6v15007Ev CODE
 0001:00024370 00000118H .text$_ZNSt3__16vectorINS_4pairIyPKcEENS_9allocatorIS4_EEE8__appendEy CODE
 0001:00024490 00000063H .text$_ZNSt3__16vectorINS_4pairIyPKcEENS_9allocatorIS4_EEE17__destruct_at_endB6v15007EPS4_ CODE
 0001:00024500 000000cbH .text$_ZNSt3__16vectorINS_4pairIyPKcEENS_9allocatorIS4_EEE18__construct_at_endEy CODE
 0001:000245d0 000000a0H .text$_ZNKSt3__16vectorINS_4pairIyPKcEENS_9allocatorIS4_EEE11__recommendB6v15007Ey CODE
 0001:00024670 00000037H .text$_ZNSt3__114__split_bufferINS_4pairIyPKcEERNS_9allocatorIS4_EEEC1EyyS7_ CODE
 0001:000246b0 000000b6H .text$_ZNSt3__114__split_bufferINS_4pairIyPKcEERNS_9allocatorIS4_EEE18__construct_at_endEy CODE
 0001:00024770 0000014cH .text$_ZNSt3__16vectorINS_4pairIyPKcEENS_9allocatorIS4_EEE26__swap_out_circular_bufferERNS_14__split_bufferIS4_RS6_EE CODE
 0001:000248c0 00000019H .text$_ZNSt3__114__split_bufferINS_4pairIyPKcEERNS_9allocatorIS4_EEED1Ev CODE
 0001:000248e0 0000002dH .text$_ZNSt3__16vectorINS_4pairIyPKcEENS_9allocatorIS4_EEE21_ConstructTransactionC1ERS7_y CODE
 0001:00024910 00000023H .text$_ZNSt3__116allocator_traitsINS_9allocatorINS_4pairIyPKcEEEEE9constructB6v15007IS5_JEvEEvRS6_PT_DpOT0_ CODE
 0001:00024940 00000019H .text$_ZNSt3__16vectorINS_4pairIyPKcEENS_9allocatorIS4_EEE21_ConstructTransactionD1Ev CODE
 0001:00024960 00000049H .text$_ZNSt3__16vectorINS_4pairIyPKcEENS_9allocatorIS4_EEE21_ConstructTransactionC2ERS7_y CODE
 0001:000249b0 0000001eH .text$_ZNSt3__19allocatorINS_4pairIyPKcEEE9constructB6v15007IS4_JEEEvPT_DpOT0_ CODE
 0001:000249d0 00000019H .text$_ZNSt3__14pairIyPKcEC1B6v15007ILb1ELPv0EEEv CODE
 0001:000249f0 0000001aH .text$_ZNSt3__14pairIyPKcEC2B6v15007ILb1ELPv0EEEv CODE
 0001:00024a10 00000016H .text$_ZNSt3__16vectorINS_4pairIyPKcEENS_9allocatorIS4_EEE21_ConstructTransactionD2Ev CODE
 0001:00024a30 00000059H .text$_ZNKSt3__16vectorINS_4pairIyPKcEENS_9allocatorIS4_EEE8max_sizeEv CODE
 0001:00024a90 00000016H .text$_ZNKSt3__16vectorINS_4pairIyPKcEENS_9allocatorIS4_EEE20__throw_length_errorB6v15007Ev CODE
 0001:00024ab0 00000019H .text$_ZNSt3__116allocator_traitsINS_9allocatorINS_4pairIyPKcEEEEE8max_sizeB6v15007IS6_vEEyRKS6_ CODE
 0001:00024ad0 0000001dH .text$_ZNKSt3__16vectorINS_4pairIyPKcEENS_9allocatorIS4_EEE7__allocB6v15007Ev CODE
 0001:00024af0 00000011H .text$_ZNKSt3__19allocatorINS_4pairIyPKcEEE8max_sizeB6v15007Ev CODE
 0001:00024b10 00000019H .text$_ZNKSt3__117__compressed_pairIPNS_4pairIyPKcEENS_9allocatorIS4_EEE6secondB6v15007Ev CODE
 0001:00024b30 0000000bH .text$_ZNKSt3__122__compressed_pair_elemINS_9allocatorINS_4pairIyPKcEEEELi1ELb1EE5__getB6v15007Ev CODE
 0001:00024b40 000000d0H .text$_ZNSt3__114__split_bufferINS_4pairIyPKcEERNS_9allocatorIS4_EEEC2EyyS7_ CODE
 0001:00024c10 0000002dH .text$_ZNSt3__117__compressed_pairIPNS_4pairIyPKcEERNS_9allocatorIS4_EEEC1B6v15007IDnS8_EEOT_OT0_ CODE
 0001:00024c40 0000004dH .text$_ZNSt3__119__allocate_at_leastB6v15007INS_9allocatorINS_4pairIyPKcEEEEEENS_19__allocation_resultINS_16allocator_traitsIT_E7pointerEEERS9_y CODE
 0001:00024c90 0000001dH .text$_ZNSt3__114__split_bufferINS_4pairIyPKcEERNS_9allocatorIS4_EEE7__allocB6v15007Ev CODE
 0001:00024cb0 0000001dH .text$_ZNSt3__114__split_bufferINS_4pairIyPKcEERNS_9allocatorIS4_EEE9__end_capB6v15007Ev CODE
 0001:00024cd0 00000040H .text$_ZNSt3__117__compressed_pairIPNS_4pairIyPKcEERNS_9allocatorIS4_EEEC2B6v15007IDnS8_EEOT_OT0_ CODE
 0001:00024d10 0000001eH .text$_ZNSt3__122__compressed_pair_elemIRNS_9allocatorINS_4pairIyPKcEEEELi1ELb0EEC2B6v15007IS7_vEEOT_ CODE
 0001:00024d30 00000051H .text$_ZNSt3__19allocatorINS_4pairIyPKcEEE8allocateB6v15007Ey CODE
 0001:00024d90 0000001dH .text$_ZNSt3__117__compressed_pairIPNS_4pairIyPKcEERNS_9allocatorIS4_EEE6secondB6v15007Ev CODE
 0001:00024db0 0000000eH .text$_ZNSt3__122__compressed_pair_elemIRNS_9allocatorINS_4pairIyPKcEEEELi1ELb0EE5__getB6v15007Ev CODE
 0001:00024dc0 00000019H .text$_ZNSt3__117__compressed_pairIPNS_4pairIyPKcEERNS_9allocatorIS4_EEE5firstB6v15007Ev CODE
 0001:00024de0 0000002dH .text$_ZNSt3__114__split_bufferINS_4pairIyPKcEERNS_9allocatorIS4_EEE21_ConstructTransactionC1EPPS4_y CODE
 0001:00024e10 00000019H .text$_ZNSt3__114__split_bufferINS_4pairIyPKcEERNS_9allocatorIS4_EEE21_ConstructTransactionD1Ev CODE
 0001:00024e30 00000047H .text$_ZNSt3__114__split_bufferINS_4pairIyPKcEERNS_9allocatorIS4_EEE21_ConstructTransactionC2EPPS4_y CODE
 0001:00024e80 00000015H .text$_ZNSt3__114__split_bufferINS_4pairIyPKcEERNS_9allocatorIS4_EEE21_ConstructTransactionD2Ev CODE
 0001:00024ea0 000001a8H .text$_ZNSt3__142__uninitialized_allocator_move_if_noexceptB6v15007INS_9allocatorINS_4pairIyPKcEEEENS_16reverse_iteratorIPS5_EES9_S9_EET2_RT_T0_T1_SA_ CODE
 0001:00025050 00000023H .text$_ZNSt3__116reverse_iteratorIPNS_4pairIyPKcEEEC1B6v15007ES5_ CODE
 0001:00025080 0000000fH .text$_ZNKSt3__116reverse_iteratorIPNS_4pairIyPKcEEE4baseB6v15007Ev CODE
 0001:00025090 0000003bH .text$_ZNSt3__14swapB6v15007IPNS_4pairIyPKcEEEENS_9enable_ifIXaasr21is_move_constructibleIT_EE5valuesr18is_move_assignableIS7_EE5valueEvE4typeERS7_SA_ CODE
 0001:000250d0 000000b6H .text$_ZNKSt3__16vectorINS_4pairIyPKcEENS_9allocatorIS4_EEE14__annotate_newB6v15007Ey CODE
 0001:00025190 00000007H .text$_ZNSt3__125__debug_db_invalidate_allB6v15007INS_6vectorINS_4pairIyPKcEENS_9allocatorIS5_EEEEEEvPT_ CODE
 0001:000251a0 0000003fH .text$_ZNSt3__1neB6v15007IPNS_4pairIyPKcEES5_EEbRKNS_16reverse_iteratorIT_EERKNS6_IT0_EE CODE
 0001:000251e0 0000002dH .text$_ZNSt3__116allocator_traitsINS_9allocatorINS_4pairIyPKcEEEEE9constructB6v15007IS5_JS5_EvEEvRS6_PT_DpOT0_ CODE
 0001:00025210 00000019H .text$_ZNSt3__112__to_addressB6v15007INS_16reverse_iteratorIPNS_4pairIyPKcEEEEvEENS_5decayIDTclsr19__to_address_helperIT_EE6__callcl7declvalIRKS9_EEEEE4typeESB_ CODE
 0001:00025230 00000027H .text$_ZNKSt3__116reverse_iteratorIPNS_4pairIyPKcEEEdeB6v15007Ev CODE
 0001:00025260 00000017H .text$_ZNSt3__116reverse_iteratorIPNS_4pairIyPKcEEEppB6v15007Ev CODE
 0001:00025280 00000037H .text$_ZNSt3__129_AllocatorDestroyRangeReverseINS_9allocatorINS_4pairIyPKcEEEENS_16reverse_iteratorIPS5_EEEC1B6v15007ERS6_RS9_SC_ CODE
 0001:000252c0 0000008eH .text$_ZNKSt3__129_AllocatorDestroyRangeReverseINS_9allocatorINS_4pairIyPKcEEEENS_16reverse_iteratorIPS5_EEEclB6v15007Ev CODE
 0001:00025350 0000002eH .text$_ZNSt3__19allocatorINS_4pairIyPKcEEE9constructB6v15007IS4_JS4_EEEvPT_DpOT0_ CODE
 0001:00025380 00000036H .text$_ZNSt3__119__to_address_helperINS_16reverse_iteratorIPNS_4pairIyPKcEEEEvE6__callB6v15007ERKS7_ CODE
 0001:000253c0 00000019H .text$_ZNKSt3__116reverse_iteratorIPNS_4pairIyPKcEEEptB6v15007Ev CODE
 0001:000253e0 0000003aH .text$_ZNSt3__129_AllocatorDestroyRangeReverseINS_9allocatorINS_4pairIyPKcEEEENS_16reverse_iteratorIPS5_EEEC2B6v15007ERS6_RS9_SC_ CODE
 0001:00025420 00000064H .text$_ZNSt3__119__allocator_destroyB6v15007INS_9allocatorINS_4pairIyPKcEEEENS_16reverse_iteratorINS7_IPS5_EEEESA_EEvRT_T0_T1_ CODE
 0001:00025490 00000019H .text$_ZNSt3__116reverse_iteratorINS0_IPNS_4pairIyPKcEEEEEC1B6v15007ES6_ CODE
 0001:000254b0 00000045H .text$_ZNSt3__1neB6v15007INS_16reverse_iteratorIPNS_4pairIyPKcEEEES7_EEbRKNS1_IT_EERKNS1_IT0_EE CODE
 0001:00025500 00000019H .text$_ZNSt3__112__to_addressB6v15007INS_16reverse_iteratorINS1_IPNS_4pairIyPKcEEEEEEvEENS_5decayIDTclsr19__to_address_helperIT_EE6__callcl7declvalIRKSA_EEEEE4typeESC_ CODE
 0001:00025520 00000026H .text$_ZNSt3__116reverse_iteratorINS0_IPNS_4pairIyPKcEEEEEppB6v15007Ev CODE
 0001:00025550 00000028H .text$_ZNKSt3__116reverse_iteratorINS0_IPNS_4pairIyPKcEEEEE4baseB6v15007Ev CODE
 0001:00025580 00000036H .text$_ZNSt3__119__to_address_helperINS_16reverse_iteratorINS1_IPNS_4pairIyPKcEEEEEEvE6__callB6v15007ERKS8_ CODE
 0001:000255c0 00000019H .text$_ZNKSt3__116reverse_iteratorINS0_IPNS_4pairIyPKcEEEEEptB6v15007Ev CODE
 0001:000255e0 00000038H .text$_ZNKSt3__116reverse_iteratorINS0_IPNS_4pairIyPKcEEEEEdeB6v15007Ev CODE
 0001:00025620 00000017H .text$_ZNSt3__116reverse_iteratorIPNS_4pairIyPKcEEEmmB6v15007Ev CODE
 0001:00025640 00000029H .text$_ZNSt3__116reverse_iteratorINS0_IPNS_4pairIyPKcEEEEEC2B6v15007ES6_ CODE
 0001:00025670 00000026H .text$_ZNSt3__116reverse_iteratorIPNS_4pairIyPKcEEEC2B6v15007ES5_ CODE
 0001:000256a0 00000075H .text$_ZNSt3__114__split_bufferINS_4pairIyPKcEERNS_9allocatorIS4_EEED2Ev CODE
 0001:00025720 0000001dH .text$_ZNSt3__114__split_bufferINS_4pairIyPKcEERNS_9allocatorIS4_EEE5clearB6v15007Ev CODE
 0001:00025740 0000002fH .text$_ZNKSt3__114__split_bufferINS_4pairIyPKcEERNS_9allocatorIS4_EEE8capacityB6v15007Ev CODE
 0001:00025770 00000028H .text$_ZNSt3__114__split_bufferINS_4pairIyPKcEERNS_9allocatorIS4_EEE17__destruct_at_endB6v15007EPS4_ CODE
 0001:000257a0 0000007eH .text$_ZNSt3__114__split_bufferINS_4pairIyPKcEERNS_9allocatorIS4_EEE17__destruct_at_endB6v15007EPS4_NS_17integral_constantIbLb0EEE CODE
 0001:00025820 0000001dH .text$_ZNKSt3__114__split_bufferINS_4pairIyPKcEERNS_9allocatorIS4_EEE9__end_capB6v15007Ev CODE
 0001:00025840 00000019H .text$_ZNKSt3__117__compressed_pairIPNS_4pairIyPKcEERNS_9allocatorIS4_EEE5firstB6v15007Ev CODE
 0001:00025860 00000012H .text$_ZNSt3__16vectorINS_4pairIyPKcEENS_9allocatorIS4_EEE27__invalidate_iterators_pastB6v15007EPS4_ CODE
 0001:00025880 000000b6H .text$_ZNKSt3__16vectorINS_4pairIyPKcEENS_9allocatorIS4_EEE17__annotate_shrinkB6v15007Ey CODE
 0001:00025940 00000063H .text$_ZNSt3__16vectorINS_7__stateIcEENS_9allocatorIS2_EEE17__destruct_at_endB6v15007EPS2_ CODE
 0001:000259b0 00000012H .text$_ZNSt3__16vectorINS_7__stateIcEENS_9allocatorIS2_EEE27__invalidate_iterators_pastB6v15007EPS2_ CODE
 0001:000259d0 00000086H .text$_ZNSt3__16vectorINS_7__stateIcEENS_9allocatorIS2_EEE22__base_destruct_at_endB6v15007EPS2_ CODE
 0001:00025a60 000000b3H .text$_ZNKSt3__16vectorINS_7__stateIcEENS_9allocatorIS2_EEE17__annotate_shrinkB6v15007Ey CODE
 0001:00025b20 000000acH .text$_ZNSt3__17__stateIcEC2ERKS1_ CODE
 0001:00025bd0 00000023H .text$_ZNSt3__16vectorINS_9sub_matchIPKcEENS_9allocatorIS4_EEEC1ERKS7_ CODE
 0001:00025c00 00000023H .text$_ZNSt3__16vectorINS_4pairIyPKcEENS_9allocatorIS4_EEEC1ERKS7_ CODE
 0001:00025c30 0000012dH .text$_ZNSt3__16vectorINS_9sub_matchIPKcEENS_9allocatorIS4_EEEC2ERKS7_ CODE
 0001:00025d60 00000011H .text$_ZNSt3__116allocator_traitsINS_9allocatorINS_9sub_matchIPKcEEEEE37select_on_container_copy_constructionB6v15007IS6_vvEES6_RKS6_ CODE
 0001:00025d80 00000034H .text$_ZNSt3__118__make_transactionB6v15007INS_6vectorINS_9sub_matchIPKcEENS_9allocatorIS5_EEE16__destroy_vectorEEENS_13__transactionIT_EESB_ CODE
 0001:00025dc0 00000099H .text$_ZNSt3__16vectorINS_9sub_matchIPKcEENS_9allocatorIS4_EEE18__construct_at_endIPS4_EENS_9enable_ifIXsr27__is_cpp17_forward_iteratorIT_EE5valueEvE4typeESB_SB_y CODE
 0001:00025e60 0000000fH .text$_ZNSt3__113__transactionINS_6vectorINS_9sub_matchIPKcEENS_9allocatorIS5_EEE16__destroy_vectorEE10__completeB6v15007Ev CODE
 0001:00025e70 00000019H .text$_ZNSt3__113__transactionINS_6vectorINS_9sub_matchIPKcEENS_9allocatorIS5_EEE16__destroy_vectorEED1B6v15007Ev CODE
 0001:00025e90 00000023H .text$_ZNSt3__113__transactionINS_6vectorINS_9sub_matchIPKcEENS_9allocatorIS5_EEE16__destroy_vectorEEC1B6v15007ES9_ CODE
 0001:00025ec0 00000022H .text$_ZNSt3__113__transactionINS_6vectorINS_9sub_matchIPKcEENS_9allocatorIS5_EEE16__destroy_vectorEEC2B6v15007ES9_ CODE
 0001:00025ef0 0000010cH .text$_ZNSt3__130__uninitialized_allocator_copyB6v15007INS_9allocatorINS_9sub_matchIPKcEEEEPS5_S7_S7_EET2_RT_T0_T1_S8_ CODE
 0001:00026000 0000002dH .text$_ZNSt3__116allocator_traitsINS_9allocatorINS_9sub_matchIPKcEEEEE9constructB6v15007IS5_JRS5_EvEEvRS6_PT_DpOT0_ CODE
 0001:00026030 00000037H .text$_ZNSt3__129_AllocatorDestroyRangeReverseINS_9allocatorINS_9sub_matchIPKcEEEEPS5_EC1B6v15007ERS6_RS7_SA_ CODE
 0001:00026070 0000005cH .text$_ZNKSt3__129_AllocatorDestroyRangeReverseINS_9allocatorINS_9sub_matchIPKcEEEEPS5_EclB6v15007Ev CODE
 0001:000260d0 00000036H .text$_ZNSt3__19allocatorINS_9sub_matchIPKcEEE9constructB6v15007IS4_JRS4_EEEvPT_DpOT0_ CODE
 0001:00026110 0000003aH .text$_ZNSt3__129_AllocatorDestroyRangeReverseINS_9allocatorINS_9sub_matchIPKcEEEEPS5_EC2B6v15007ERS6_RS7_SA_ CODE
 0001:00026150 00000064H .text$_ZNSt3__119__allocator_destroyB6v15007INS_9allocatorINS_9sub_matchIPKcEEEENS_16reverse_iteratorIPS5_EES9_EEvRT_T0_T1_ CODE
 0001:000261c0 0000003fH .text$_ZNSt3__113__transactionINS_6vectorINS_9sub_matchIPKcEENS_9allocatorIS5_EEE16__destroy_vectorEED2B6v15007Ev CODE
 0001:00026200 0000012dH .text$_ZNSt3__16vectorINS_4pairIyPKcEENS_9allocatorIS4_EEEC2ERKS7_ CODE
 0001:00026330 00000011H .text$_ZNSt3__116allocator_traitsINS_9allocatorINS_4pairIyPKcEEEEE37select_on_container_copy_constructionB6v15007IS6_vvEES6_RKS6_ CODE
 0001:00026350 00000034H .text$_ZNSt3__118__make_transactionB6v15007INS_6vectorINS_4pairIyPKcEENS_9allocatorIS5_EEE16__destroy_vectorEEENS_13__transactionIT_EESB_ CODE
 0001:00026390 000000a9H .text$_ZNSt3__16vectorINS_4pairIyPKcEENS_9allocatorIS4_EEE11__vallocateB6v15007Ey CODE
 0001:00026440 00000099H .text$_ZNSt3__16vectorINS_4pairIyPKcEENS_9allocatorIS4_EEE18__construct_at_endIPS4_EENS_9enable_ifIXsr27__is_cpp17_forward_iteratorIT_EE5valueEvE4typeESB_SB_y CODE
 0001:000264e0 0000000fH .text$_ZNSt3__113__transactionINS_6vectorINS_4pairIyPKcEENS_9allocatorIS5_EEE16__destroy_vectorEE10__completeB6v15007Ev CODE
 0001:000264f0 00000019H .text$_ZNSt3__113__transactionINS_6vectorINS_4pairIyPKcEENS_9allocatorIS5_EEE16__destroy_vectorEED1B6v15007Ev CODE
 0001:00026510 00000023H .text$_ZNSt3__113__transactionINS_6vectorINS_4pairIyPKcEENS_9allocatorIS5_EEE16__destroy_vectorEEC1B6v15007ES9_ CODE
 0001:00026540 00000022H .text$_ZNSt3__113__transactionINS_6vectorINS_4pairIyPKcEENS_9allocatorIS5_EEE16__destroy_vectorEEC2B6v15007ES9_ CODE
 0001:00026570 0000010cH .text$_ZNSt3__130__uninitialized_allocator_copyB6v15007INS_9allocatorINS_4pairIyPKcEEEEPS5_S7_S7_EET2_RT_T0_T1_S8_ CODE
 0001:00026680 0000002dH .text$_ZNSt3__116allocator_traitsINS_9allocatorINS_4pairIyPKcEEEEE9constructB6v15007IS5_JRS5_EvEEvRS6_PT_DpOT0_ CODE
 0001:000266b0 00000037H .text$_ZNSt3__129_AllocatorDestroyRangeReverseINS_9allocatorINS_4pairIyPKcEEEEPS5_EC1B6v15007ERS6_RS7_SA_ CODE
 0001:000266f0 0000005cH .text$_ZNKSt3__129_AllocatorDestroyRangeReverseINS_9allocatorINS_4pairIyPKcEEEEPS5_EclB6v15007Ev CODE
 0001:00026750 0000002eH .text$_ZNSt3__19allocatorINS_4pairIyPKcEEE9constructB6v15007IS4_JRS4_EEEvPT_DpOT0_ CODE
 0001:00026780 0000003aH .text$_ZNSt3__129_AllocatorDestroyRangeReverseINS_9allocatorINS_4pairIyPKcEEEEPS5_EC2B6v15007ERS6_RS7_SA_ CODE
 0001:000267c0 00000064H .text$_ZNSt3__119__allocator_destroyB6v15007INS_9allocatorINS_4pairIyPKcEEEENS_16reverse_iteratorIPS5_EES9_EEvRT_T0_T1_ CODE
 0001:00026830 0000003fH .text$_ZNSt3__113__transactionINS_6vectorINS_4pairIyPKcEENS_9allocatorIS5_EEE16__destroy_vectorEED2B6v15007Ev CODE
 0001:00026870 0000003aH .text$_ZNSt3__16vectorINS_7__stateIcEENS_9allocatorIS2_EEED2B6v15007Ev CODE
 0001:000268b0 00000023H .text$_ZNSt3__16vectorINS_7__stateIcEENS_9allocatorIS2_EEE16__destroy_vectorC1ERS5_ CODE
 0001:000268e0 0000008cH .text$_ZNSt3__16vectorINS_7__stateIcEENS_9allocatorIS2_EEE16__destroy_vectorclB6v15007Ev CODE
 0001:00026970 0000001eH .text$_ZNSt3__16vectorINS_7__stateIcEENS_9allocatorIS2_EEE16__destroy_vectorC2ERS5_ CODE
 0001:00026990 00000007H .text$_ZNSt3__118__debug_db_erase_cB6v15007INS_6vectorINS_7__stateIcEENS_9allocatorIS3_EEEEEEvPT_ CODE
 0001:000269a0 0000001cH .text$_ZNSt3__16vectorINS_7__stateIcEENS_9allocatorIS2_EEE7__clearB6v15007Ev CODE
 0001:000269c0 0000002dH .text$_ZNSt3__14pairIPKcS2_EaSB6v15007ERKS3_ CODE
 0001:000269f0 00000019H .text$_ZNSt3__113match_resultsIPKcNS_9allocatorINS_9sub_matchIS2_EEEEED2Ev CODE
 0001:00026a10 000000b0H .text$_ZNSt3__111basic_regexIcNS_12regex_traitsIcEEE28__push_match_any_but_newlineEv CODE
 0001:00026ac0 00000128H .text$_ZNSt3__111basic_regexIcNS_12regex_traitsIcEEE19__parse_atom_escapeIPKcEET_S7_S7_ CODE
 0001:00026bf0 00000198H .text$_ZNSt3__111basic_regexIcNS_12regex_traitsIcEEE26__parse_bracket_expressionIPKcEET_S7_S7_ CODE
 0001:00026d90 000000e0H .text$_ZNSt3__111basic_regexIcNS_12regex_traitsIcEEE33__push_begin_marked_subexpressionEv CODE
 0001:00026e70 000000e0H .text$_ZNSt3__111basic_regexIcNS_12regex_traitsIcEEE31__push_end_marked_subexpressionEj CODE
 0001:00026f50 0000006bH .text$_ZNSt3__119__throw_regex_errorB6v15007ILNS_15regex_constants10error_typeE11EEEvv CODE
 0001:00026fc0 000001f8H .text$_ZNSt3__111basic_regexIcNS_12regex_traitsIcEEE25__parse_pattern_characterIPKcEET_S7_S7_ CODE
 0001:000271c0 00000023H .text$_ZNSt3__123__match_any_but_newlineIcEC1B6v15007EPNS_6__nodeIcEE CODE
 0001:000271f0 0000003aH .text$_ZNSt3__123__match_any_but_newlineIcEC2B6v15007EPNS_6__nodeIcEE CODE
 0001:00027230 00000019H .text$_ZNSt3__123__match_any_but_newlineIcED1Ev CODE
 0001:00027250 00000028H .text$_ZNSt3__123__match_any_but_newlineIcED0Ev CODE
 0001:00027280 00000019H .text$_ZNSt3__123__match_any_but_newlineIcED2Ev CODE
 0001:000272a0 0000006bH .text$_ZNSt3__119__throw_regex_errorB6v15007ILNS_15regex_constants10error_typeE3EEEvv CODE
 0001:00027310 00000198H .text$_ZNSt3__111basic_regexIcNS_12regex_traitsIcEEE22__parse_decimal_escapeIPKcEET_S7_S7_ CODE
 0001:000274b0 00000290H .text$_ZNSt3__111basic_regexIcNS_12regex_traitsIcEEE30__parse_character_class_escapeIPKcEET_S7_S7_ CODE
 0001:00027740 0000063cH .text$_ZNSt3__111basic_regexIcNS_12regex_traitsIcEEE24__parse_character_escapeIPKcEET_S7_S7_PNS_12basic_stringIcNS_11char_traitsIcEENS_9allocatorIcEEEE CODE
 0001:00027d80 00000268H .text$_ZNSt3__111basic_regexIcNS_12regex_traitsIcEEE11__push_charEc CODE
 0001:00027ff0 0000000fH .text$_ZNSt3__114numeric_limitsIjE3maxB6v15007Ev CODE
 0001:00028000 0000006bH .text$_ZNSt3__119__throw_regex_errorB6v15007ILNS_15regex_constants10error_typeE4EEEvv CODE
 0001:00028070 00000268H .text$_ZNSt3__111basic_regexIcNS_12regex_traitsIcEEE15__push_back_refEi CODE
 0001:000282e0 0000000eH .text$_ZNKSt3__111basic_regexIcNS_12regex_traitsIcEEE5flagsB6v15007Ev CODE
 0001:000282f0 00000037H .text$_ZNSt3__118__match_char_icaseIcNS_12regex_traitsIcEEEC1B6v15007ERKS2_cPNS_6__nodeIcEE CODE
 0001:00028330 00000037H .text$_ZNSt3__120__match_char_collateIcNS_12regex_traitsIcEEEC1B6v15007ERKS2_cPNS_6__nodeIcEE CODE
 0001:00028370 0000002bH .text$_ZNSt3__112__match_charIcEC1B6v15007EcPNS_6__nodeIcEE CODE
 0001:000283a0 000000b8H .text$_ZNSt3__118__match_char_icaseIcNS_12regex_traitsIcEEEC2B6v15007ERKS2_cPNS_6__nodeIcEE CODE
 0001:00028460 00000025H .text$_ZNKSt3__112regex_traitsIcE16translate_nocaseEc CODE
 0001:00028490 00000019H .text$_ZNSt3__118__match_char_icaseIcNS_12regex_traitsIcEEED1Ev CODE
 0001:000284b0 00000028H .text$_ZNSt3__118__match_char_icaseIcNS_12regex_traitsIcEEED0Ev CODE
 0001:000284e0 000000b1H .text$_ZNKSt3__118__match_char_icaseIcNS_12regex_traitsIcEEE6__execERNS_7__stateIcEE CODE
 0001:000285a0 00000022H .text$_ZNKSt3__15ctypeIcE7tolowerB6v15007Ec CODE
 0001:000285d0 0000003aH .text$_ZNSt3__118__match_char_icaseIcNS_12regex_traitsIcEEED2Ev CODE
 0001:00028610 000000b8H .text$_ZNSt3__120__match_char_collateIcNS_12regex_traitsIcEEEC2B6v15007ERKS2_cPNS_6__nodeIcEE CODE
 0001:000286d0 00000016H .text$_ZNKSt3__112regex_traitsIcE9translateB6v15007Ec CODE
 0001:000286f0 00000019H .text$_ZNSt3__120__match_char_collateIcNS_12regex_traitsIcEEED1Ev CODE
 0001:00028710 00000028H .text$_ZNSt3__120__match_char_collateIcNS_12regex_traitsIcEEED0Ev CODE
 0001:00028740 000000b1H .text$_ZNKSt3__120__match_char_collateIcNS_12regex_traitsIcEEE6__execERNS_7__stateIcEE CODE
 0001:00028800 0000003aH .text$_ZNSt3__120__match_char_collateIcNS_12regex_traitsIcEEED2Ev CODE
 0001:00028840 00000045H .text$_ZNSt3__112__match_charIcEC2B6v15007EcPNS_6__nodeIcEE CODE
 0001:00028890 00000019H .text$_ZNSt3__112__match_charIcED1Ev CODE
 0001:000288b0 00000028H .text$_ZNSt3__112__match_charIcED0Ev CODE
 0001:000288e0 000000a1H .text$_ZNKSt3__112__match_charIcE6__execERNS_7__stateIcEE CODE
 0001:00028990 00000019H .text$_ZNSt3__112__match_charIcED2Ev CODE
 0001:000289b0 00000006H .text$_ZNSt3__123__libcpp_numeric_limitsIjLb1EE3maxB6v15007Ev CODE
 0001:000289c0 00000037H .text$_ZNSt3__116__back_ref_icaseIcNS_12regex_traitsIcEEEC1B6v15007ERKS2_jPNS_6__nodeIcEE CODE
 0001:00028a00 00000037H .text$_ZNSt3__118__back_ref_collateIcNS_12regex_traitsIcEEEC1B6v15007ERKS2_jPNS_6__nodeIcEE CODE
 0001:00028a40 0000002bH .text$_ZNSt3__110__back_refIcEC1B6v15007EjPNS_6__nodeIcEE CODE
 0001:00028a70 0000005eH .text$_ZNSt3__116__back_ref_icaseIcNS_12regex_traitsIcEEEC2B6v15007ERKS2_jPNS_6__nodeIcEE CODE
 0001:00028ad0 00000019H .text$_ZNSt3__116__back_ref_icaseIcNS_12regex_traitsIcEEED1Ev CODE
 0001:00028af0 00000028H .text$_ZNSt3__116__back_ref_icaseIcNS_12regex_traitsIcEEED0Ev CODE
 0001:00028b20 0000017fH .text$_ZNKSt3__116__back_ref_icaseIcNS_12regex_traitsIcEEE6__execERNS_7__stateIcEE CODE
 0001:00028ca0 0000003aH .text$_ZNSt3__116__back_ref_icaseIcNS_12regex_traitsIcEEED2Ev CODE
 0001:00028ce0 0000005eH .text$_ZNSt3__118__back_ref_collateIcNS_12regex_traitsIcEEEC2B6v15007ERKS2_jPNS_6__nodeIcEE CODE
 0001:00028d40 00000019H .text$_ZNSt3__118__back_ref_collateIcNS_12regex_traitsIcEEED1Ev CODE
 0001:00028d60 00000028H .text$_ZNSt3__118__back_ref_collateIcNS_12regex_traitsIcEEED0Ev CODE
 0001:00028d90 0000017fH .text$_ZNKSt3__118__back_ref_collateIcNS_12regex_traitsIcEEE6__execERNS_7__stateIcEE CODE
 0001:00028f10 0000003aH .text$_ZNSt3__118__back_ref_collateIcNS_12regex_traitsIcEEED2Ev CODE
 0001:00028f50 00000045H .text$_ZNSt3__110__back_refIcEC2B6v15007EjPNS_6__nodeIcEE CODE
 0001:00028fa0 00000019H .text$_ZNSt3__110__back_refIcED1Ev CODE
 0001:00028fc0 00000028H .text$_ZNSt3__110__back_refIcED0Ev CODE
 0001:00028ff0 0000014cH .text$_ZNKSt3__110__back_refIcE6__execERNS_7__stateIcEE CODE
 0001:00029140 00000019H .text$_ZNSt3__110__back_refIcED2Ev CODE
 0001:00029160 00000036H .text$_ZNSt3__15equalB6v15007IPKcS2_EEbT_S3_T0_ CODE
 0001:000291a0 00000087H .text$_ZNSt3__15equalB6v15007IPKcS2_NS_10__equal_toIccEEEEbT_S5_T0_T1_ CODE
 0001:00029230 00000030H .text$_ZNKSt3__110__equal_toIccEclB6v15007ERKcS3_ CODE
 0001:00029260 00000141H .text$_ZNSt3__111basic_regexIcNS_12regex_traitsIcEEE21__start_matching_listEb CODE
 0001:000293b0 0000002dH .text$_ZNSt3__120__bracket_expressionIcNS_12regex_traitsIcEEE11__add_classB6v15007Et CODE
 0001:000293e0 000000bfH .text$_ZNSt3__120__bracket_expressionIcNS_12regex_traitsIcEEE10__add_charB6v15007Ec CODE
 0001:000294a0 00000075H .text$_ZNSt3__120__bracket_expressionIcNS_12regex_traitsIcEEEC1B6v15007ERKS2_PNS_6__nodeIcEEbbb CODE
 0001:00029520 0000022eH .text$_ZNSt3__120__bracket_expressionIcNS_12regex_traitsIcEEEC2B6v15007ERKS2_PNS_6__nodeIcEEbbb CODE
 0001:00029750 00000019H .text$_ZNSt3__16vectorIcNS_9allocatorIcEEEC1B6v15007Ev CODE
 0001:00029770 00000019H .text$_ZNSt3__16vectorINS_4pairINS_12basic_stringIcNS_11char_traitsIcEENS_9allocatorIcEEEES7_EENS5_IS8_EEEC1B6v15007Ev CODE
 0001:00029790 00000019H .text$_ZNSt3__16vectorINS_4pairIccEENS_9allocatorIS2_EEEC1B6v15007Ev CODE
 0001:000297b0 00000019H .text$_ZNSt3__16vectorINS_12basic_stringIcNS_11char_traitsIcEENS_9allocatorIcEEEENS4_IS6_EEEC1B6v15007Ev CODE
 0001:000297d0 00000029H .text$_ZNSt3__1neB6v15007IcNS_11char_traitsIcEENS_9allocatorIcEEEEbRKNS_12basic_stringIT_T0_T1_EEPKS6_ CODE
 0001:00029800 0000002aH .text$_ZNKSt3__112regex_traitsIcE6getlocB6v15007Ev CODE
 0001:00029830 00000019H .text$_ZNSt3__16vectorINS_4pairIccEENS_9allocatorIS2_EEED1B6v15007Ev CODE
 0001:00029850 00000019H .text$_ZNSt3__16vectorINS_4pairINS_12basic_stringIcNS_11char_traitsIcEENS_9allocatorIcEEEES7_EENS5_IS8_EEED1B6v15007Ev CODE
 0001:00029870 00000019H .text$_ZNSt3__16vectorIcNS_9allocatorIcEEED1B6v15007Ev CODE
 0001:00029890 00000019H .text$_ZNSt3__120__bracket_expressionIcNS_12regex_traitsIcEEED1Ev CODE
 0001:000298b0 00000028H .text$_ZNSt3__120__bracket_expressionIcNS_12regex_traitsIcEEED0Ev CODE
 0001:000298e0 00000b52H .text$_ZNKSt3__120__bracket_expressionIcNS_12regex_traitsIcEEE6__execERNS_7__stateIcEE CODE
 0001:0002a440 00000060H .text$_ZNSt3__16vectorIcNS_9allocatorIcEEEC2B6v15007Ev CODE
 0001:0002a4a0 0000002dH .text$_ZNSt3__117__compressed_pairIPcNS_9allocatorIcEEEC1B6v15007IDnNS_18__default_init_tagEEEOT_OT0_ CODE
 0001:0002a4d0 00000007H .text$_ZNSt3__119__debug_db_insert_cB6v15007INS_6vectorIcNS_9allocatorIcEEEEEEvPT_ CODE
 0001:0002a4e0 0000003bH .text$_ZNSt3__117__compressed_pairIPcNS_9allocatorIcEEEC2B6v15007IDnNS_18__default_init_tagEEEOT_OT0_ CODE
 0001:0002a520 0000001eH .text$_ZNSt3__122__compressed_pair_elemIPcLi0ELb0EEC2B6v15007IDnvEEOT_ CODE
 0001:0002a540 00000060H .text$_ZNSt3__16vectorINS_4pairINS_12basic_stringIcNS_11char_traitsIcEENS_9allocatorIcEEEES7_EENS5_IS8_EEEC2B6v15007Ev CODE
 0001:0002a5a0 0000002dH .text$_ZNSt3__117__compressed_pairIPNS_4pairINS_12basic_stringIcNS_11char_traitsIcEENS_9allocatorIcEEEES7_EENS5_IS8_EEEC1B6v15007IDnNS_18__default_init_tagEEEOT_OT0_ CODE
 0001:0002a5d0 00000007H .text$_ZNSt3__119__debug_db_insert_cB6v15007INS_6vectorINS_4pairINS_12basic_stringIcNS_11char_traitsIcEENS_9allocatorIcEEEES8_EENS6_IS9_EEEEEEvPT_ CODE
 0001:0002a5e0 0000003bH .text$_ZNSt3__117__compressed_pairIPNS_4pairINS_12basic_stringIcNS_11char_traitsIcEENS_9allocatorIcEEEES7_EENS5_IS8_EEEC2B6v15007IDnNS_18__default_init_tagEEEOT_OT0_ CODE
 0001:0002a620 0000001eH .text$_ZNSt3__122__compressed_pair_elemIPNS_4pairINS_12basic_stringIcNS_11char_traitsIcEENS_9allocatorIcEEEES7_EELi0ELb0EEC2B6v15007IDnvEEOT_ CODE
 0001:0002a640 0000001dH .text$_ZNSt3__122__compressed_pair_elemINS_9allocatorINS_4pairINS_12basic_stringIcNS_11char_traitsIcEENS1_IcEEEES7_EEEELi1ELb1EEC2B6v15007ENS_18__default_init_tagE CODE
 0001:0002a660 00000019H .text$_ZNSt3__19allocatorINS_4pairINS_12basic_stringIcNS_11char_traitsIcEENS0_IcEEEES6_EEEC2B6v15007Ev CODE
 0001:0002a680 00000007H .text$_ZNSt3__116__non_trivial_ifILb1ENS_9allocatorINS_4pairINS_12basic_stringIcNS_11char_traitsIcEENS1_IcEEEES7_EEEEEC2B6v15007Ev CODE
 0001:0002a690 00000060H .text$_ZNSt3__16vectorINS_4pairIccEENS_9allocatorIS2_EEEC2B6v15007Ev CODE
 0001:0002a6f0 0000002dH .text$_ZNSt3__117__compressed_pairIPNS_4pairIccEENS_9allocatorIS2_EEEC1B6v15007IDnNS_18__default_init_tagEEEOT_OT0_ CODE
 0001:0002a720 00000007H .text$_ZNSt3__119__debug_db_insert_cB6v15007INS_6vectorINS_4pairIccEENS_9allocatorIS3_EEEEEEvPT_ CODE
 0001:0002a730 0000003bH .text$_ZNSt3__117__compressed_pairIPNS_4pairIccEENS_9allocatorIS2_EEEC2B6v15007IDnNS_18__default_init_tagEEEOT_OT0_ CODE
 0001:0002a770 0000001eH .text$_ZNSt3__122__compressed_pair_elemIPNS_4pairIccEELi0ELb0EEC2B6v15007IDnvEEOT_ CODE
 0001:0002a790 0000001dH .text$_ZNSt3__122__compressed_pair_elemINS_9allocatorINS_4pairIccEEEELi1ELb1EEC2B6v15007ENS_18__default_init_tagE CODE
 0001:0002a7b0 00000019H .text$_ZNSt3__19allocatorINS_4pairIccEEEC2B6v15007Ev CODE
 0001:0002a7d0 00000007H .text$_ZNSt3__116__non_trivial_ifILb1ENS_9allocatorINS_4pairIccEEEEEC2B6v15007Ev CODE
 0001:0002a7e0 0000005cH .text$_ZNSt3__16vectorINS_12basic_stringIcNS_11char_traitsIcEENS_9allocatorIcEEEENS4_IS6_EEEC2B6v15007Ev CODE
 0001:0002a840 0000003aH .text$_ZNSt3__16vectorINS_4pairIccEENS_9allocatorIS2_EEED2B6v15007Ev CODE
 0001:0002a880 00000023H .text$_ZNSt3__16vectorINS_4pairIccEENS_9allocatorIS2_EEE16__destroy_vectorC1ERS5_ CODE
 0001:0002a8b0 0000008cH .text$_ZNSt3__16vectorINS_4pairIccEENS_9allocatorIS2_EEE16__destroy_vectorclB6v15007Ev CODE
 0001:0002a940 0000001eH .text$_ZNSt3__16vectorINS_4pairIccEENS_9allocatorIS2_EEE16__destroy_vectorC2ERS5_ CODE
 0001:0002a960 000000c3H .text$_ZNKSt3__16vectorINS_4pairIccEENS_9allocatorIS2_EEE17__annotate_deleteB6v15007Ev CODE
 0001:0002aa30 00000007H .text$_ZNSt3__118__debug_db_erase_cB6v15007INS_6vectorINS_4pairIccEENS_9allocatorIS3_EEEEEEvPT_ CODE
 0001:0002aa40 0000001cH .text$_ZNSt3__16vectorINS_4pairIccEENS_9allocatorIS2_EEE7__clearB6v15007Ev CODE
 0001:0002aa60 0000002dH .text$_ZNSt3__116allocator_traitsINS_9allocatorINS_4pairIccEEEEE10deallocateB6v15007ERS4_PS3_y CODE
 0001:0002aa90 0000001dH .text$_ZNSt3__16vectorINS_4pairIccEENS_9allocatorIS2_EEE7__allocB6v15007Ev CODE
 0001:0002aab0 0000002fH .text$_ZNKSt3__16vectorINS_4pairIccEENS_9allocatorIS2_EEE8capacityB6v15007Ev CODE
 0001:0002aae0 00000021H .text$_ZNKSt3__16vectorINS_4pairIccEENS_9allocatorIS2_EEE31__annotate_contiguous_containerB6v15007EPKvS7_S7_S7_ CODE
 0001:0002ab10 0000001cH .text$_ZNKSt3__16vectorINS_4pairIccEENS_9allocatorIS2_EEE4dataB6v15007Ev CODE
 0001:0002ab30 00000019H .text$_ZNKSt3__16vectorINS_4pairIccEENS_9allocatorIS2_EEE4sizeB6v15007Ev CODE
 0001:0002ab50 0000000bH .text$_ZNSt3__112__to_addressB6v15007INS_4pairIccEEEEPT_S4_ CODE
 0001:0002ab60 00000086H .text$_ZNSt3__16vectorINS_4pairIccEENS_9allocatorIS2_EEE22__base_destruct_at_endB6v15007EPS2_ CODE
 0001:0002abf0 00000023H .text$_ZNSt3__116allocator_traitsINS_9allocatorINS_4pairIccEEEEE7destroyB6v15007IS3_vEEvRS4_PT_ CODE
 0001:0002ac20 00000012H .text$_ZNSt3__19allocatorINS_4pairIccEEE7destroyB6v15007EPS2_ CODE
 0001:0002ac40 0000003eH .text$_ZNSt3__19allocatorINS_4pairIccEEE10deallocateB6v15007EPS2_y CODE
 0001:0002ac80 00000019H .text$_ZNSt3__117__compressed_pairIPNS_4pairIccEENS_9allocatorIS2_EEE6secondB6v15007Ev CODE
 0001:0002aca0 0000000bH .text$_ZNSt3__122__compressed_pair_elemINS_9allocatorINS_4pairIccEEEELi1ELb1EE5__getB6v15007Ev CODE
 0001:0002acb0 0000001dH .text$_ZNKSt3__16vectorINS_4pairIccEENS_9allocatorIS2_EEE9__end_capB6v15007Ev CODE
 0001:0002acd0 00000019H .text$_ZNKSt3__117__compressed_pairIPNS_4pairIccEENS_9allocatorIS2_EEE5firstB6v15007Ev CODE
 0001:0002acf0 0000000bH .text$_ZNKSt3__122__compressed_pair_elemIPNS_4pairIccEELi0ELb0EE5__getB6v15007Ev CODE
 0001:0002ad00 0000003aH .text$_ZNSt3__16vectorINS_4pairINS_12basic_stringIcNS_11char_traitsIcEENS_9allocatorIcEEEES7_EENS5_IS8_EEED2B6v15007Ev CODE
 0001:0002ad40 00000023H .text$_ZNSt3__16vectorINS_4pairINS_12basic_stringIcNS_11char_traitsIcEENS_9allocatorIcEEEES7_EENS5_IS8_EEE16__destroy_vectorC1ERSA_ CODE
 0001:0002ad70 0000008cH .text$_ZNSt3__16vectorINS_4pairINS_12basic_stringIcNS_11char_traitsIcEENS_9allocatorIcEEEES7_EENS5_IS8_EEE16__destroy_vectorclB6v15007Ev CODE
 0001:0002ae00 0000001eH .text$_ZNSt3__16vectorINS_4pairINS_12basic_stringIcNS_11char_traitsIcEENS_9allocatorIcEEEES7_EENS5_IS8_EEE16__destroy_vectorC2ERSA_ CODE
 0001:0002ae20 000000c3H .text$_ZNKSt3__16vectorINS_4pairINS_12basic_stringIcNS_11char_traitsIcEENS_9allocatorIcEEEES7_EENS5_IS8_EEE17__annotate_deleteB6v15007Ev CODE
 0001:0002aef0 00000007H .text$_ZNSt3__118__debug_db_erase_cB6v15007INS_6vectorINS_4pairINS_12basic_stringIcNS_11char_traitsIcEENS_9allocatorIcEEEES8_EENS6_IS9_EEEEEEvPT_ CODE
 0001:0002af00 0000001cH .text$_ZNSt3__16vectorINS_4pairINS_12basic_stringIcNS_11char_traitsIcEENS_9allocatorIcEEEES7_EENS5_IS8_EEE7__clearB6v15007Ev CODE
 0001:0002af20 0000002dH .text$_ZNSt3__116allocator_traitsINS_9allocatorINS_4pairINS_12basic_stringIcNS_11char_traitsIcEENS1_IcEEEES7_EEEEE10deallocateB6v15007ERS9_PS8_y CODE
 0001:0002af50 0000001dH .text$_ZNSt3__16vectorINS_4pairINS_12basic_stringIcNS_11char_traitsIcEENS_9allocatorIcEEEES7_EENS5_IS8_EEE7__allocB6v15007Ev CODE
 0001:0002af70 00000035H .text$_ZNKSt3__16vectorINS_4pairINS_12basic_stringIcNS_11char_traitsIcEENS_9allocatorIcEEEES7_EENS5_IS8_EEE8capacityB6v15007Ev CODE
 0001:0002afb0 00000021H .text$_ZNKSt3__16vectorINS_4pairINS_12basic_stringIcNS_11char_traitsIcEENS_9allocatorIcEEEES7_EENS5_IS8_EEE31__annotate_contiguous_containerB6v15007EPKvSC_SC_SC_ CODE
 0001:0002afe0 0000001cH .text$_ZNKSt3__16vectorINS_4pairINS_12basic_stringIcNS_11char_traitsIcEENS_9allocatorIcEEEES7_EENS5_IS8_EEE4dataB6v15007Ev CODE
 0001:0002b000 0000001fH .text$_ZNKSt3__16vectorINS_4pairINS_12basic_stringIcNS_11char_traitsIcEENS_9allocatorIcEEEES7_EENS5_IS8_EEE4sizeB6v15007Ev CODE
 0001:0002b020 0000000bH .text$_ZNSt3__112__to_addressB6v15007INS_4pairINS_12basic_stringIcNS_11char_traitsIcEENS_9allocatorIcEEEES7_EEEEPT_SA_ CODE
 0001:0002b030 00000086H .text$_ZNSt3__16vectorINS_4pairINS_12basic_stringIcNS_11char_traitsIcEENS_9allocatorIcEEEES7_EENS5_IS8_EEE22__base_destruct_at_endB6v15007EPS8_ CODE
 0001:0002b0c0 00000023H .text$_ZNSt3__116allocator_traitsINS_9allocatorINS_4pairINS_12basic_stringIcNS_11char_traitsIcEENS1_IcEEEES7_EEEEE7destroyB6v15007IS8_vEEvRS9_PT_ CODE
 0001:0002b0f0 0000001eH .text$_ZNSt3__19allocatorINS_4pairINS_12basic_stringIcNS_11char_traitsIcEENS0_IcEEEES6_EEE7destroyB6v15007EPS7_ CODE
 0001:0002b110 00000019H .text$_ZNSt3__14pairINS_12basic_stringIcNS_11char_traitsIcEENS_9allocatorIcEEEES6_ED1Ev CODE
 0001:0002b130 0000002cH .text$_ZNSt3__14pairINS_12basic_stringIcNS_11char_traitsIcEENS_9allocatorIcEEEES6_ED2Ev CODE
 0001:0002b160 00000043H .text$_ZNSt3__19allocatorINS_4pairINS_12basic_stringIcNS_11char_traitsIcEENS0_IcEEEES6_EEE10deallocateB6v15007EPS7_y CODE
 0001:0002b1b0 00000019H .text$_ZNSt3__117__compressed_pairIPNS_4pairINS_12basic_stringIcNS_11char_traitsIcEENS_9allocatorIcEEEES7_EENS5_IS8_EEE6secondB6v15007Ev CODE
 0001:0002b1d0 0000000bH .text$_ZNSt3__122__compressed_pair_elemINS_9allocatorINS_4pairINS_12basic_stringIcNS_11char_traitsIcEENS1_IcEEEES7_EEEELi1ELb1EE5__getB6v15007Ev CODE
 0001:0002b1e0 0000001dH .text$_ZNKSt3__16vectorINS_4pairINS_12basic_stringIcNS_11char_traitsIcEENS_9allocatorIcEEEES7_EENS5_IS8_EEE9__end_capB6v15007Ev CODE
 0001:0002b200 00000019H .text$_ZNKSt3__117__compressed_pairIPNS_4pairINS_12basic_stringIcNS_11char_traitsIcEENS_9allocatorIcEEEES7_EENS5_IS8_EEE5firstB6v15007Ev CODE
 0001:0002b220 0000000bH .text$_ZNKSt3__122__compressed_pair_elemIPNS_4pairINS_12basic_stringIcNS_11char_traitsIcEENS_9allocatorIcEEEES7_EELi0ELb0EE5__getB6v15007Ev CODE
 0001:0002b230 0000003aH .text$_ZNSt3__16vectorIcNS_9allocatorIcEEED2B6v15007Ev CODE
 0001:0002b270 00000023H .text$_ZNSt3__16vectorIcNS_9allocatorIcEEE16__destroy_vectorC1ERS3_ CODE
 0001:0002b2a0 0000008cH .text$_ZNSt3__16vectorIcNS_9allocatorIcEEE16__destroy_vectorclB6v15007Ev CODE
 0001:0002b330 0000001eH .text$_ZNSt3__16vectorIcNS_9allocatorIcEEE16__destroy_vectorC2ERS3_ CODE
 0001:0002b350 000000b7H .text$_ZNKSt3__16vectorIcNS_9allocatorIcEEE17__annotate_deleteB6v15007Ev CODE
 0001:0002b410 00000007H .text$_ZNSt3__118__debug_db_erase_cB6v15007INS_6vectorIcNS_9allocatorIcEEEEEEvPT_ CODE
 0001:0002b420 0000001cH .text$_ZNSt3__16vectorIcNS_9allocatorIcEEE7__clearB6v15007Ev CODE
 0001:0002b440 0000001dH .text$_ZNSt3__16vectorIcNS_9allocatorIcEEE7__allocB6v15007Ev CODE
 0001:0002b460 0000002bH .text$_ZNKSt3__16vectorIcNS_9allocatorIcEEE8capacityB6v15007Ev CODE
 0001:0002b490 00000021H .text$_ZNKSt3__16vectorIcNS_9allocatorIcEEE31__annotate_contiguous_containerB6v15007EPKvS5_S5_S5_ CODE
 0001:0002b4c0 0000001cH .text$_ZNKSt3__16vectorIcNS_9allocatorIcEEE4dataB6v15007Ev CODE
 0001:0002b4e0 00000015H .text$_ZNKSt3__16vectorIcNS_9allocatorIcEEE4sizeB6v15007Ev CODE
 0001:0002b500 00000085H .text$_ZNSt3__16vectorIcNS_9allocatorIcEEE22__base_destruct_at_endB6v15007EPc CODE
 0001:0002b590 00000023H .text$_ZNSt3__116allocator_traitsINS_9allocatorIcEEE7destroyB6v15007IcvEEvRS2_PT_ CODE
 0001:0002b5c0 00000012H .text$_ZNSt3__19allocatorIcE7destroyB6v15007EPc CODE
 0001:0002b5e0 00000019H .text$_ZNSt3__117__compressed_pairIPcNS_9allocatorIcEEE6secondB6v15007Ev CODE
 0001:0002b600 0000001dH .text$_ZNKSt3__16vectorIcNS_9allocatorIcEEE9__end_capB6v15007Ev CODE
 0001:0002b620 00000019H .text$_ZNKSt3__117__compressed_pairIPcNS_9allocatorIcEEE5firstB6v15007Ev CODE
 0001:0002b640 0000000bH .text$_ZNKSt3__122__compressed_pair_elemIPcLi0ELb0EE5__getB6v15007Ev CODE
 0001:0002b650 00000083H .text$_ZNSt3__120__bracket_expressionIcNS_12regex_traitsIcEEED2Ev CODE
 0001:0002b6e0 0000002dH .text$_ZNSt3__14pairIccEC1B6v15007ILb1ELPv0EEERKcS5_ CODE
 0001:0002b710 00000048H .text$_ZNKSt3__112regex_traitsIcE18lookup_collatenameB6v15007IPcEENS_12basic_stringIcNS_11char_traitsIcEENS_9allocatorIcEEEET_SA_ CODE
 0001:0002b760 00000055H .text$_ZNSt3__1eqB6v15007IccEEbRKNS_4pairIT_T0_EES6_ CODE
 0001:0002b7c0 00000025H .text$_ZNKSt3__16vectorINS_4pairIccEENS_9allocatorIS2_EEEixB6v15007Ey CODE
 0001:0002b7f0 0000001aH .text$_ZNKSt3__16vectorINS_4pairINS_12basic_stringIcNS_11char_traitsIcEENS_9allocatorIcEEEES7_EENS5_IS8_EEE5emptyB6v15007Ev CODE
 0001:0002b810 00000135H .text$_ZNKSt3__112regex_traitsIcE9transformIPcEENS_12basic_stringIcNS_11char_traitsIcEENS_9allocatorIcEEEET_SA_ CODE
 0001:0002b950 00000029H .text$_ZNSt3__1leB6v15007IcNS_11char_traitsIcEENS_9allocatorIcEEEEbRKNS_12basic_stringIT_T0_T1_EESB_ CODE
 0001:0002b980 00000022H .text$_ZNKSt3__16vectorINS_4pairINS_12basic_stringIcNS_11char_traitsIcEENS_9allocatorIcEEEES7_EENS5_IS8_EEEixB6v15007Ey CODE
 0001:0002b9b0 0000001aH .text$_ZNKSt3__16vectorINS_12basic_stringIcNS_11char_traitsIcEENS_9allocatorIcEEEENS4_IS6_EEE5emptyB6v15007Ev CODE
 0001:0002b9d0 00000048H .text$_ZNKSt3__112regex_traitsIcE17transform_primaryB6v15007IPcEENS_12basic_stringIcNS_11char_traitsIcEENS_9allocatorIcEEEET_SA_ CODE
 0001:0002ba20 0000001eH .text$_ZNKSt3__16vectorIcNS_9allocatorIcEEEixB6v15007Ey CODE
 0001:0002ba40 0000001aH .text$_ZNKSt3__16vectorIcNS_9allocatorIcEEE5emptyB6v15007Ev CODE
 0001:0002ba60 00000029H .text$_ZNSt3__1neB6v15007IPKcEEbRKNS_11__wrap_iterIT_EES7_ CODE
 0001:0002ba90 00000079H .text$_ZNSt3__14findB6v15007INS_11__wrap_iterIPKcEEcEET_S5_S5_RKT0_ CODE
 0001:0002bb10 00000025H .text$_ZNKSt3__16vectorIcNS_9allocatorIcEEE5beginB6v15007Ev CODE
 0001:0002bb40 00000026H .text$_ZNKSt3__16vectorIcNS_9allocatorIcEEE3endB6v15007Ev CODE
 0001:0002bb70 0000002dH .text$_ZNSt3__112basic_stringIcNS_11char_traitsIcEENS_9allocatorIcEEEC1B6v15007Eyc CODE
 0001:0002bba0 0000002eH .text$_ZNSt3__14pairIccEC2B6v15007ILb1ELPv0EEERKcS5_ CODE
 0001:0002bbd0 0000028fH .text$_ZNKSt3__112regex_traitsIcE20__lookup_collatenameIPcEENS_12basic_stringIcNS_11char_traitsIcEENS_9allocatorIcEEEET_SA_c CODE
 0001:0002be60 0000002dH .text$_ZNSt3__112basic_stringIcNS_11char_traitsIcEENS_9allocatorIcEEEC1B6v15007IPcvEET_S8_ CODE
 0001:0002be90 00000021H .text$_ZNSt3__112basic_stringIcNS_11char_traitsIcEENS_9allocatorIcEEE4dataB6v15007Ev CODE
 0001:0002bec0 0000009cH .text$_ZNSt3__112basic_stringIcNS_11char_traitsIcEENS_9allocatorIcEEE5clearB6v15007Ev CODE
 0001:0002bf60 00000050H .text$_ZNSt3__112basic_stringIcNS_11char_traitsIcEENS_9allocatorIcEEEC2B6v15007IPcvEET_S8_ CODE
 0001:0002bfb0 0000016eH .text$_ZNSt3__112basic_stringIcNS_11char_traitsIcEENS_9allocatorIcEEE6__initIPcEENS_9enable_ifIXsr27__is_cpp17_forward_iteratorIT_EE5valueEvE4typeES9_S9_ CODE
 0001:0002c120 00000028H .text$_ZNSt3__18distanceB6v15007IPcEENS_15iterator_traitsIT_E15difference_typeES3_S3_ CODE
 0001:0002c150 0000004dH .text$_ZNSt3__119__allocate_at_leastB6v15007INS_9allocatorIcEEEENS_19__allocation_resultINS_16allocator_traitsIT_E7pointerEEERS5_y CODE
 0001:0002c1a0 00000023H .text$_ZNSt3__110__distanceB6v15007IPcEENS_15iterator_traitsIT_E15difference_typeES3_S3_NS_26random_access_iterator_tagE CODE
 0001:0002c1d0 00000007H .text$_ZNSt3__125__debug_db_invalidate_allB6v15007INS_12basic_stringIcNS_11char_traitsIcEENS_9allocatorIcEEEEEEvPT_ CODE
 0001:0002c1e0 0000002dH .text$_ZNSt3__1ltB6v15007IcNS_11char_traitsIcEENS_9allocatorIcEEEEbRKNS_12basic_stringIT_T0_T1_EESB_ CODE
 0001:0002c210 0000003cH .text$_ZNKSt3__112basic_stringIcNS_11char_traitsIcEENS_9allocatorIcEEE7compareB6v15007ERKS5_ CODE
 0001:0002c250 00000116H .text$_ZNKSt3__112basic_stringIcNS_11char_traitsIcEENS_9allocatorIcEEE7compareINS_17basic_string_viewIcS2_EEEENS_9enable_ifIXsr33__can_be_converted_to_string_viewIcS2_T_EE5valueEiE4typeERKSA_ CODE
 0001:0002c370 00000055H .text$_ZNKSt3__112basic_stringIcNS_11char_traitsIcEENS_9allocatorIcEEEcvNS_17basic_string_viewIcS2_EEB6v15007Ev CODE
 0001:0002c3d0 0000000fH .text$_ZNKSt3__117basic_string_viewIcNS_11char_traitsIcEEE4sizeB6v15007Ev CODE
 0001:0002c3e0 0000004dH .text$_ZNSt3__111char_traitsIcE7compareEPKcS3_y CODE
 0001:0002c430 0000000eH .text$_ZNKSt3__117basic_string_viewIcNS_11char_traitsIcEEE4dataB6v15007Ev CODE
 0001:0002c440 0000002dH .text$_ZNSt3__117basic_string_viewIcNS_11char_traitsIcEEEC1B6v15007EPKcy CODE
 0001:0002c470 00000051H .text$_ZNSt3__117basic_string_viewIcNS_11char_traitsIcEEEC2B6v15007EPKcy CODE
 0001:0002c4d0 000001dcH .text$_ZNKSt3__112regex_traitsIcE19__transform_primaryIPcEENS_12basic_stringIcNS_11char_traitsIcEENS_9allocatorIcEEEET_SA_c CODE
 0001:0002c6b0 0000003fH .text$_ZNSt3__1eqB6v15007IPKcEEbRKNS_11__wrap_iterIT_EES7_ CODE
 0001:0002c6f0 0000000eH .text$_ZNKSt3__111__wrap_iterIPKcE4baseB6v15007Ev CODE
 0001:0002c700 0000000eH .text$_ZNKSt3__111__wrap_iterIPKcEdeB6v15007Ev CODE
 0001:0002c710 00000015H .text$_ZNSt3__111__wrap_iterIPKcEppB6v15007Ev CODE
 0001:0002c730 0000002dH .text$_ZNSt3__111__wrap_iterIPKcEC1B6v15007EPKvS2_ CODE
 0001:0002c760 00000023H .text$_ZNSt3__111__wrap_iterIPKcEC2B6v15007EPKvS2_ CODE
 0001:0002c790 00000050H .text$_ZNSt3__112basic_stringIcNS_11char_traitsIcEENS_9allocatorIcEEEC2B6v15007Eyc CODE
 0001:0002c7e0 00000060H .text$_ZNSt3__16vectorIcNS_9allocatorIcEEE9push_backB6v15007EOc CODE
 0001:0002c840 00000060H .text$_ZNSt3__16vectorIcNS_9allocatorIcEEE9push_backB6v15007ERKc CODE
 0001:0002c8a0 0000001dH .text$_ZNSt3__16vectorIcNS_9allocatorIcEEE9__end_capB6v15007Ev CODE
 0001:0002c8c0 00000099H .text$_ZNSt3__16vectorIcNS_9allocatorIcEEE22__construct_one_at_endB6v15007IJcEEEvDpOT_ CODE
 0001:0002c960 000000edH .text$_ZNSt3__16vectorIcNS_9allocatorIcEEE21__push_back_slow_pathIcEEvOT_ CODE
 0001:0002ca50 00000019H .text$_ZNSt3__117__compressed_pairIPcNS_9allocatorIcEEE5firstB6v15007Ev CODE
 0001:0002ca70 0000000bH .text$_ZNSt3__122__compressed_pair_elemIPcLi0ELb0EE5__getB6v15007Ev CODE
 0001:0002ca80 0000002dH .text$_ZNSt3__16vectorIcNS_9allocatorIcEEE21_ConstructTransactionC1ERS3_y CODE
 0001:0002cab0 0000002dH .text$_ZNSt3__116allocator_traitsINS_9allocatorIcEEE9constructB6v15007IcJcEvEEvRS2_PT_DpOT0_ CODE
 0001:0002cae0 00000019H .text$_ZNSt3__16vectorIcNS_9allocatorIcEEE21_ConstructTransactionD1Ev CODE
 0001:0002cb00 00000042H .text$_ZNSt3__16vectorIcNS_9allocatorIcEEE21_ConstructTransactionC2ERS3_y CODE
 0001:0002cb50 00000024H .text$_ZNSt3__19allocatorIcE9constructB6v15007IcJcEEEvPT_DpOT0_ CODE
 0001:0002cb80 00000016H .text$_ZNSt3__16vectorIcNS_9allocatorIcEEE21_ConstructTransactionD2Ev CODE
 0001:0002cba0 000000a0H .text$_ZNKSt3__16vectorIcNS_9allocatorIcEEE11__recommendB6v15007Ey CODE
 0001:0002cc40 00000037H .text$_ZNSt3__114__split_bufferIcRNS_9allocatorIcEEEC1EyyS3_ CODE
 0001:0002cc80 0000014cH .text$_ZNSt3__16vectorIcNS_9allocatorIcEEE26__swap_out_circular_bufferERNS_14__split_bufferIcRS2_EE CODE
 0001:0002cdd0 00000019H .text$_ZNSt3__114__split_bufferIcRNS_9allocatorIcEEED1Ev CODE
 0001:0002cdf0 00000059H .text$_ZNKSt3__16vectorIcNS_9allocatorIcEEE8max_sizeEv CODE
 0001:0002ce50 00000016H .text$_ZNKSt3__16vectorIcNS_9allocatorIcEEE20__throw_length_errorB6v15007Ev CODE
 0001:0002ce70 0000001dH .text$_ZNKSt3__16vectorIcNS_9allocatorIcEEE7__allocB6v15007Ev CODE
 0001:0002ce90 00000019H .text$_ZNKSt3__117__compressed_pairIPcNS_9allocatorIcEEE6secondB6v15007Ev CODE
 0001:0002ceb0 000000c2H .text$_ZNSt3__114__split_bufferIcRNS_9allocatorIcEEEC2EyyS3_ CODE
 0001:0002cf80 0000002dH .text$_ZNSt3__117__compressed_pairIPcRNS_9allocatorIcEEEC1B6v15007IDnS4_EEOT_OT0_ CODE
 0001:0002cfb0 0000001dH .text$_ZNSt3__114__split_bufferIcRNS_9allocatorIcEEE7__allocB6v15007Ev CODE
 0001:0002cfd0 0000001dH .text$_ZNSt3__114__split_bufferIcRNS_9allocatorIcEEE9__end_capB6v15007Ev CODE
 0001:0002cff0 00000040H .text$_ZNSt3__117__compressed_pairIPcRNS_9allocatorIcEEEC2B6v15007IDnS4_EEOT_OT0_ CODE
 0001:0002d030 0000001eH .text$_ZNSt3__122__compressed_pair_elemIRNS_9allocatorIcEELi1ELb0EEC2B6v15007IS3_vEEOT_ CODE
 0001:0002d050 0000001dH .text$_ZNSt3__117__compressed_pairIPcRNS_9allocatorIcEEE6secondB6v15007Ev CODE
 0001:0002d070 0000000eH .text$_ZNSt3__122__compressed_pair_elemIRNS_9allocatorIcEELi1ELb0EE5__getB6v15007Ev CODE
 0001:0002d080 00000019H .text$_ZNSt3__117__compressed_pairIPcRNS_9allocatorIcEEE5firstB6v15007Ev CODE
 0001:0002d0a0 0000006fH .text$_ZNSt3__142__uninitialized_allocator_move_if_noexceptB6v15007INS_9allocatorIcEENS_16reverse_iteratorIPcEES5_cvEET1_RT_T0_S9_S6_ CODE
 0001:0002d110 00000023H .text$_ZNSt3__116reverse_iteratorIPcEC1B6v15007ES1_ CODE
 0001:0002d140 0000000fH .text$_ZNKSt3__116reverse_iteratorIPcE4baseB6v15007Ev CODE
 0001:0002d150 0000003bH .text$_ZNSt3__14swapB6v15007IPcEENS_9enable_ifIXaasr21is_move_constructibleIT_EE5valuesr18is_move_assignableIS3_EE5valueEvE4typeERS3_S6_ CODE
 0001:0002d190 000000a7H .text$_ZNKSt3__16vectorIcNS_9allocatorIcEEE14__annotate_newB6v15007Ey CODE
 0001:0002d240 00000007H .text$_ZNSt3__125__debug_db_invalidate_allB6v15007INS_6vectorIcNS_9allocatorIcEEEEEEvPT_ CODE
 0001:0002d250 0000008bH .text$_ZNSt3__14moveB6v15007INS_16reverse_iteratorIPcEES3_EET0_T_S5_S4_ CODE
 0001:0002d2e0 0000019fH .text$_ZNSt3__16__moveB6v15007INS_17_ClassicAlgPolicyENS_16reverse_iteratorIPcEES4_S4_EENS_9enable_ifIXaaaasr21is_copy_constructibleIT0_EE5valuesr21is_copy_constructibleIT1_EE5valuesr21is_copy_constructibleIT2_EE5valueENS_4pairIS6_S8_EEE4typeES6_S7_S8_ CODE
 0001:0002d480 00000102H .text$_ZNSt3__111__move_implB6v15007INS_17_ClassicAlgPolicyEPcS2_Li0EEENS_4pairINS_16reverse_iteratorIT0_EENS4_IT1_EEEES6_S6_S8_ CODE
 0001:0002d590 00000036H .text$_ZNSt3__113__unwrap_iterB6v15007INS_16reverse_iteratorIPcEENS_18__unwrap_iter_implIS3_Lb0EEELi0EEEDTclsrT0_8__unwrapclsr3stdE7declvalIT_EEEES7_ CODE
 0001:0002d5d0 00000034H .text$_ZNSt3__19make_pairB6v15007INS_16reverse_iteratorIPcEES3_EENS_4pairINS_18__unwrap_ref_decayIT_E4typeENS5_IT0_E4typeEEEOS6_OS9_ CODE
 0001:0002d610 00000049H .text$_ZNSt3__113__rewrap_iterB6v15007INS_16reverse_iteratorIPcEES3_NS_18__unwrap_iter_implIS3_Lb0EEEEET_S6_T0_ CODE
 0001:0002d660 0000008bH .text$_ZNSt3__111__move_implB6v15007INS_17_ClassicAlgPolicyEccvEENS_4pairIPT0_PT1_EES4_S4_S6_ CODE
 0001:0002d6f0 00000034H .text$_ZNSt3__19make_pairB6v15007IRNS_16reverse_iteratorIPcEES3_EENS_4pairINS_18__unwrap_ref_decayIT_E4typeENS6_IT0_E4typeEEEOS7_OSA_ CODE
 0001:0002d730 00000034H .text$_ZNSt3__19make_pairB6v15007IPcS1_EENS_4pairINS_18__unwrap_ref_decayIT_E4typeENS3_IT0_E4typeEEEOS4_OS7_ CODE
 0001:0002d770 0000002dH .text$_ZNSt3__14pairIPcS1_EC1B6v15007IS1_S1_LPv0EEEOT_OT0_ CODE
 0001:0002d7a0 00000032H .text$_ZNSt3__14pairIPcS1_EC2B6v15007IS1_S1_LPv0EEEOT_OT0_ CODE
 0001:0002d7e0 0000002dH .text$_ZNSt3__14pairINS_16reverse_iteratorIPcEES3_EC1B6v15007IRS3_S3_LPv0EEEOT_OT0_ CODE
 0001:0002d810 00000042H .text$_ZNSt3__14pairINS_16reverse_iteratorIPcEES3_EC2B6v15007IRS3_S3_LPv0EEEOT_OT0_ CODE
 0001:0002d860 00000018H .text$_ZNSt3__118__unwrap_iter_implINS_16reverse_iteratorIPcEELb0EE8__unwrapB6v15007ES3_ CODE
 0001:0002d880 0000002dH .text$_ZNSt3__14pairINS_16reverse_iteratorIPcEES3_EC1B6v15007IS3_S3_LPv0EEEOT_OT0_ CODE
 0001:0002d8b0 00000042H .text$_ZNSt3__14pairINS_16reverse_iteratorIPcEES3_EC2B6v15007IS3_S3_LPv0EEEOT_OT0_ CODE
 0001:0002d900 00000018H .text$_ZNSt3__118__unwrap_iter_implINS_16reverse_iteratorIPcEELb0EE8__rewrapB6v15007ES3_S3_ CODE
 0001:0002d920 00000026H .text$_ZNSt3__116reverse_iteratorIPcEC2B6v15007ES1_ CODE
 0001:0002d950 00000075H .text$_ZNSt3__114__split_bufferIcRNS_9allocatorIcEEED2Ev CODE
 0001:0002d9d0 0000001dH .text$_ZNSt3__114__split_bufferIcRNS_9allocatorIcEEE5clearB6v15007Ev CODE
 0001:0002d9f0 0000002bH .text$_ZNKSt3__114__split_bufferIcRNS_9allocatorIcEEE8capacityB6v15007Ev CODE
 0001:0002da20 00000028H .text$_ZNSt3__114__split_bufferIcRNS_9allocatorIcEEE17__destruct_at_endB6v15007EPc CODE
 0001:0002da50 0000007dH .text$_ZNSt3__114__split_bufferIcRNS_9allocatorIcEEE17__destruct_at_endB6v15007EPcNS_17integral_constantIbLb0EEE CODE
 0001:0002dad0 0000001dH .text$_ZNKSt3__114__split_bufferIcRNS_9allocatorIcEEE9__end_capB6v15007Ev CODE
 0001:0002daf0 00000019H .text$_ZNKSt3__117__compressed_pairIPcRNS_9allocatorIcEEE5firstB6v15007Ev CODE
 0001:0002db10 00000099H .text$_ZNSt3__16vectorIcNS_9allocatorIcEEE22__construct_one_at_endB6v15007IJRKcEEEvDpOT_ CODE
 0001:0002dbb0 000000edH .text$_ZNSt3__16vectorIcNS_9allocatorIcEEE21__push_back_slow_pathIRKcEEvOT_ CODE
 0001:0002dca0 0000002dH .text$_ZNSt3__116allocator_traitsINS_9allocatorIcEEE9constructB6v15007IcJRKcEvEEvRS2_PT_DpOT0_ CODE
 0001:0002dcd0 00000024H .text$_ZNSt3__19allocatorIcE9constructB6v15007IcJRKcEEEvPT_DpOT0_ CODE
 0001:0002dd00 0000002bH .text$_ZNKSt3__112regex_traitsIcE5valueB6v15007Eci CODE
 0001:0002dd30 00000025H .text$_ZNKSt3__112regex_traitsIcE20__regex_traits_valueB6v15007Eci CODE
 0001:0002dd60 000000c9H .text$_ZNSt3__112regex_traitsIcE20__regex_traits_valueEhi CODE
 0001:0002de30 0000001cH .text$_ZNSt3__17__is_07B6v15007Eh CODE
 0001:0002de50 0000001cH .text$_ZNSt3__17__is_89B6v15007Eh CODE
 0001:0002de70 0000000fH .text$_ZNSt3__110__to_lowerB6v15007Eh CODE
 0001:0002de80 0000006bH .text$_ZNSt3__119__throw_regex_errorB6v15007ILNS_15regex_constants10error_typeE5EEEvv CODE
 0001:0002def0 00000088H .text$_ZNSt3__111basic_regexIcNS_12regex_traitsIcEEE19__parse_follow_listIPKcEET_S7_S7_PNS_20__bracket_expressionIcS2_EE CODE
 0001:0002df80 000008c6H .text$_ZNSt3__111basic_regexIcNS_12regex_traitsIcEEE23__parse_expression_termIPKcEET_S7_S7_PNS_20__bracket_expressionIcS2_EE CODE
 0001:0002e850 000002c6H .text$_ZNSt3__111basic_regexIcNS_12regex_traitsIcEEE25__parse_equivalence_classIPKcEET_S7_S7_PNS_20__bracket_expressionIcS2_EE CODE
 0001:0002eb20 000000efH .text$_ZNSt3__111basic_regexIcNS_12regex_traitsIcEEE23__parse_character_classIPKcEET_S7_S7_PNS_20__bracket_expressionIcS2_EE CODE
 0001:0002ec10 000000e0H .text$_ZNSt3__111basic_regexIcNS_12regex_traitsIcEEE24__parse_collating_symbolIPKcEET_S7_S7_RNS_12basic_stringIcNS_11char_traitsIcEENS_9allocatorIcEEEE CODE
 0001:0002ecf0 00000278H .text$_ZNSt3__111basic_regexIcNS_12regex_traitsIcEEE20__parse_class_escapeIPKcEET_S7_S7_RNS_12basic_stringIcNS_11char_traitsIcEENS_9allocatorIcEEEEPNS_20__bracket_expressionIcS2_EE CODE
 0001:0002ef70 0000053cH .text$_ZNSt3__111basic_regexIcNS_12regex_traitsIcEEE18__parse_awk_escapeIPKcEET_S7_S7_PNS_12basic_stringIcNS_11char_traitsIcEENS_9allocatorIcEEEE CODE
 0001:0002f4b0 0000061aH .text$_ZNSt3__120__bracket_expressionIcNS_12regex_traitsIcEEE11__add_rangeB6v15007ENS_12basic_stringIcNS_11char_traitsIcEENS_9allocatorIcEEEES9_ CODE
 0001:0002fad0 00000136H .text$_ZNSt3__120__bracket_expressionIcNS_12regex_traitsIcEEE13__add_digraphB6v15007Ecc CODE
 0001:0002fc10 0000003fH .text$_ZNSt3__16searchB6v15007IPKcPcEET_S4_S4_T0_S5_ CODE
 0001:0002fc50 00000048H .text$_ZNKSt3__112regex_traitsIcE18lookup_collatenameB6v15007IPKcEENS_12basic_stringIcNS_11char_traitsIcEENS_9allocatorIcEEEET_SB_ CODE
 0001:0002fca0 0000006bH .text$_ZNSt3__119__throw_regex_errorB6v15007ILNS_15regex_constants10error_typeE1EEEvv CODE
 0001:0002fd10 0000005cH .text$_ZNKSt3__112regex_traitsIcE17transform_primaryB6v15007INS_11__wrap_iterIPcEEEENS_12basic_stringIcNS_11char_traitsIcEENS_9allocatorIcEEEET_SC_ CODE
 0001:0002fd70 00000034H .text$_ZNSt3__112basic_stringIcNS_11char_traitsIcEENS_9allocatorIcEEE5beginB6v15007Ev CODE
 0001:0002fdb0 00000048H .text$_ZNSt3__112basic_stringIcNS_11char_traitsIcEENS_9allocatorIcEEE3endB6v15007Ev CODE
 0001:0002fe00 0000002aH .text$_ZNSt3__120__bracket_expressionIcNS_12regex_traitsIcEEE17__add_equivalenceB6v15007ERKNS_12basic_stringIcNS_11char_traitsIcEENS_9allocatorIcEEEE CODE
 0001:0002fe30 00000092H .text$_ZNSt3__16searchB6v15007IPKcPcNS_10__equal_toIccEEEET_S6_S6_T0_S7_T1_ CODE
 0001:0002fed0 00000144H .text$_ZNSt3__113__search_implB6v15007IPKcS2_PcS3_NS_10__equal_toIccEENS_10__identityES6_EENS_4pairIT_S8_EES8_T0_T1_T2_RT3_RT4_RT5_PNS_9enable_ifIXaasr33__is_cpp17_random_access_iteratorIS8_EE5valuesr33__is_cpp17_random_access_iteratorISB_EE5valueEvE4typeE CODE
 0001:00030020 00000034H .text$_ZNSt3__19make_pairB6v15007IRPKcS3_EENS_4pairINS_18__unwrap_ref_decayIT_E4typeENS5_IT0_E4typeEEEOS6_OS9_ CODE
 0001:00030060 00000239H .text$_ZNSt3__127__search_random_access_implB6v15007INS_17_ClassicAlgPolicyEPKcS3_PcS4_NS_10__equal_toIccEENS_10__identityES7_xxEENS_4pairIT0_S9_EES9_T1_T2_T3_RT4_RT5_RT6_T7_T8_ CODE
 0001:000302a0 0000002dH .text$_ZNSt3__14pairIPKcS2_EC1B6v15007IRS2_S5_LPv0EEEOT_OT0_ CODE
 0001:000302d0 00000032H .text$_ZNSt3__14pairIPKcS2_EC2B6v15007IRS2_S5_LPv0EEEOT_OT0_ CODE
 0001:00030310 0000001eH .text$_ZNSt3__18_IterOpsINS_17_ClassicAlgPolicyEE12__advance_toB6v15007IPKcEEvRT_S6_ CODE
 0001:00030330 00000031H .text$_ZNSt3__18__invokeB6v15007IRNS_10__equal_toIccEEJRKcRcEEEDTclclsr3stdE7declvalIT_EEspclsr3stdE7declvalIT0_EEEEOS7_DpOS8_ CODE
 0001:00030370 00000023H .text$_ZNSt3__18__invokeB6v15007IRNS_10__identityEJRKcEEEDTclclsr3stdE7declvalIT_EEspclsr3stdE7declvalIT0_EEEEOS5_DpOS6_ CODE
 0001:000303a0 00000023H .text$_ZNSt3__18__invokeB6v15007IRNS_10__identityEJRcEEEDTclclsr3stdE7declvalIT_EEspclsr3stdE7declvalIT0_EEEEOS4_DpOS5_ CODE
 0001:000303d0 00000034H .text$_ZNSt3__19make_pairB6v15007IRPKcS2_EENS_4pairINS_18__unwrap_ref_decayIT_E4typeENS5_IT0_E4typeEEEOS6_OS9_ CODE
 0001:00030410 00000016H .text$_ZNKSt3__110__identityclIRKcEEOT_S5_ CODE
 0001:00030430 00000016H .text$_ZNKSt3__110__identityclIRcEEOT_S4_ CODE
 0001:00030450 0000002dH .text$_ZNSt3__14pairIPKcS2_EC1B6v15007IRS2_S2_LPv0EEEOT_OT0_ CODE
 0001:00030480 00000032H .text$_ZNSt3__14pairIPKcS2_EC2B6v15007IRS2_S2_LPv0EEEOT_OT0_ CODE
 0001:000304c0 0000028fH .text$_ZNKSt3__112regex_traitsIcE20__lookup_collatenameIPKcEENS_12basic_stringIcNS_11char_traitsIcEENS_9allocatorIcEEEET_SB_c CODE
 0001:00030750 0000002dH .text$_ZNSt3__112basic_stringIcNS_11char_traitsIcEENS_9allocatorIcEEEC1B6v15007IPKcvEET_S9_ CODE
 0001:00030780 00000050H .text$_ZNSt3__112basic_stringIcNS_11char_traitsIcEENS_9allocatorIcEEEC2B6v15007IPKcvEET_S9_ CODE
 0001:000307d0 0000016eH .text$_ZNSt3__112basic_stringIcNS_11char_traitsIcEENS_9allocatorIcEEE6__initIPKcEENS_9enable_ifIXsr27__is_cpp17_forward_iteratorIT_EE5valueEvE4typeESA_SA_ CODE
 0001:00030940 00000028H .text$_ZNSt3__18distanceB6v15007IPKcEENS_15iterator_traitsIT_E15difference_typeES4_S4_ CODE
 0001:00030970 00000023H .text$_ZNSt3__110__distanceB6v15007IPKcEENS_15iterator_traitsIT_E15difference_typeES4_S4_NS_26random_access_iterator_tagE CODE
 0001:000309a0 000001fcH .text$_ZNKSt3__112regex_traitsIcE19__transform_primaryINS_11__wrap_iterIPcEEEENS_12basic_stringIcNS_11char_traitsIcEENS_9allocatorIcEEEET_SC_c CODE
 0001:00030ba0 0000002dH .text$_ZNSt3__112basic_stringIcNS_11char_traitsIcEENS_9allocatorIcEEEC1B6v15007INS_11__wrap_iterIPcEEvEET_SA_ CODE
 0001:00030bd0 00000064H .text$_ZNSt3__112basic_stringIcNS_11char_traitsIcEENS_9allocatorIcEEEC2B6v15007INS_11__wrap_iterIPcEEvEET_SA_ CODE
 0001:00030c40 000001c0H .text$_ZNSt3__112basic_stringIcNS_11char_traitsIcEENS_9allocatorIcEEE6__initINS_11__wrap_iterIPcEEEENS_9enable_ifIXsr27__is_cpp17_forward_iteratorIT_EE5valueEvE4typeESB_SB_ CODE
 0001:00030e00 0000003cH .text$_ZNSt3__18distanceB6v15007INS_11__wrap_iterIPcEEEENS_15iterator_traitsIT_E15difference_typeES5_S5_ CODE
 0001:00030e40 00000029H .text$_ZNSt3__1neB6v15007IPcEEbRKNS_11__wrap_iterIT_EES6_ CODE
 0001:00030e70 0000000eH .text$_ZNKSt3__111__wrap_iterIPcEdeB6v15007Ev CODE
 0001:00030e80 00000015H .text$_ZNSt3__111__wrap_iterIPcEppB6v15007Ev CODE
 0001:00030ea0 00000028H .text$_ZNSt3__110__distanceB6v15007INS_11__wrap_iterIPcEEEENS_15iterator_traitsIT_E15difference_typeES5_S5_NS_26random_access_iterator_tagE CODE
 0001:00030ed0 00000037H .text$_ZNSt3__1miB6v15007IPcS1_EEDTmicldtfp_4baseEcldtfp0_4baseEERKNS_11__wrap_iterIT_EERKNS3_IT0_EE CODE
 0001:00030f10 0000000eH .text$_ZNKSt3__111__wrap_iterIPcE4baseB6v15007Ev CODE
 0001:00030f20 0000003fH .text$_ZNSt3__1eqB6v15007IPcEEbRKNS_11__wrap_iterIT_EES6_ CODE
 0001:00030f60 0000002dH .text$_ZNSt3__111__wrap_iterIPcEC1B6v15007EPKvS1_ CODE
 0001:00030f90 00000023H .text$_ZNSt3__111__wrap_iterIPcEC2B6v15007EPKvS1_ CODE
 0001:00030fc0 00000060H .text$_ZNSt3__16vectorINS_12basic_stringIcNS_11char_traitsIcEENS_9allocatorIcEEEENS4_IS6_EEE9push_backB6v15007ERKS6_ CODE
 0001:00031020 00000099H .text$_ZNSt3__16vectorINS_12basic_stringIcNS_11char_traitsIcEENS_9allocatorIcEEEENS4_IS6_EEE22__construct_one_at_endB6v15007IJRKS6_EEEvDpOT_ CODE
 0001:000310c0 000000eeH .text$_ZNSt3__16vectorINS_12basic_stringIcNS_11char_traitsIcEENS_9allocatorIcEEEENS4_IS6_EEE21__push_back_slow_pathIRKS6_EEvOT_ CODE
 0001:000311b0 000000a0H .text$_ZNKSt3__16vectorINS_12basic_stringIcNS_11char_traitsIcEENS_9allocatorIcEEEENS4_IS6_EEE11__recommendB6v15007Ey CODE
 0001:00031250 00000037H .text$_ZNSt3__114__split_bufferINS_12basic_stringIcNS_11char_traitsIcEENS_9allocatorIcEEEERNS4_IS6_EEEC1EyyS8_ CODE
 0001:00031290 0000014cH .text$_ZNSt3__16vectorINS_12basic_stringIcNS_11char_traitsIcEENS_9allocatorIcEEEENS4_IS6_EEE26__swap_out_circular_bufferERNS_14__split_bufferIS6_RS7_EE CODE
 0001:000313e0 00000019H .text$_ZNSt3__114__split_bufferINS_12basic_stringIcNS_11char_traitsIcEENS_9allocatorIcEEEERNS4_IS6_EEED1Ev CODE
 0001:00031400 000000caH .text$_ZNSt3__114__split_bufferINS_12basic_stringIcNS_11char_traitsIcEENS_9allocatorIcEEEERNS4_IS6_EEEC2EyyS8_ CODE
 0001:000314d0 0000002dH .text$_ZNSt3__117__compressed_pairIPNS_12basic_stringIcNS_11char_traitsIcEENS_9allocatorIcEEEERNS4_IS6_EEEC1B6v15007IDnS9_EEOT_OT0_ CODE
 0001:00031500 0000001dH .text$_ZNSt3__114__split_bufferINS_12basic_stringIcNS_11char_traitsIcEENS_9allocatorIcEEEERNS4_IS6_EEE7__allocB6v15007Ev CODE
 0001:00031520 0000001dH .text$_ZNSt3__114__split_bufferINS_12basic_stringIcNS_11char_traitsIcEENS_9allocatorIcEEEERNS4_IS6_EEE9__end_capB6v15007Ev CODE
 0001:00031540 00000040H .text$_ZNSt3__117__compressed_pairIPNS_12basic_stringIcNS_11char_traitsIcEENS_9allocatorIcEEEERNS4_IS6_EEEC2B6v15007IDnS9_EEOT_OT0_ CODE
 0001:00031580 0000001eH .text$_ZNSt3__122__compressed_pair_elemIRNS_9allocatorINS_12basic_stringIcNS_11char_traitsIcEENS1_IcEEEEEELi1ELb0EEC2B6v15007IS8_vEEOT_ CODE
 0001:000315a0 0000001dH .text$_ZNSt3__117__compressed_pairIPNS_12basic_stringIcNS_11char_traitsIcEENS_9allocatorIcEEEERNS4_IS6_EEE6secondB6v15007Ev CODE
 0001:000315c0 0000000eH .text$_ZNSt3__122__compressed_pair_elemIRNS_9allocatorINS_12basic_stringIcNS_11char_traitsIcEENS1_IcEEEEEELi1ELb0EE5__getB6v15007Ev CODE
 0001:000315d0 00000019H .text$_ZNSt3__117__compressed_pairIPNS_12basic_stringIcNS_11char_traitsIcEENS_9allocatorIcEEEERNS4_IS6_EEE5firstB6v15007Ev CODE
 0001:000315f0 0000018cH .text$_ZNSt3__142__uninitialized_allocator_move_if_noexceptB6v15007INS_9allocatorINS_12basic_stringIcNS_11char_traitsIcEENS1_IcEEEEEENS_16reverse_iteratorIPS6_EESA_SA_EET2_RT_T0_T1_SB_ CODE
 0001:00031780 0000003bH .text$_ZNSt3__14swapB6v15007IPNS_12basic_stringIcNS_11char_traitsIcEENS_9allocatorIcEEEEEENS_9enable_ifIXaasr21is_move_constructibleIT_EE5valuesr18is_move_assignableIS9_EE5valueEvE4typeERS9_SC_ CODE
 0001:000317c0 00000007H .text$_ZNSt3__125__debug_db_invalidate_allB6v15007INS_6vectorINS_12basic_stringIcNS_11char_traitsIcEENS_9allocatorIcEEEENS5_IS7_EEEEEEvPT_ CODE
 0001:000317d0 0000002dH .text$_ZNSt3__116allocator_traitsINS_9allocatorINS_12basic_stringIcNS_11char_traitsIcEENS1_IcEEEEEEE9constructB6v15007IS6_JS6_EvEEvRS7_PT_DpOT0_ CODE
 0001:00031800 00000037H .text$_ZNSt3__129_AllocatorDestroyRangeReverseINS_9allocatorINS_12basic_stringIcNS_11char_traitsIcEENS1_IcEEEEEENS_16reverse_iteratorIPS6_EEEC1B6v15007ERS7_RSA_SD_ CODE
 0001:00031840 0000008eH .text$_ZNKSt3__129_AllocatorDestroyRangeReverseINS_9allocatorINS_12basic_stringIcNS_11char_traitsIcEENS1_IcEEEEEENS_16reverse_iteratorIPS6_EEEclB6v15007Ev CODE
 0001:000318d0 00000028H .text$_ZNSt3__19allocatorINS_12basic_stringIcNS_11char_traitsIcEENS0_IcEEEEE9constructB6v15007IS5_JS5_EEEvPT_DpOT0_ CODE
 0001:00031900 0000003aH .text$_ZNSt3__129_AllocatorDestroyRangeReverseINS_9allocatorINS_12basic_stringIcNS_11char_traitsIcEENS1_IcEEEEEENS_16reverse_iteratorIPS6_EEEC2B6v15007ERS7_RSA_SD_ CODE
 0001:00031940 00000064H .text$_ZNSt3__119__allocator_destroyB6v15007INS_9allocatorINS_12basic_stringIcNS_11char_traitsIcEENS1_IcEEEEEENS_16reverse_iteratorINS8_IPS6_EEEESB_EEvRT_T0_T1_ CODE
 0001:000319b0 00000019H .text$_ZNSt3__116reverse_iteratorINS0_IPNS_12basic_stringIcNS_11char_traitsIcEENS_9allocatorIcEEEEEEEC1B6v15007ES8_ CODE
 0001:000319d0 00000045H .text$_ZNSt3__1neB6v15007INS_16reverse_iteratorIPNS_12basic_stringIcNS_11char_traitsIcEENS_9allocatorIcEEEEEES9_EEbRKNS1_IT_EERKNS1_IT0_EE CODE
 0001:00031a20 00000019H .text$_ZNSt3__112__to_addressB6v15007INS_16reverse_iteratorINS1_IPNS_12basic_stringIcNS_11char_traitsIcEENS_9allocatorIcEEEEEEEEvEENS_5decayIDTclsr19__to_address_helperIT_EE6__callcl7declvalIRKSC_EEEEE4typeESE_ CODE
 0001:00031a40 00000026H .text$_ZNSt3__116reverse_iteratorINS0_IPNS_12basic_stringIcNS_11char_traitsIcEENS_9allocatorIcEEEEEEEppB6v15007Ev CODE
 0001:00031a70 00000028H .text$_ZNKSt3__116reverse_iteratorINS0_IPNS_12basic_stringIcNS_11char_traitsIcEENS_9allocatorIcEEEEEEE4baseB6v15007Ev CODE
 0001:00031aa0 00000036H .text$_ZNSt3__119__to_address_helperINS_16reverse_iteratorINS1_IPNS_12basic_stringIcNS_11char_traitsIcEENS_9allocatorIcEEEEEEEEvE6__callB6v15007ERKSA_ CODE
 0001:00031ae0 00000019H .text$_ZNKSt3__116reverse_iteratorINS0_IPNS_12basic_stringIcNS_11char_traitsIcEENS_9allocatorIcEEEEEEEptB6v15007Ev CODE
 0001:00031b00 00000038H .text$_ZNKSt3__116reverse_iteratorINS0_IPNS_12basic_stringIcNS_11char_traitsIcEENS_9allocatorIcEEEEEEEdeB6v15007Ev CODE
 0001:00031b40 00000017H .text$_ZNSt3__116reverse_iteratorIPNS_12basic_stringIcNS_11char_traitsIcEENS_9allocatorIcEEEEEmmB6v15007Ev CODE
 0001:00031b60 00000029H .text$_ZNSt3__116reverse_iteratorINS0_IPNS_12basic_stringIcNS_11char_traitsIcEENS_9allocatorIcEEEEEEEC2B6v15007ES8_ CODE
 0001:00031b90 00000075H .text$_ZNSt3__114__split_bufferINS_12basic_stringIcNS_11char_traitsIcEENS_9allocatorIcEEEERNS4_IS6_EEED2Ev CODE
 0001:00031c10 0000001dH .text$_ZNSt3__114__split_bufferINS_12basic_stringIcNS_11char_traitsIcEENS_9allocatorIcEEEERNS4_IS6_EEE5clearB6v15007Ev CODE
 0001:00031c30 00000035H .text$_ZNKSt3__114__split_bufferINS_12basic_stringIcNS_11char_traitsIcEENS_9allocatorIcEEEERNS4_IS6_EEE8capacityB6v15007Ev CODE
 0001:00031c70 00000028H .text$_ZNSt3__114__split_bufferINS_12basic_stringIcNS_11char_traitsIcEENS_9allocatorIcEEEERNS4_IS6_EEE17__destruct_at_endB6v15007EPS6_ CODE
 0001:00031ca0 0000007eH .text$_ZNSt3__114__split_bufferINS_12basic_stringIcNS_11char_traitsIcEENS_9allocatorIcEEEERNS4_IS6_EEE17__destruct_at_endB6v15007EPS6_NS_17integral_constantIbLb0EEE CODE
 0001:00031d20 0000001dH .text$_ZNKSt3__114__split_bufferINS_12basic_stringIcNS_11char_traitsIcEENS_9allocatorIcEEEERNS4_IS6_EEE9__end_capB6v15007Ev CODE
 0001:00031d40 00000019H .text$_ZNKSt3__117__compressed_pairIPNS_12basic_stringIcNS_11char_traitsIcEENS_9allocatorIcEEEERNS4_IS6_EEE5firstB6v15007Ev CODE
 0001:00031d60 00000049H .text$_ZNKSt3__112regex_traitsIcE16lookup_classnameB6v15007IPKcEEtT_S5_b CODE
 0001:00031db0 0000006bH .text$_ZNSt3__119__throw_regex_errorB6v15007ILNS_15regex_constants10error_typeE2EEEvv CODE
 0001:00031e20 0000011eH .text$_ZNKSt3__112regex_traitsIcE18__lookup_classnameIPKcEEtT_S5_bc CODE
 0001:00031f40 0000002eH .text$_ZNKSt3__15ctypeIcE7tolowerB6v15007EPcPKc CODE
 0001:00031f70 0000002dH .text$_ZNSt3__120__bracket_expressionIcNS_12regex_traitsIcEEE15__add_neg_classB6v15007Et CODE
 0001:00031fa0 000000bfH .text$_ZNSt3__120__bracket_expressionIcNS_12regex_traitsIcEEE14__add_neg_charB6v15007Ec CODE
 0001:00032060 00000060H .text$_ZNSt3__16vectorINS_4pairINS_12basic_stringIcNS_11char_traitsIcEENS_9allocatorIcEEEES7_EENS5_IS8_EEE9push_backB6v15007EOS8_ CODE
 0001:000320c0 00000034H .text$_ZNSt3__19make_pairB6v15007INS_12basic_stringIcNS_11char_traitsIcEENS_9allocatorIcEEEES6_EENS_4pairINS_18__unwrap_ref_decayIT_E4typeENS8_IT0_E4typeEEEOS9_OSC_ CODE
 0001:00032100 00000152H .text$_ZNKSt3__112regex_traitsIcE9transformINS_11__wrap_iterIPcEEEENS_12basic_stringIcNS_11char_traitsIcEENS_9allocatorIcEEEET_SC_ CODE
 0001:00032260 0000006bH .text$_ZNSt3__119__throw_regex_errorB6v15007ILNS_15regex_constants10error_typeE9EEEvv CODE
 0001:000322d0 0000001dH .text$_ZNSt3__16vectorINS_4pairINS_12basic_stringIcNS_11char_traitsIcEENS_9allocatorIcEEEES7_EENS5_IS8_EEE9__end_capB6v15007Ev CODE
 0001:000322f0 00000099H .text$_ZNSt3__16vectorINS_4pairINS_12basic_stringIcNS_11char_traitsIcEENS_9allocatorIcEEEES7_EENS5_IS8_EEE22__construct_one_at_endB6v15007IJS8_EEEvDpOT_ CODE
 0001:00032390 000000eeH .text$_ZNSt3__16vectorINS_4pairINS_12basic_stringIcNS_11char_traitsIcEENS_9allocatorIcEEEES7_EENS5_IS8_EEE21__push_back_slow_pathIS8_EEvOT_ CODE
 0001:00032480 00000019H .text$_ZNSt3__117__compressed_pairIPNS_4pairINS_12basic_stringIcNS_11char_traitsIcEENS_9allocatorIcEEEES7_EENS5_IS8_EEE5firstB6v15007Ev CODE
 0001:000324a0 0000000bH .text$_ZNSt3__122__compressed_pair_elemIPNS_4pairINS_12basic_stringIcNS_11char_traitsIcEENS_9allocatorIcEEEES7_EELi0ELb0EE5__getB6v15007Ev CODE
 0001:000324b0 0000002dH .text$_ZNSt3__16vectorINS_4pairINS_12basic_stringIcNS_11char_traitsIcEENS_9allocatorIcEEEES7_EENS5_IS8_EEE21_ConstructTransactionC1ERSA_y CODE
 0001:000324e0 0000002dH .text$_ZNSt3__116allocator_traitsINS_9allocatorINS_4pairINS_12basic_stringIcNS_11char_traitsIcEENS1_IcEEEES7_EEEEE9constructB6v15007IS8_JS8_EvEEvRS9_PT_DpOT0_ CODE
 0001:00032510 00000019H .text$_ZNSt3__16vectorINS_4pairINS_12basic_stringIcNS_11char_traitsIcEENS_9allocatorIcEEEES7_EENS5_IS8_EEE21_ConstructTransactionD1Ev CODE
 0001:00032530 00000046H .text$_ZNSt3__16vectorINS_4pairINS_12basic_stringIcNS_11char_traitsIcEENS_9allocatorIcEEEES7_EENS5_IS8_EEE21_ConstructTransactionC2ERSA_y CODE
 0001:00032580 00000028H .text$_ZNSt3__19allocatorINS_4pairINS_12basic_stringIcNS_11char_traitsIcEENS0_IcEEEES6_EEE9constructB6v15007IS7_JS7_EEEvPT_DpOT0_ CODE
 0001:000325b0 00000023H .text$_ZNSt3__14pairINS_12basic_stringIcNS_11char_traitsIcEENS_9allocatorIcEEEES6_EC1EOS7_ CODE
 0001:000325e0 0000003fH .text$_ZNSt3__14pairINS_12basic_stringIcNS_11char_traitsIcEENS_9allocatorIcEEEES6_EC2EOS7_ CODE
 0001:00032620 00000016H .text$_ZNSt3__16vectorINS_4pairINS_12basic_stringIcNS_11char_traitsIcEENS_9allocatorIcEEEES7_EENS5_IS8_EEE21_ConstructTransactionD2Ev CODE
 0001:00032640 000000a0H .text$_ZNKSt3__16vectorINS_4pairINS_12basic_stringIcNS_11char_traitsIcEENS_9allocatorIcEEEES7_EENS5_IS8_EEE11__recommendB6v15007Ey CODE
 0001:000326e0 00000037H .text$_ZNSt3__114__split_bufferINS_4pairINS_12basic_stringIcNS_11char_traitsIcEENS_9allocatorIcEEEES7_EERNS5_IS8_EEEC1EyySA_ CODE
 0001:00032720 0000014cH .text$_ZNSt3__16vectorINS_4pairINS_12basic_stringIcNS_11char_traitsIcEENS_9allocatorIcEEEES7_EENS5_IS8_EEE26__swap_out_circular_bufferERNS_14__split_bufferIS8_RS9_EE CODE
 0001:00032870 00000019H .text$_ZNSt3__114__split_bufferINS_4pairINS_12basic_stringIcNS_11char_traitsIcEENS_9allocatorIcEEEES7_EERNS5_IS8_EEED1Ev CODE
 0001:00032890 00000059H .text$_ZNKSt3__16vectorINS_4pairINS_12basic_stringIcNS_11char_traitsIcEENS_9allocatorIcEEEES7_EENS5_IS8_EEE8max_sizeEv CODE
 0001:000328f0 00000016H .text$_ZNKSt3__16vectorINS_4pairINS_12basic_stringIcNS_11char_traitsIcEENS_9allocatorIcEEEES7_EENS5_IS8_EEE20__throw_length_errorB6v15007Ev CODE
 0001:00032910 00000019H .text$_ZNSt3__116allocator_traitsINS_9allocatorINS_4pairINS_12basic_stringIcNS_11char_traitsIcEENS1_IcEEEES7_EEEEE8max_sizeB6v15007IS9_vEEyRKS9_ CODE
 0001:00032930 0000001dH .text$_ZNKSt3__16vectorINS_4pairINS_12basic_stringIcNS_11char_traitsIcEENS_9allocatorIcEEEES7_EENS5_IS8_EEE7__allocB6v15007Ev CODE
 0001:00032950 00000011H .text$_ZNKSt3__19allocatorINS_4pairINS_12basic_stringIcNS_11char_traitsIcEENS0_IcEEEES6_EEE8max_sizeB6v15007Ev CODE
 0001:00032970 00000019H .text$_ZNKSt3__117__compressed_pairIPNS_4pairINS_12basic_stringIcNS_11char_traitsIcEENS_9allocatorIcEEEES7_EENS5_IS8_EEE6secondB6v15007Ev CODE
 0001:00032990 0000000bH .text$_ZNKSt3__122__compressed_pair_elemINS_9allocatorINS_4pairINS_12basic_stringIcNS_11char_traitsIcEENS1_IcEEEES7_EEEELi1ELb1EE5__getB6v15007Ev CODE
 0001:000329a0 000000caH .text$_ZNSt3__114__split_bufferINS_4pairINS_12basic_stringIcNS_11char_traitsIcEENS_9allocatorIcEEEES7_EERNS5_IS8_EEEC2EyySA_ CODE
 0001:00032a70 0000002dH .text$_ZNSt3__117__compressed_pairIPNS_4pairINS_12basic_stringIcNS_11char_traitsIcEENS_9allocatorIcEEEES7_EERNS5_IS8_EEEC1B6v15007IDnSB_EEOT_OT0_ CODE
 0001:00032aa0 0000004dH .text$_ZNSt3__119__allocate_at_leastB6v15007INS_9allocatorINS_4pairINS_12basic_stringIcNS_11char_traitsIcEENS1_IcEEEES7_EEEEEENS_19__allocation_resultINS_16allocator_traitsIT_E7pointerEEERSC_y CODE
 0001:00032af0 0000001dH .text$_ZNSt3__114__split_bufferINS_4pairINS_12basic_stringIcNS_11char_traitsIcEENS_9allocatorIcEEEES7_EERNS5_IS8_EEE7__allocB6v15007Ev CODE
 0001:00032b10 0000001dH .text$_ZNSt3__114__split_bufferINS_4pairINS_12basic_stringIcNS_11char_traitsIcEENS_9allocatorIcEEEES7_EERNS5_IS8_EEE9__end_capB6v15007Ev CODE
 0001:00032b30 00000040H .text$_ZNSt3__117__compressed_pairIPNS_4pairINS_12basic_stringIcNS_11char_traitsIcEENS_9allocatorIcEEEES7_EERNS5_IS8_EEEC2B6v15007IDnSB_EEOT_OT0_ CODE
 0001:00032b70 0000001eH .text$_ZNSt3__122__compressed_pair_elemIRNS_9allocatorINS_4pairINS_12basic_stringIcNS_11char_traitsIcEENS1_IcEEEES7_EEEELi1ELb0EEC2B6v15007ISA_vEEOT_ CODE
 0001:00032b90 0000004eH .text$_ZNSt3__19allocatorINS_4pairINS_12basic_stringIcNS_11char_traitsIcEENS0_IcEEEES6_EEE8allocateB6v15007Ey CODE
 0001:00032be0 0000001dH .text$_ZNSt3__117__compressed_pairIPNS_4pairINS_12basic_stringIcNS_11char_traitsIcEENS_9allocatorIcEEEES7_EERNS5_IS8_EEE6secondB6v15007Ev CODE
 0001:00032c00 0000000eH .text$_ZNSt3__122__compressed_pair_elemIRNS_9allocatorINS_4pairINS_12basic_stringIcNS_11char_traitsIcEENS1_IcEEEES7_EEEELi1ELb0EE5__getB6v15007Ev CODE
 0001:00032c10 00000019H .text$_ZNSt3__117__compressed_pairIPNS_4pairINS_12basic_stringIcNS_11char_traitsIcEENS_9allocatorIcEEEES7_EERNS5_IS8_EEE5firstB6v15007Ev CODE
 0001:00032c30 000001a8H .text$_ZNSt3__142__uninitialized_allocator_move_if_noexceptB6v15007INS_9allocatorINS_4pairINS_12basic_stringIcNS_11char_traitsIcEENS1_IcEEEES7_EEEENS_16reverse_iteratorIPS8_EESC_SC_EET2_RT_T0_T1_SD_ CODE
 0001:00032de0 00000023H .text$_ZNSt3__116reverse_iteratorIPNS_4pairINS_12basic_stringIcNS_11char_traitsIcEENS_9allocatorIcEEEES7_EEEC1B6v15007ES9_ CODE
 0001:00032e10 0000000fH .text$_ZNKSt3__116reverse_iteratorIPNS_4pairINS_12basic_stringIcNS_11char_traitsIcEENS_9allocatorIcEEEES7_EEE4baseB6v15007Ev CODE
 0001:00032e20 0000003bH .text$_ZNSt3__14swapB6v15007IPNS_4pairINS_12basic_stringIcNS_11char_traitsIcEENS_9allocatorIcEEEES7_EEEENS_9enable_ifIXaasr21is_move_constructibleIT_EE5valuesr18is_move_assignableISB_EE5valueEvE4typeERSB_SE_ CODE
 0001:00032e60 000000b3H .text$_ZNKSt3__16vectorINS_4pairINS_12basic_stringIcNS_11char_traitsIcEENS_9allocatorIcEEEES7_EENS5_IS8_EEE14__annotate_newB6v15007Ey CODE
 0001:00032f20 00000007H .text$_ZNSt3__125__debug_db_invalidate_allB6v15007INS_6vectorINS_4pairINS_12basic_stringIcNS_11char_traitsIcEENS_9allocatorIcEEEES8_EENS6_IS9_EEEEEEvPT_ CODE
 0001:00032f30 0000003fH .text$_ZNSt3__1neB6v15007IPNS_4pairINS_12basic_stringIcNS_11char_traitsIcEENS_9allocatorIcEEEES7_EES9_EEbRKNS_16reverse_iteratorIT_EERKNSA_IT0_EE CODE
 0001:00032f70 00000019H .text$_ZNSt3__112__to_addressB6v15007INS_16reverse_iteratorIPNS_4pairINS_12basic_stringIcNS_11char_traitsIcEENS_9allocatorIcEEEES8_EEEEvEENS_5decayIDTclsr19__to_address_helperIT_EE6__callcl7declvalIRKSD_EEEEE4typeESF_ CODE
 0001:00032f90 00000027H .text$_ZNKSt3__116reverse_iteratorIPNS_4pairINS_12basic_stringIcNS_11char_traitsIcEENS_9allocatorIcEEEES7_EEEdeB6v15007Ev CODE
 0001:00032fc0 00000017H .text$_ZNSt3__116reverse_iteratorIPNS_4pairINS_12basic_stringIcNS_11char_traitsIcEENS_9allocatorIcEEEES7_EEEppB6v15007Ev CODE
 0001:00032fe0 00000037H .text$_ZNSt3__129_AllocatorDestroyRangeReverseINS_9allocatorINS_4pairINS_12basic_stringIcNS_11char_traitsIcEENS1_IcEEEES7_EEEENS_16reverse_iteratorIPS8_EEEC1B6v15007ERS9_RSC_SF_ CODE
 0001:00033020 0000008eH .text$_ZNKSt3__129_AllocatorDestroyRangeReverseINS_9allocatorINS_4pairINS_12basic_stringIcNS_11char_traitsIcEENS1_IcEEEES7_EEEENS_16reverse_iteratorIPS8_EEEclB6v15007Ev CODE
 0001:000330b0 00000036H .text$_ZNSt3__119__to_address_helperINS_16reverse_iteratorIPNS_4pairINS_12basic_stringIcNS_11char_traitsIcEENS_9allocatorIcEEEES8_EEEEvE6__callB6v15007ERKSB_ CODE
 0001:000330f0 00000019H .text$_ZNKSt3__116reverse_iteratorIPNS_4pairINS_12basic_stringIcNS_11char_traitsIcEENS_9allocatorIcEEEES7_EEEptB6v15007Ev CODE
 0001:00033110 0000003aH .text$_ZNSt3__129_AllocatorDestroyRangeReverseINS_9allocatorINS_4pairINS_12basic_stringIcNS_11char_traitsIcEENS1_IcEEEES7_EEEENS_16reverse_iteratorIPS8_EEEC2B6v15007ERS9_RSC_SF_ CODE
 0001:00033150 00000064H .text$_ZNSt3__119__allocator_destroyB6v15007INS_9allocatorINS_4pairINS_12basic_stringIcNS_11char_traitsIcEENS1_IcEEEES7_EEEENS_16reverse_iteratorINSA_IPS8_EEEESD_EEvRT_T0_T1_ CODE
 0001:000331c0 00000019H .text$_ZNSt3__116reverse_iteratorINS0_IPNS_4pairINS_12basic_stringIcNS_11char_traitsIcEENS_9allocatorIcEEEES7_EEEEEC1B6v15007ESA_ CODE
 0001:000331e0 00000045H .text$_ZNSt3__1neB6v15007INS_16reverse_iteratorIPNS_4pairINS_12basic_stringIcNS_11char_traitsIcEENS_9allocatorIcEEEES8_EEEESB_EEbRKNS1_IT_EERKNS1_IT0_EE CODE
 0001:00033230 00000019H .text$_ZNSt3__112__to_addressB6v15007INS_16reverse_iteratorINS1_IPNS_4pairINS_12basic_stringIcNS_11char_traitsIcEENS_9allocatorIcEEEES8_EEEEEEvEENS_5decayIDTclsr19__to_address_helperIT_EE6__callcl7declvalIRKSE_EEEEE4typeESG_ CODE
 0001:00033250 00000026H .text$_ZNSt3__116reverse_iteratorINS0_IPNS_4pairINS_12basic_stringIcNS_11char_traitsIcEENS_9allocatorIcEEEES7_EEEEEppB6v15007Ev CODE
 0001:00033280 00000028H .text$_ZNKSt3__116reverse_iteratorINS0_IPNS_4pairINS_12basic_stringIcNS_11char_traitsIcEENS_9allocatorIcEEEES7_EEEEE4baseB6v15007Ev CODE
 0001:000332b0 00000036H .text$_ZNSt3__119__to_address_helperINS_16reverse_iteratorINS1_IPNS_4pairINS_12basic_stringIcNS_11char_traitsIcEENS_9allocatorIcEEEES8_EEEEEEvE6__callB6v15007ERKSC_ CODE
 0001:000332f0 00000019H .text$_ZNKSt3__116reverse_iteratorINS0_IPNS_4pairINS_12basic_stringIcNS_11char_traitsIcEENS_9allocatorIcEEEES7_EEEEEptB6v15007Ev CODE
 0001:00033310 00000038H .text$_ZNKSt3__116reverse_iteratorINS0_IPNS_4pairINS_12basic_stringIcNS_11char_traitsIcEENS_9allocatorIcEEEES7_EEEEEdeB6v15007Ev CODE
 0001:00033350 00000017H .text$_ZNSt3__116reverse_iteratorIPNS_4pairINS_12basic_stringIcNS_11char_traitsIcEENS_9allocatorIcEEEES7_EEEmmB6v15007Ev CODE
 0001:00033370 00000029H .text$_ZNSt3__116reverse_iteratorINS0_IPNS_4pairINS_12basic_stringIcNS_11char_traitsIcEENS_9allocatorIcEEEES7_EEEEEC2B6v15007ESA_ CODE
 0001:000333a0 00000026H .text$_ZNSt3__116reverse_iteratorIPNS_4pairINS_12basic_stringIcNS_11char_traitsIcEENS_9allocatorIcEEEES7_EEEC2B6v15007ES9_ CODE
 0001:000333d0 00000075H .text$_ZNSt3__114__split_bufferINS_4pairINS_12basic_stringIcNS_11char_traitsIcEENS_9allocatorIcEEEES7_EERNS5_IS8_EEED2Ev CODE
 0001:00033450 0000001dH .text$_ZNSt3__114__split_bufferINS_4pairINS_12basic_stringIcNS_11char_traitsIcEENS_9allocatorIcEEEES7_EERNS5_IS8_EEE5clearB6v15007Ev CODE
 0001:00033470 00000035H .text$_ZNKSt3__114__split_bufferINS_4pairINS_12basic_stringIcNS_11char_traitsIcEENS_9allocatorIcEEEES7_EERNS5_IS8_EEE8capacityB6v15007Ev CODE
 0001:000334b0 00000028H .text$_ZNSt3__114__split_bufferINS_4pairINS_12basic_stringIcNS_11char_traitsIcEENS_9allocatorIcEEEES7_EERNS5_IS8_EEE17__destruct_at_endB6v15007EPS8_ CODE
 0001:000334e0 0000007eH .text$_ZNSt3__114__split_bufferINS_4pairINS_12basic_stringIcNS_11char_traitsIcEENS_9allocatorIcEEEES7_EERNS5_IS8_EEE17__destruct_at_endB6v15007EPS8_NS_17integral_constantIbLb0EEE CODE
 0001:00033560 0000001dH .text$_ZNKSt3__114__split_bufferINS_4pairINS_12basic_stringIcNS_11char_traitsIcEENS_9allocatorIcEEEES7_EERNS5_IS8_EEE9__end_capB6v15007Ev CODE
 0001:00033580 00000019H .text$_ZNKSt3__117__compressed_pairIPNS_4pairINS_12basic_stringIcNS_11char_traitsIcEENS_9allocatorIcEEEES7_EERNS5_IS8_EEE5firstB6v15007Ev CODE
 0001:000335a0 0000002dH .text$_ZNSt3__14pairINS_12basic_stringIcNS_11char_traitsIcEENS_9allocatorIcEEEES6_EC1B6v15007IS6_S6_LPv0EEEOT_OT0_ CODE
 0001:000335d0 00000040H .text$_ZNSt3__14pairINS_12basic_stringIcNS_11char_traitsIcEENS_9allocatorIcEEEES6_EC2B6v15007IS6_S6_LPv0EEEOT_OT0_ CODE
 0001:00033610 00000060H .text$_ZNSt3__16vectorINS_4pairIccEENS_9allocatorIS2_EEE9push_backB6v15007EOS2_ CODE
 0001:00033670 0000002cH .text$_ZNSt3__19make_pairB6v15007IccEENS_4pairINS_18__unwrap_ref_decayIT_E4typeENS2_IT0_E4typeEEEOS3_OS6_ CODE
 0001:000336a0 0000002cH .text$_ZNSt3__19make_pairB6v15007IRcS1_EENS_4pairINS_18__unwrap_ref_decayIT_E4typeENS3_IT0_E4typeEEEOS4_OS7_ CODE
 0001:000336d0 0000001dH .text$_ZNSt3__16vectorINS_4pairIccEENS_9allocatorIS2_EEE9__end_capB6v15007Ev CODE
 0001:000336f0 00000099H .text$_ZNSt3__16vectorINS_4pairIccEENS_9allocatorIS2_EEE22__construct_one_at_endB6v15007IJS2_EEEvDpOT_ CODE
 0001:00033790 000000eeH .text$_ZNSt3__16vectorINS_4pairIccEENS_9allocatorIS2_EEE21__push_back_slow_pathIS2_EEvOT_ CODE
 0001:00033880 00000019H .text$_ZNSt3__117__compressed_pairIPNS_4pairIccEENS_9allocatorIS2_EEE5firstB6v15007Ev CODE
 0001:000338a0 0000000bH .text$_ZNSt3__122__compressed_pair_elemIPNS_4pairIccEELi0ELb0EE5__getB6v15007Ev CODE
 0001:000338b0 0000002dH .text$_ZNSt3__16vectorINS_4pairIccEENS_9allocatorIS2_EEE21_ConstructTransactionC1ERS5_y CODE
 0001:000338e0 0000002dH .text$_ZNSt3__116allocator_traitsINS_9allocatorINS_4pairIccEEEEE9constructB6v15007IS3_JS3_EvEEvRS4_PT_DpOT0_ CODE
 0001:00033910 00000019H .text$_ZNSt3__16vectorINS_4pairIccEENS_9allocatorIS2_EEE21_ConstructTransactionD1Ev CODE
 0001:00033930 00000049H .text$_ZNSt3__16vectorINS_4pairIccEENS_9allocatorIS2_EEE21_ConstructTransactionC2ERS5_y CODE
 0001:00033980 00000026H .text$_ZNSt3__19allocatorINS_4pairIccEEE9constructB6v15007IS2_JS2_EEEvPT_DpOT0_ CODE
 0001:000339b0 00000016H .text$_ZNSt3__16vectorINS_4pairIccEENS_9allocatorIS2_EEE21_ConstructTransactionD2Ev CODE
 0001:000339d0 000000a0H .text$_ZNKSt3__16vectorINS_4pairIccEENS_9allocatorIS2_EEE11__recommendB6v15007Ey CODE
 0001:00033a70 00000037H .text$_ZNSt3__114__split_bufferINS_4pairIccEERNS_9allocatorIS2_EEEC1EyyS5_ CODE
 0001:00033ab0 0000014cH .text$_ZNSt3__16vectorINS_4pairIccEENS_9allocatorIS2_EEE26__swap_out_circular_bufferERNS_14__split_bufferIS2_RS4_EE CODE
 0001:00033c00 00000019H .text$_ZNSt3__114__split_bufferINS_4pairIccEERNS_9allocatorIS2_EEED1Ev CODE
 0001:00033c20 00000059H .text$_ZNKSt3__16vectorINS_4pairIccEENS_9allocatorIS2_EEE8max_sizeEv CODE
 0001:00033c80 00000016H .text$_ZNKSt3__16vectorINS_4pairIccEENS_9allocatorIS2_EEE20__throw_length_errorB6v15007Ev CODE
 0001:00033ca0 00000019H .text$_ZNSt3__116allocator_traitsINS_9allocatorINS_4pairIccEEEEE8max_sizeB6v15007IS4_vEEyRKS4_ CODE
 0001:00033cc0 0000001dH .text$_ZNKSt3__16vectorINS_4pairIccEENS_9allocatorIS2_EEE7__allocB6v15007Ev CODE
 0001:00033ce0 00000011H .text$_ZNKSt3__19allocatorINS_4pairIccEEE8max_sizeB6v15007Ev CODE
 0001:00033d00 00000019H .text$_ZNKSt3__117__compressed_pairIPNS_4pairIccEENS_9allocatorIS2_EEE6secondB6v15007Ev CODE
 0001:00033d20 0000000bH .text$_ZNKSt3__122__compressed_pair_elemINS_9allocatorINS_4pairIccEEEELi1ELb1EE5__getB6v15007Ev CODE
 0001:00033d30 000000d0H .text$_ZNSt3__114__split_bufferINS_4pairIccEERNS_9allocatorIS2_EEEC2EyyS5_ CODE
 0001:00033e00 0000002dH .text$_ZNSt3__117__compressed_pairIPNS_4pairIccEERNS_9allocatorIS2_EEEC1B6v15007IDnS6_EEOT_OT0_ CODE
 0001:00033e30 0000004dH .text$_ZNSt3__119__allocate_at_leastB6v15007INS_9allocatorINS_4pairIccEEEEEENS_19__allocation_resultINS_16allocator_traitsIT_E7pointerEEERS7_y CODE
 0001:00033e80 0000001dH .text$_ZNSt3__114__split_bufferINS_4pairIccEERNS_9allocatorIS2_EEE7__allocB6v15007Ev CODE
 0001:00033ea0 0000001dH .text$_ZNSt3__114__split_bufferINS_4pairIccEERNS_9allocatorIS2_EEE9__end_capB6v15007Ev CODE
 0001:00033ec0 00000040H .text$_ZNSt3__117__compressed_pairIPNS_4pairIccEERNS_9allocatorIS2_EEEC2B6v15007IDnS6_EEOT_OT0_ CODE
 0001:00033f00 0000001eH .text$_ZNSt3__122__compressed_pair_elemIRNS_9allocatorINS_4pairIccEEEELi1ELb0EEC2B6v15007IS5_vEEOT_ CODE
 0001:00033f20 00000051H .text$_ZNSt3__19allocatorINS_4pairIccEEE8allocateB6v15007Ey CODE
 0001:00033f80 0000001dH .text$_ZNSt3__117__compressed_pairIPNS_4pairIccEERNS_9allocatorIS2_EEE6secondB6v15007Ev CODE
 0001:00033fa0 0000000eH .text$_ZNSt3__122__compressed_pair_elemIRNS_9allocatorINS_4pairIccEEEELi1ELb0EE5__getB6v15007Ev CODE
 0001:00033fb0 00000019H .text$_ZNSt3__117__compressed_pairIPNS_4pairIccEERNS_9allocatorIS2_EEE5firstB6v15007Ev CODE
 0001:00033fd0 000001a8H .text$_ZNSt3__142__uninitialized_allocator_move_if_noexceptB6v15007INS_9allocatorINS_4pairIccEEEENS_16reverse_iteratorIPS3_EES7_S7_EET2_RT_T0_T1_S8_ CODE
 0001:00034180 00000023H .text$_ZNSt3__116reverse_iteratorIPNS_4pairIccEEEC1B6v15007ES3_ CODE
 0001:000341b0 0000000fH .text$_ZNKSt3__116reverse_iteratorIPNS_4pairIccEEE4baseB6v15007Ev CODE
 0001:000341c0 0000003bH .text$_ZNSt3__14swapB6v15007IPNS_4pairIccEEEENS_9enable_ifIXaasr21is_move_constructibleIT_EE5valuesr18is_move_assignableIS5_EE5valueEvE4typeERS5_S8_ CODE
 0001:00034200 000000b6H .text$_ZNKSt3__16vectorINS_4pairIccEENS_9allocatorIS2_EEE14__annotate_newB6v15007Ey CODE
 0001:000342c0 00000007H .text$_ZNSt3__125__debug_db_invalidate_allB6v15007INS_6vectorINS_4pairIccEENS_9allocatorIS3_EEEEEEvPT_ CODE
 0001:000342d0 0000003fH .text$_ZNSt3__1neB6v15007IPNS_4pairIccEES3_EEbRKNS_16reverse_iteratorIT_EERKNS4_IT0_EE CODE
 0001:00034310 00000019H .text$_ZNSt3__112__to_addressB6v15007INS_16reverse_iteratorIPNS_4pairIccEEEEvEENS_5decayIDTclsr19__to_address_helperIT_EE6__callcl7declvalIRKS7_EEEEE4typeES9_ CODE
 0001:00034330 00000027H .text$_ZNKSt3__116reverse_iteratorIPNS_4pairIccEEEdeB6v15007Ev CODE
 0001:00034360 00000017H .text$_ZNSt3__116reverse_iteratorIPNS_4pairIccEEEppB6v15007Ev CODE
 0001:00034380 00000037H .text$_ZNSt3__129_AllocatorDestroyRangeReverseINS_9allocatorINS_4pairIccEEEENS_16reverse_iteratorIPS3_EEEC1B6v15007ERS4_RS7_SA_ CODE
 0001:000343c0 0000008eH .text$_ZNKSt3__129_AllocatorDestroyRangeReverseINS_9allocatorINS_4pairIccEEEENS_16reverse_iteratorIPS3_EEEclB6v15007Ev CODE
 0001:00034450 00000036H .text$_ZNSt3__119__to_address_helperINS_16reverse_iteratorIPNS_4pairIccEEEEvE6__callB6v15007ERKS5_ CODE
 0001:00034490 00000019H .text$_ZNKSt3__116reverse_iteratorIPNS_4pairIccEEEptB6v15007Ev CODE
 0001:000344b0 0000003aH .text$_ZNSt3__129_AllocatorDestroyRangeReverseINS_9allocatorINS_4pairIccEEEENS_16reverse_iteratorIPS3_EEEC2B6v15007ERS4_RS7_SA_ CODE
 0001:000344f0 00000064H .text$_ZNSt3__119__allocator_destroyB6v15007INS_9allocatorINS_4pairIccEEEENS_16reverse_iteratorINS5_IPS3_EEEES8_EEvRT_T0_T1_ CODE
 0001:00034560 00000019H .text$_ZNSt3__116reverse_iteratorINS0_IPNS_4pairIccEEEEEC1B6v15007ES4_ CODE
 0001:00034580 00000045H .text$_ZNSt3__1neB6v15007INS_16reverse_iteratorIPNS_4pairIccEEEES5_EEbRKNS1_IT_EERKNS1_IT0_EE CODE
 0001:000345d0 00000019H .text$_ZNSt3__112__to_addressB6v15007INS_16reverse_iteratorINS1_IPNS_4pairIccEEEEEEvEENS_5decayIDTclsr19__to_address_helperIT_EE6__callcl7declvalIRKS8_EEEEE4typeESA_ CODE
 0001:000345f0 00000026H .text$_ZNSt3__116reverse_iteratorINS0_IPNS_4pairIccEEEEEppB6v15007Ev CODE
 0001:00034620 00000028H .text$_ZNKSt3__116reverse_iteratorINS0_IPNS_4pairIccEEEEE4baseB6v15007Ev CODE
 0001:00034650 00000036H .text$_ZNSt3__119__to_address_helperINS_16reverse_iteratorINS1_IPNS_4pairIccEEEEEEvE6__callB6v15007ERKS6_ CODE
 0001:00034690 00000019H .text$_ZNKSt3__116reverse_iteratorINS0_IPNS_4pairIccEEEEEptB6v15007Ev CODE
 0001:000346b0 00000038H .text$_ZNKSt3__116reverse_iteratorINS0_IPNS_4pairIccEEEEEdeB6v15007Ev CODE
 0001:000346f0 00000017H .text$_ZNSt3__116reverse_iteratorIPNS_4pairIccEEEmmB6v15007Ev CODE
 0001:00034710 00000029H .text$_ZNSt3__116reverse_iteratorINS0_IPNS_4pairIccEEEEEC2B6v15007ES4_ CODE
 0001:00034740 00000026H .text$_ZNSt3__116reverse_iteratorIPNS_4pairIccEEEC2B6v15007ES3_ CODE
 0001:00034770 00000075H .text$_ZNSt3__114__split_bufferINS_4pairIccEERNS_9allocatorIS2_EEED2Ev CODE
 0001:000347f0 0000001dH .text$_ZNSt3__114__split_bufferINS_4pairIccEERNS_9allocatorIS2_EEE5clearB6v15007Ev CODE
 0001:00034810 0000002fH .text$_ZNKSt3__114__split_bufferINS_4pairIccEERNS_9allocatorIS2_EEE8capacityB6v15007Ev CODE
 0001:00034840 00000028H .text$_ZNSt3__114__split_bufferINS_4pairIccEERNS_9allocatorIS2_EEE17__destruct_at_endB6v15007EPS2_ CODE
 0001:00034870 0000007eH .text$_ZNSt3__114__split_bufferINS_4pairIccEERNS_9allocatorIS2_EEE17__destruct_at_endB6v15007EPS2_NS_17integral_constantIbLb0EEE CODE
 0001:000348f0 0000001dH .text$_ZNKSt3__114__split_bufferINS_4pairIccEERNS_9allocatorIS2_EEE9__end_capB6v15007Ev CODE
 0001:00034910 00000019H .text$_ZNKSt3__117__compressed_pairIPNS_4pairIccEERNS_9allocatorIS2_EEE5firstB6v15007Ev CODE
 0001:00034930 0000002dH .text$_ZNSt3__14pairIccEC1B6v15007IccLPv0EEEOT_OT0_ CODE
 0001:00034960 0000002eH .text$_ZNSt3__14pairIccEC2B6v15007IccLPv0EEEOT_OT0_ CODE
 0001:00034990 0000002dH .text$_ZNSt3__14pairIccEC1B6v15007IRcS3_LPv0EEEOT_OT0_ CODE
 0001:000349c0 0000002eH .text$_ZNSt3__14pairIccEC2B6v15007IRcS3_LPv0EEEOT_OT0_ CODE
 0001:000349f0 0000002bH .text$_ZNSt3__128__begin_marked_subexpressionIcEC1B6v15007EjPNS_6__nodeIcEE CODE
 0001:00034a20 00000045H .text$_ZNSt3__128__begin_marked_subexpressionIcEC2B6v15007EjPNS_6__nodeIcEE CODE
 0001:00034a70 00000019H .text$_ZNSt3__128__begin_marked_subexpressionIcED1Ev CODE
 0001:00034a90 00000028H .text$_ZNSt3__128__begin_marked_subexpressionIcED0Ev CODE
 0001:00034ac0 0000006cH .text$_ZNKSt3__128__begin_marked_subexpressionIcE6__execERNS_7__stateIcEE CODE
 0001:00034b30 00000019H .text$_ZNSt3__128__begin_marked_subexpressionIcED2Ev CODE
 0001:00034b50 0000002bH .text$_ZNSt3__126__end_marked_subexpressionIcEC1B6v15007EjPNS_6__nodeIcEE CODE
 0001:00034b80 00000045H .text$_ZNSt3__126__end_marked_subexpressionIcEC2B6v15007EjPNS_6__nodeIcEE CODE
 0001:00034bd0 00000019H .text$_ZNSt3__126__end_marked_subexpressionIcED1Ev CODE
 0001:00034bf0 00000028H .text$_ZNSt3__126__end_marked_subexpressionIcED0Ev CODE
 0001:00034c20 00000091H .text$_ZNKSt3__126__end_marked_subexpressionIcE6__execERNS_7__stateIcEE CODE
 0001:00034cc0 00000019H .text$_ZNSt3__126__end_marked_subexpressionIcED2Ev CODE
 0001:00034ce0 00000078H .text$_ZNSt3__111basic_regexIcNS_12regex_traitsIcEEE27__push_nongreedy_inf_repeatB6v15007EyPNS_16__owns_one_stateIcEEjj CODE
 0001:00034d60 00000075H .text$_ZNSt3__111basic_regexIcNS_12regex_traitsIcEEE24__push_greedy_inf_repeatB6v15007EyPNS_16__owns_one_stateIcEEjj CODE
 0001:00034de0 00000368H .text$_ZNSt3__111basic_regexIcNS_12regex_traitsIcEEE11__push_loopEyyPNS_16__owns_one_stateIcEEyyb CODE
 0001:00035150 00000126H .text$_ZNSt3__111basic_regexIcNS_12regex_traitsIcEEE17__parse_DUP_COUNTIPKcEET_S7_S7_Ri CODE
 0001:00035280 0000006bH .text$_ZNSt3__119__throw_regex_errorB6v15007ILNS_15regex_constants10error_typeE8EEEvv CODE
 0001:000352f0 0000006bH .text$_ZNSt3__119__throw_regex_errorB6v15007ILNS_15regex_constants10error_typeE7EEEvv CODE
 0001:00035360 0000001bH .text$_ZNKSt3__110unique_ptrINS_13__empty_stateIcEENS_14default_deleteIS2_EEE3getB6v15007Ev CODE
 0001:00035380 000000a4H .text$_ZNSt3__16__loopIcEC1B6v15007EjPNS_6__nodeIcEEPNS_16__owns_one_stateIcEEjjbyy CODE
 0001:00035430 00000023H .text$_ZNSt3__110unique_ptrINS_6__loopIcEENS_14default_deleteIS2_EEEC1B6v15007ILb1EvEEPS2_ CODE
 0001:00035460 0000001bH .text$_ZNKSt3__110unique_ptrINS_6__loopIcEENS_14default_deleteIS2_EEE3getB6v15007Ev CODE
 0001:00035480 00000023H .text$_ZNSt3__117__repeat_one_loopIcEC1B6v15007EPNS_6__nodeIcEE CODE
 0001:000354b0 0000001bH .text$_ZNKSt3__110unique_ptrINS_6__loopIcEENS_14default_deleteIS2_EEEptB6v15007Ev CODE
 0001:000354d0 0000000fH .text$_ZNSt3__117__owns_two_statesIcE6secondB6v15007Ev CODE
 0001:000354e0 0000003bH .text$_ZNSt3__110unique_ptrINS_6__loopIcEENS_14default_deleteIS2_EEE7releaseB6v15007Ev CODE
 0001:00035520 00000019H .text$_ZNSt3__110unique_ptrINS_6__loopIcEENS_14default_deleteIS2_EEED1B6v15007Ev CODE
 0001:00035540 00000019H .text$_ZNKSt3__117__compressed_pairIPNS_13__empty_stateIcEENS_14default_deleteIS2_EEE5firstB6v15007Ev CODE
 0001:00035560 0000000bH .text$_ZNKSt3__122__compressed_pair_elemIPNS_13__empty_stateIcEELi0ELb0EE5__getB6v15007Ev CODE
 0001:00035570 000000b2H .text$_ZNSt3__16__loopIcEC2B6v15007EjPNS_6__nodeIcEEPNS_16__owns_one_stateIcEEjjbyy CODE
 0001:00035630 00000048H .text$_ZNSt3__117__owns_two_statesIcEC2B6v15007EPNS_6__nodeIcEEPNS_16__owns_one_stateIcEE CODE
 0001:00035680 00000019H .text$_ZNSt3__16__loopIcED1Ev CODE
 0001:000356a0 00000028H .text$_ZNSt3__16__loopIcED0Ev CODE
 0001:000356d0 00000238H .text$_ZNKSt3__16__loopIcE6__execERNS_7__stateIcEE CODE
 0001:00035910 00000089H .text$_ZNKSt3__16__loopIcE12__exec_splitEbRNS_7__stateIcEE CODE
 0001:000359a0 00000019H .text$_ZNSt3__117__owns_two_statesIcED1Ev CODE
 0001:000359c0 00000028H .text$_ZNSt3__117__owns_two_statesIcED0Ev CODE
 0001:000359f0 0000004fH .text$_ZNSt3__117__owns_two_statesIcED2Ev CODE
 0001:00035a40 00000019H .text$_ZNSt3__16__loopIcED2Ev CODE
 0001:00035a60 00000025H .text$_ZNSt3__16vectorINS_4pairIyPKcEENS_9allocatorIS4_EEEixB6v15007Ey CODE
 0001:00035a90 000000f4H .text$_ZNKSt3__16__loopIcE13__init_repeatB6v15007ERNS_7__stateIcEE CODE
 0001:00035b90 0000000fH .text$_ZNKSt3__117__owns_two_statesIcE6secondB6v15007Ev CODE
 0001:00035ba0 00000035H .text$_ZNSt3__110unique_ptrINS_6__loopIcEENS_14default_deleteIS2_EEEC2B6v15007ILb1EvEEPS2_ CODE
 0001:00035be0 0000002dH .text$_ZNSt3__117__compressed_pairIPNS_6__loopIcEENS_14default_deleteIS2_EEEC1B6v15007IRS3_NS_16__value_init_tagEEEOT_OT0_ CODE
 0001:00035c10 0000003bH .text$_ZNSt3__117__compressed_pairIPNS_6__loopIcEENS_14default_deleteIS2_EEEC2B6v15007IRS3_NS_16__value_init_tagEEEOT_OT0_ CODE
 0001:00035c50 00000021H .text$_ZNSt3__122__compressed_pair_elemIPNS_6__loopIcEELi0ELb0EEC2B6v15007IRS3_vEEOT_ CODE
 0001:00035c80 00000011H .text$_ZNSt3__122__compressed_pair_elemINS_14default_deleteINS_6__loopIcEEEELi1ELb1EEC2B6v15007ENS_16__value_init_tagE CODE
 0001:00035ca0 00000019H .text$_ZNKSt3__117__compressed_pairIPNS_6__loopIcEENS_14default_deleteIS2_EEE5firstB6v15007Ev CODE
 0001:00035cc0 0000000bH .text$_ZNKSt3__122__compressed_pair_elemIPNS_6__loopIcEELi0ELb0EE5__getB6v15007Ev CODE
 0001:00035cd0 0000003aH .text$_ZNSt3__117__repeat_one_loopIcEC2B6v15007EPNS_6__nodeIcEE CODE
 0001:00035d10 00000019H .text$_ZNSt3__117__repeat_one_loopIcED1Ev CODE
 0001:00035d30 00000028H .text$_ZNSt3__117__repeat_one_loopIcED0Ev CODE
 0001:00035d60 00000034H .text$_ZNKSt3__117__repeat_one_loopIcE6__execERNS_7__stateIcEE CODE
 0001:00035da0 00000019H .text$_ZNSt3__117__repeat_one_loopIcED2Ev CODE
 0001:00035dc0 00000019H .text$_ZNSt3__117__compressed_pairIPNS_6__loopIcEENS_14default_deleteIS2_EEE5firstB6v15007Ev CODE
 0001:00035de0 0000000bH .text$_ZNSt3__122__compressed_pair_elemIPNS_6__loopIcEELi0ELb0EE5__getB6v15007Ev CODE
 0001:00035df0 0000001dH .text$_ZNSt3__110unique_ptrINS_6__loopIcEENS_14default_deleteIS2_EEED2B6v15007Ev CODE
 0001:00035e10 0000006aH .text$_ZNSt3__110unique_ptrINS_6__loopIcEENS_14default_deleteIS2_EEE5resetB6v15007EPS2_ CODE
 0001:00035e80 00000019H .text$_ZNSt3__117__compressed_pairIPNS_6__loopIcEENS_14default_deleteIS2_EEE6secondB6v15007Ev CODE
 0001:00035ea0 00000033H .text$_ZNKSt3__114default_deleteINS_6__loopIcEEEclB6v15007EPS2_ CODE
 0001:00035ee0 0000000bH .text$_ZNSt3__122__compressed_pair_elemINS_14default_deleteINS_6__loopIcEEEELi1ELb1EE5__getB6v15007Ev CODE
 0001:00035ef0 0000000fH .text$_ZNSt3__114numeric_limitsIiE3maxB6v15007Ev CODE
 0001:00035f00 00000006H .text$_ZNSt3__123__libcpp_numeric_limitsIiLb1EE3maxB6v15007Ev CODE
 0001:00035f10 0000002dH .text$_ZNSt3__111__alternateIcEC1B6v15007EPNS_16__owns_one_stateIcEES4_ CODE
 0001:00035f40 00000023H .text$_ZNSt3__121__empty_non_own_stateIcEC1B6v15007EPNS_6__nodeIcEE CODE
 0001:00035f70 00000044H .text$_ZNSt3__111__alternateIcEC2B6v15007EPNS_16__owns_one_stateIcEES4_ CODE
 0001:00035fc0 00000019H .text$_ZNSt3__111__alternateIcED1Ev CODE
 0001:00035fe0 00000028H .text$_ZNSt3__111__alternateIcED0Ev CODE
 0001:00036010 0000001cH .text$_ZNKSt3__111__alternateIcE6__execERNS_7__stateIcEE CODE
 0001:00036030 0000006bH .text$_ZNKSt3__111__alternateIcE12__exec_splitEbRNS_7__stateIcEE CODE
 0001:000360a0 00000019H .text$_ZNSt3__111__alternateIcED2Ev CODE
 0001:000360c0 0000003aH .text$_ZNSt3__121__empty_non_own_stateIcEC2B6v15007EPNS_6__nodeIcEE CODE
 0001:00036100 00000019H .text$_ZNSt3__121__empty_non_own_stateIcED1Ev CODE
 0001:00036120 00000028H .text$_ZNSt3__121__empty_non_own_stateIcED0Ev CODE
 0001:00036150 00000034H .text$_ZNKSt3__121__empty_non_own_stateIcE6__execERNS_7__stateIcEE CODE
 0001:00036190 00000019H .text$_ZNSt3__121__empty_non_own_stateIcED2Ev CODE
 0001:000361b0 00000064H .text$_ZNSt3__111basic_regexIcNS_12regex_traitsIcEEE21__parse_RE_expressionIPKcEET_S7_S7_ CODE
 0001:00036220 0000006bH .text$_ZNSt3__119__throw_regex_errorB6v15007ILNS_15regex_constants10error_typeE15EEEvv CODE
 0001:00036290 000000abH .text$_ZNSt3__111basic_regexIcNS_12regex_traitsIcEEE17__parse_simple_REIPKcEET_S7_S7_ CODE
 0001:00036340 00000111H .text$_ZNSt3__111basic_regexIcNS_12regex_traitsIcEEE18__parse_nondupl_REIPKcEET_S7_S7_ CODE
 0001:00036460 000002aaH .text$_ZNSt3__111basic_regexIcNS_12regex_traitsIcEEE22__parse_RE_dupl_symbolIPKcEET_S7_S7_PNS_16__owns_one_stateIcEEjj CODE
 0001:00036710 000000dfH .text$_ZNSt3__111basic_regexIcNS_12regex_traitsIcEEE32__parse_one_char_or_coll_elem_REIPKcEET_S7_S7_ CODE
 0001:000367f0 00000090H .text$_ZNSt3__111basic_regexIcNS_12regex_traitsIcEEE23__parse_Back_open_parenIPKcEET_S7_S7_ CODE
 0001:00036880 00000090H .text$_ZNSt3__111basic_regexIcNS_12regex_traitsIcEEE24__parse_Back_close_parenIPKcEET_S7_S7_ CODE
 0001:00036910 000000a2H .text$_ZNSt3__111basic_regexIcNS_12regex_traitsIcEEE15__parse_BACKREFIPKcEET_S7_S7_ CODE
 0001:000369c0 000000e6H .text$_ZNSt3__111basic_regexIcNS_12regex_traitsIcEEE16__parse_ORD_CHARIPKcEET_S7_S7_ CODE
 0001:00036ab0 00000104H .text$_ZNSt3__111basic_regexIcNS_12regex_traitsIcEEE19__parse_QUOTED_CHARIPKcEET_S7_S7_ CODE
 0001:00036bc0 000000b0H .text$_ZNSt3__111basic_regexIcNS_12regex_traitsIcEEE16__push_match_anyEv CODE
 0001:00036c70 00000023H .text$_ZNSt3__111__match_anyIcEC1B6v15007EPNS_6__nodeIcEE CODE
 0001:00036ca0 0000003aH .text$_ZNSt3__111__match_anyIcEC2B6v15007EPNS_6__nodeIcEE CODE
 0001:00036ce0 00000019H .text$_ZNSt3__111__match_anyIcED1Ev CODE
 0001:00036d00 00000028H .text$_ZNSt3__111__match_anyIcED0Ev CODE
 0001:00036d30 00000099H .text$_ZNKSt3__111__match_anyIcE6__execERNS_7__stateIcEE CODE
 0001:00036dd0 00000019H .text$_ZNSt3__111__match_anyIcED2Ev CODE
 0001:00036df0 00000090H .text$_ZNSt3__111basic_regexIcNS_12regex_traitsIcEEE15__test_back_refEc CODE
 0001:00036e80 00000090H .text$_ZNSt3__111basic_regexIcNS_12regex_traitsIcEEE23__parse_Back_open_braceIPKcEET_S7_S7_ CODE
 0001:00036f10 00000090H .text$_ZNSt3__111basic_regexIcNS_12regex_traitsIcEEE24__parse_Back_close_braceIPKcEET_S7_S7_ CODE
 0001:00036fa0 00000088H .text$_ZNSt3__111basic_regexIcNS_12regex_traitsIcEEE18__parse_ERE_branchIPKcEET_S7_S7_ CODE
 0001:00037030 000001c4H .text$_ZNSt3__111basic_regexIcNS_12regex_traitsIcEEE22__parse_ERE_expressionIPKcEET_S7_S7_ CODE
 0001:00037200 000000dfH .text$_ZNSt3__111basic_regexIcNS_12regex_traitsIcEEE33__parse_one_char_or_coll_elem_EREIPKcEET_S7_S7_ CODE
 0001:000372e0 00000228H .text$_ZNSt3__111basic_regexIcNS_12regex_traitsIcEEE20__parse_ORD_CHAR_EREIPKcEET_S7_S7_ CODE
 0001:00037510 000002bcH .text$_ZNSt3__111basic_regexIcNS_12regex_traitsIcEEE23__parse_QUOTED_CHAR_EREIPKcEET_S7_S7_ CODE
 0001:000377d0 00000060H .text$_ZNSt3__14findB6v15007IPKccEET_S3_S3_RKT0_ CODE
 0001:00037830 00000019H .text$_ZNSt3__19allocatorINS_9sub_matchINS_11__wrap_iterIPKcEEEEEC1B6v15007Ev CODE
 0001:00037850 00000023H .text$_ZNSt3__113match_resultsINS_11__wrap_iterIPKcEENS_9allocatorINS_9sub_matchIS4_EEEEEC1ERKS8_ CODE
 0001:00037880 00000019H .text$_ZNSt3__19allocatorINS_9sub_matchINS_11__wrap_iterIPKcEEEEEC2B6v15007Ev CODE
 0001:000378a0 00000007H .text$_ZNSt3__116__non_trivial_ifILb1ENS_9allocatorINS_9sub_matchINS_11__wrap_iterIPKcEEEEEEEC2B6v15007Ev CODE
 0001:000378b0 000000a6H .text$_ZNSt3__113match_resultsINS_11__wrap_iterIPKcEENS_9allocatorINS_9sub_matchIS4_EEEEEC2ERKS8_ CODE
 0001:00037960 00000023H .text$_ZNSt3__16vectorINS_9sub_matchINS_11__wrap_iterIPKcEEEENS_9allocatorIS6_EEEC1B6v15007ERKS8_ CODE
 0001:00037990 00000019H .text$_ZNSt3__19sub_matchINS_11__wrap_iterIPKcEEEC1B6v15007Ev CODE
 0001:000379b0 00000019H .text$_ZNSt3__111__wrap_iterIPKcEC1B6v15007Ev CODE
 0001:000379d0 00000065H .text$_ZNSt3__16vectorINS_9sub_matchINS_11__wrap_iterIPKcEEEENS_9allocatorIS6_EEEC2B6v15007ERKS8_ CODE
 0001:00037a40 0000002dH .text$_ZNSt3__117__compressed_pairIPNS_9sub_matchINS_11__wrap_iterIPKcEEEENS_9allocatorIS6_EEEC1B6v15007IDnRKS9_EEOT_OT0_ CODE
 0001:00037a70 00000007H .text$_ZNSt3__119__debug_db_insert_cB6v15007INS_6vectorINS_9sub_matchINS_11__wrap_iterIPKcEEEENS_9allocatorIS7_EEEEEEvPT_ CODE
 0001:00037a80 0000003cH .text$_ZNSt3__117__compressed_pairIPNS_9sub_matchINS_11__wrap_iterIPKcEEEENS_9allocatorIS6_EEEC2B6v15007IDnRKS9_EEOT_OT0_ CODE
 0001:00037ac0 0000001eH .text$_ZNSt3__122__compressed_pair_elemIPNS_9sub_matchINS_11__wrap_iterIPKcEEEELi0ELb0EEC2B6v15007IDnvEEOT_ CODE
 0001:00037ae0 00000012H .text$_ZNSt3__122__compressed_pair_elemINS_9allocatorINS_9sub_matchINS_11__wrap_iterIPKcEEEEEELi1ELb1EEC2B6v15007IRKS8_vEEOT_ CODE
 0001:00037b00 00000026H .text$_ZNSt3__19sub_matchINS_11__wrap_iterIPKcEEEC2B6v15007Ev CODE
 0001:00037b30 0000002cH .text$_ZNSt3__14pairINS_11__wrap_iterIPKcEES4_EC2B6v15007ILb1ELPv0EEEv CODE
 0001:00037b60 0000002dH .text$_ZNSt3__111__wrap_iterIPKcEC2B6v15007Ev CODE
 0001:00037b90 00000007H .text$_ZNSt3__119__debug_db_insert_iB6v15007INS_11__wrap_iterIPKcEEEEvPT_ CODE
 0001:00037ba0 00000425H .text$_ZNKSt3__111basic_regexIcNS_12regex_traitsIcEEE8__searchINS_9allocatorINS_9sub_matchIPKcEEEEEEbS8_S8_RNS_13match_resultsIS8_T_EENS_15regex_constants15match_flag_typeE CODE
 0001:00037fd0 00000401H .text$_ZNSt3__113match_resultsINS_11__wrap_iterIPKcEENS_9allocatorINS_9sub_matchIS4_EEEEE8__assignB6v15007IS3_NS5_INS6_IS3_EEEEEEvS4_S4_RKNS0_IT_T0_EEb CODE
 0001:000383e0 00000034H .text$_ZNKSt3__112basic_stringIcNS_11char_traitsIcEENS_9allocatorIcEEE5beginB6v15007Ev CODE
 0001:00038420 00000048H .text$_ZNKSt3__112basic_stringIcNS_11char_traitsIcEENS_9allocatorIcEEE3endB6v15007Ev CODE
 0001:00038470 00000030H .text$_ZNSt3__115regex_constantsaNB6v15007ERNS0_15match_flag_typeES1_ CODE
 0001:000384a0 00000115H .text$_ZNKSt3__111basic_regexIcNS_12regex_traitsIcEEE16__match_at_startINS_9allocatorINS_9sub_matchIPKcEEEEEEbS8_S8_RNS_13match_resultsIS8_T_EENS_15regex_constants15match_flag_typeEb CODE
 0001:000385c0 00000069H .text$_ZNKSt3__113match_resultsIPKcNS_9allocatorINS_9sub_matchIS2_EEEEEixB6v15007Ey CODE
 0001:00038630 00000030H .text$_ZNSt3__115regex_constantsoRB6v15007ERNS0_15match_flag_typeES1_ CODE
 0001:00038660 000006a8H .text$_ZNKSt3__111basic_regexIcNS_12regex_traitsIcEEE29__match_at_start_posix_nosubsINS_9allocatorINS_9sub_matchIPKcEEEEEEbS8_S8_RNS_13match_resultsIS8_T_EENS_15regex_constants15match_flag_typeEb CODE
 0001:00038d10 000007e8H .text$_ZNKSt3__111basic_regexIcNS_12regex_traitsIcEEE27__match_at_start_posix_subsINS_9allocatorINS_9sub_matchIPKcEEEEEEbS8_S8_RNS_13match_resultsIS8_T_EENS_15regex_constants15match_flag_typeEb CODE
 0001:00039500 00000019H .text$_ZNSt3__15dequeINS_7__stateIcEENS_9allocatorIS2_EEEC1B6v15007Ev CODE
 0001:00039520 0000008eH .text$_ZNSt3__15dequeINS_7__stateIcEENS_9allocatorIS2_EEE9push_backEOS2_ CODE
 0001:000395b0 00000077H .text$_ZNSt3__15dequeINS_7__stateIcEENS_9allocatorIS2_EEE4backEv CODE
 0001:00039630 000000bdH .text$_ZNSt3__15dequeINS_7__stateIcEENS_9allocatorIS2_EEE8pop_backEv CODE
 0001:000396f0 00000019H .text$_ZNSt3__15dequeINS_7__stateIcEENS_9allocatorIS2_EEE5clearEv CODE
 0001:00039710 000000a2H .text$_ZNSt3__15dequeINS_7__stateIcEENS_9allocatorIS2_EEE10push_frontEOS2_ CODE
 0001:000397c0 00000024H .text$_ZNKSt3__15dequeINS_7__stateIcEENS_9allocatorIS2_EEE5emptyB6v15007Ev CODE
 0001:000397f0 00000019H .text$_ZNSt3__15dequeINS_7__stateIcEENS_9allocatorIS2_EEED1Ev CODE
 0001:00039810 00000019H .text$_ZNSt3__15dequeINS_7__stateIcEENS_9allocatorIS2_EEEC2B6v15007Ev CODE
 0001:00039830 00000053H .text$_ZNSt3__112__deque_baseINS_7__stateIcEENS_9allocatorIS2_EEEC2Ev CODE
 0001:00039890 00000019H .text$_ZNSt3__114__split_bufferIPNS_7__stateIcEENS_9allocatorIS3_EEEC1Ev CODE
 0001:000398b0 0000002dH .text$_ZNSt3__117__compressed_pairIyNS_9allocatorINS_7__stateIcEEEEEC1B6v15007IiNS_18__default_init_tagEEEOT_OT0_ CODE
 0001:000398e0 00000054H .text$_ZNSt3__114__split_bufferIPNS_7__stateIcEENS_9allocatorIS3_EEEC2Ev CODE
 0001:00039940 0000002dH .text$_ZNSt3__117__compressed_pairIPPNS_7__stateIcEENS_9allocatorIS3_EEEC1B6v15007IDnNS_18__default_init_tagEEEOT_OT0_ CODE
 0001:00039970 0000003bH .text$_ZNSt3__117__compressed_pairIPPNS_7__stateIcEENS_9allocatorIS3_EEEC2B6v15007IDnNS_18__default_init_tagEEEOT_OT0_ CODE
 0001:000399b0 0000001eH .text$_ZNSt3__122__compressed_pair_elemIPPNS_7__stateIcEELi0ELb0EEC2B6v15007IDnvEEOT_ CODE
 0001:000399d0 0000001dH .text$_ZNSt3__122__compressed_pair_elemINS_9allocatorIPNS_7__stateIcEEEELi1ELb1EEC2B6v15007ENS_18__default_init_tagE CODE
 0001:000399f0 00000019H .text$_ZNSt3__19allocatorIPNS_7__stateIcEEEC2B6v15007Ev CODE
 0001:00039a10 00000007H .text$_ZNSt3__116__non_trivial_ifILb1ENS_9allocatorIPNS_7__stateIcEEEEEC2B6v15007Ev CODE
 0001:00039a20 0000003bH .text$_ZNSt3__117__compressed_pairIyNS_9allocatorINS_7__stateIcEEEEEC2B6v15007IiNS_18__default_init_tagEEEOT_OT0_ CODE
 0001:00039a60 0000001dH .text$_ZNSt3__112__deque_baseINS_7__stateIcEENS_9allocatorIS2_EEE7__allocB6v15007Ev CODE
 0001:00039a80 00000048H .text$_ZNKSt3__15dequeINS_7__stateIcEENS_9allocatorIS2_EEE12__back_spareB6v15007Ev CODE
 0001:00039ad0 0000039cH .text$_ZNSt3__15dequeINS_7__stateIcEENS_9allocatorIS2_EEE19__add_back_capacityEv CODE
 0001:00039e70 00000115H .text$_ZNSt3__112__deque_baseINS_7__stateIcEENS_9allocatorIS2_EEE3endEv CODE
 0001:00039f90 0000000fH .text$_ZNKSt3__116__deque_iteratorINS_7__stateIcEEPS2_RS2_PS3_xLx42EEdeB6v15007Ev CODE
 0001:00039fa0 0000001dH .text$_ZNSt3__112__deque_baseINS_7__stateIcEENS_9allocatorIS2_EEE4sizeB6v15007Ev CODE
 0001:00039fc0 00000019H .text$_ZNSt3__117__compressed_pairIyNS_9allocatorINS_7__stateIcEEEEE6secondB6v15007Ev CODE
 0001:00039fe0 0000004fH .text$_ZNKSt3__15dequeINS_7__stateIcEENS_9allocatorIS2_EEE10__capacityB6v15007Ev CODE
 0001:0003a030 0000001dH .text$_ZNKSt3__112__deque_baseINS_7__stateIcEENS_9allocatorIS2_EEE4sizeB6v15007Ev CODE
 0001:0003a050 0000001aH .text$_ZNKSt3__114__split_bufferIPNS_7__stateIcEENS_9allocatorIS3_EEE4sizeB6v15007Ev CODE
 0001:0003a070 00000019H .text$_ZNKSt3__117__compressed_pairIyNS_9allocatorINS_7__stateIcEEEEE5firstB6v15007Ev CODE
 0001:0003a090 0000000fH .text$_ZNKSt3__15dequeINS_7__stateIcEENS_9allocatorIS2_EEE13__front_spareB6v15007Ev CODE
 0001:0003a0a0 0000000fH .text$_ZNSt3__114__split_bufferIPNS_7__stateIcEENS_9allocatorIS3_EEE5frontB6v15007Ev CODE
 0001:0003a0b0 00000021H .text$_ZNSt3__114__split_bufferIPNS_7__stateIcEENS_9allocatorIS3_EEE9pop_frontB6v15007Ev CODE
 0001:0003a0e0 000002a2H .text$_ZNSt3__114__split_bufferIPNS_7__stateIcEENS_9allocatorIS3_EEE9push_backB6v15007ERKS3_ CODE
 0001:0003a390 0000002fH .text$_ZNKSt3__114__split_bufferIPNS_7__stateIcEENS_9allocatorIS3_EEE8capacityB6v15007Ev CODE
 0001:0003a3c0 00000030H .text$_ZNKSt3__114__split_bufferIPNS_7__stateIcEENS_9allocatorIS3_EEE12__back_spareB6v15007Ev CODE
 0001:0003a3f0 000002a2H .text$_ZNSt3__114__split_bufferIPNS_7__stateIcEENS_9allocatorIS3_EEE9push_backEOS3_ CODE
 0001:0003a6a0 00000023H .text$_ZNSt3__116allocator_traitsINS_9allocatorINS_7__stateIcEEEEE8allocateB6v15007ERS4_y CODE
 0001:0003a6d0 000002aaH .text$_ZNSt3__114__split_bufferIPNS_7__stateIcEENS_9allocatorIS3_EEE10push_frontEOS3_ CODE
 0001:0003a980 0000001dH .text$_ZNSt3__114__split_bufferIPNS_7__stateIcEENS_9allocatorIS3_EEE7__allocB6v15007Ev CODE
 0001:0003a9a0 00000037H .text$_ZNSt3__114__split_bufferIPNS_7__stateIcEERNS_9allocatorIS3_EEEC1EyyS6_ CODE
 0001:0003a9e0 0000002dH .text$_ZNSt3__122__allocator_destructorINS_9allocatorINS_7__stateIcEEEEEC1B6v15007ERS4_y CODE
 0001:0003aa10 0000002dH .text$_ZNSt3__110unique_ptrIPNS_7__stateIcEENS_22__allocator_destructorINS_9allocatorIS2_EEEEEC1B6v15007ILb1EvEES3_NS_16__dependent_typeINS_27__unique_ptr_deleter_sfinaeIS7_EEXT_EE20__good_rval_ref_typeE CODE
 0001:0003aa40 000002a2H .text$_ZNSt3__114__split_bufferIPNS_7__stateIcEERNS_9allocatorIS3_EEE9push_backEOS3_ CODE
 0001:0003acf0 0000001bH .text$_ZNKSt3__110unique_ptrIPNS_7__stateIcEENS_22__allocator_destructorINS_9allocatorIS2_EEEEE3getB6v15007Ev CODE
 0001:0003ad10 0000003bH .text$_ZNSt3__110unique_ptrIPNS_7__stateIcEENS_22__allocator_destructorINS_9allocatorIS2_EEEEE7releaseB6v15007Ev CODE
 0001:0003ad50 0000000fH .text$_ZNSt3__114__split_bufferIPNS_7__stateIcEENS_9allocatorIS3_EEE3endB6v15007Ev CODE
 0001:0003ad60 0000000fH .text$_ZNSt3__114__split_bufferIPNS_7__stateIcEENS_9allocatorIS3_EEE5beginB6v15007Ev CODE
 0001:0003ad70 000002aaH .text$_ZNSt3__114__split_bufferIPNS_7__stateIcEERNS_9allocatorIS3_EEE10push_frontERKS3_ CODE
 0001:0003b020 0000003bH .text$_ZNSt3__14swapB6v15007IPPNS_7__stateIcEEEENS_9enable_ifIXaasr21is_move_constructibleIT_EE5valuesr18is_move_assignableIS6_EE5valueEvE4typeERS6_S9_ CODE
 0001:0003b060 0000001dH .text$_ZNSt3__114__split_bufferIPNS_7__stateIcEENS_9allocatorIS3_EEE9__end_capB6v15007Ev CODE
 0001:0003b080 0000001dH .text$_ZNSt3__114__split_bufferIPNS_7__stateIcEERNS_9allocatorIS3_EEE9__end_capB6v15007Ev CODE
 0001:0003b0a0 00000019H .text$_ZNSt3__110unique_ptrIPNS_7__stateIcEENS_22__allocator_destructorINS_9allocatorIS2_EEEEED1B6v15007Ev CODE
 0001:0003b0c0 00000019H .text$_ZNSt3__114__split_bufferIPNS_7__stateIcEERNS_9allocatorIS3_EEED1Ev CODE
 0001:0003b0e0 00000028H .text$_ZNSt3__114__split_bufferIPNS_7__stateIcEENS_9allocatorIS3_EEE19__destruct_at_beginB6v15007EPS3_ CODE
 0001:0003b110 00000024H .text$_ZNSt3__114__split_bufferIPNS_7__stateIcEENS_9allocatorIS3_EEE19__destruct_at_beginEPS3_NS_17integral_constantIbLb1EEE CODE
 0001:0003b140 00000036H .text$_ZNSt3__14moveB6v15007IPPNS_7__stateIcEES4_EET0_T_S6_S5_ CODE
 0001:0003b180 00000133H .text$_ZNSt3__114__split_bufferIPNS_7__stateIcEERNS_9allocatorIS3_EEE18__construct_at_endINS_13move_iteratorIPS3_EEEENS_9enable_ifIXsr27__is_cpp17_forward_iteratorIT_EE5valueEvE4typeESD_SD_ CODE
 0001:0003b2c0 00000023H .text$_ZNSt3__113move_iteratorIPPNS_7__stateIcEEEC1B6v15007ES4_ CODE
 0001:0003b2f0 0000002dH .text$_ZNSt3__116allocator_traitsINS_9allocatorIPNS_7__stateIcEEEEE9constructB6v15007IS4_JRKS4_EvEEvRS5_PT_DpOT0_ CODE
 0001:0003b320 0000000bH .text$_ZNSt3__112__to_addressB6v15007IPNS_7__stateIcEEEEPT_S5_ CODE
 0001:0003b330 000000b3H .text$_ZNSt3__16__moveB6v15007INS_17_ClassicAlgPolicyEPPNS_7__stateIcEES5_S5_EENS_9enable_ifIXaaaasr21is_copy_constructibleIT0_EE5valuesr21is_copy_constructibleIT1_EE5valuesr21is_copy_constructibleIT2_EE5valueENS_4pairIS7_S9_EEE4typeES7_S8_S9_ CODE
 0001:0003b3f0 0000009dH .text$_ZNSt3__111__move_implB6v15007INS_17_ClassicAlgPolicyEPNS_7__stateIcEES4_vEENS_4pairIPT0_PT1_EES7_S7_S9_ CODE
 0001:0003b490 00000019H .text$_ZNSt3__113__unwrap_iterB6v15007IPPNS_7__stateIcEENS_18__unwrap_iter_implIS4_Lb1EEELi0EEEDTclsrT0_8__unwrapclsr3stdE7declvalIT_EEEES8_ CODE
 0001:0003b4b0 00000034H .text$_ZNSt3__19make_pairB6v15007IPPNS_7__stateIcEES4_EENS_4pairINS_18__unwrap_ref_decayIT_E4typeENS6_IT0_E4typeEEEOS7_OSA_ CODE
 0001:0003b4f0 0000003aH .text$_ZNSt3__113__rewrap_iterB6v15007IPPNS_7__stateIcEES4_NS_18__unwrap_iter_implIS4_Lb1EEEEET_S7_T0_ CODE
 0001:0003b530 00000019H .text$_ZNSt3__118__unwrap_iter_implIPPNS_7__stateIcEELb1EE8__unwrapB6v15007ES4_ CODE
 0001:0003b550 0000002dH .text$_ZNSt3__14pairIPPNS_7__stateIcEES4_EC1B6v15007IS4_S4_LPv0EEEOT_OT0_ CODE
 0001:0003b580 00000032H .text$_ZNSt3__14pairIPPNS_7__stateIcEES4_EC2B6v15007IS4_S4_LPv0EEEOT_OT0_ CODE
 0001:0003b5c0 0000004cH .text$_ZNSt3__118__unwrap_iter_implIPPNS_7__stateIcEELb1EE8__rewrapB6v15007ES4_S4_ CODE
 0001:0003b610 0000003cH .text$_ZNSt3__18distanceB6v15007INS_13move_iteratorIPPNS_7__stateIcEEEEEENS_15iterator_traitsIT_E15difference_typeES8_S8_ CODE
 0001:0003b650 0000002dH .text$_ZNSt3__114__split_bufferIPNS_7__stateIcEERNS_9allocatorIS3_EEE21_ConstructTransactionC1EPPS3_y CODE
 0001:0003b680 0000002dH .text$_ZNSt3__116allocator_traitsINS_9allocatorIPNS_7__stateIcEEEEE9constructB6v15007IS4_JS4_EvEEvRS5_PT_DpOT0_ CODE
 0001:0003b6b0 0000001dH .text$_ZNSt3__114__split_bufferIPNS_7__stateIcEERNS_9allocatorIS3_EEE7__allocB6v15007Ev CODE
 0001:0003b6d0 0000000eH .text$_ZNKSt3__113move_iteratorIPPNS_7__stateIcEEEdeB6v15007Ev CODE
 0001:0003b6e0 00000015H .text$_ZNSt3__113move_iteratorIPPNS_7__stateIcEEEppB6v15007Ev CODE
 0001:0003b700 00000019H .text$_ZNSt3__114__split_bufferIPNS_7__stateIcEERNS_9allocatorIS3_EEE21_ConstructTransactionD1Ev CODE
 0001:0003b720 00000028H .text$_ZNSt3__110__distanceB6v15007INS_13move_iteratorIPPNS_7__stateIcEEEEEENS_15iterator_traitsIT_E15difference_typeES8_S8_NS_26random_access_iterator_tagE CODE
 0001:0003b750 0000003bH .text$_ZNSt3__1miB6v15007IPPNS_7__stateIcEES4_EEDTmicldtfp_4baseEcldtfp0_4baseEERKNS_13move_iteratorIT_EERKNS6_IT0_EE CODE
 0001:0003b790 0000000eH .text$_ZNKSt3__113move_iteratorIPPNS_7__stateIcEEE4baseB6v15007Ev CODE
 0001:0003b7a0 00000047H .text$_ZNSt3__114__split_bufferIPNS_7__stateIcEERNS_9allocatorIS3_EEE21_ConstructTransactionC2EPPS3_y CODE
 0001:0003b7f0 00000026H .text$_ZNSt3__19allocatorIPNS_7__stateIcEEE9constructB6v15007IS3_JS3_EEEvPT_DpOT0_ CODE
 0001:0003b820 0000001dH .text$_ZNSt3__117__compressed_pairIPPNS_7__stateIcEERNS_9allocatorIS3_EEE6secondB6v15007Ev CODE
 0001:0003b840 0000000eH .text$_ZNSt3__122__compressed_pair_elemIRNS_9allocatorIPNS_7__stateIcEEEELi1ELb0EE5__getB6v15007Ev CODE
 0001:0003b850 00000015H .text$_ZNSt3__114__split_bufferIPNS_7__stateIcEERNS_9allocatorIS3_EEE21_ConstructTransactionD2Ev CODE
 0001:0003b870 0000001eH .text$_ZNSt3__113move_iteratorIPPNS_7__stateIcEEEC2B6v15007ES4_ CODE
 0001:0003b890 00000026H .text$_ZNSt3__19allocatorIPNS_7__stateIcEEE9constructB6v15007IS3_JRKS3_EEEvPT_DpOT0_ CODE
 0001:0003b8c0 0000001dH .text$_ZNKSt3__114__split_bufferIPNS_7__stateIcEENS_9allocatorIS3_EEE9__end_capB6v15007Ev CODE
 0001:0003b8e0 00000019H .text$_ZNKSt3__117__compressed_pairIPPNS_7__stateIcEENS_9allocatorIS3_EEE5firstB6v15007Ev CODE
 0001:0003b900 0000000bH .text$_ZNKSt3__122__compressed_pair_elemIPPNS_7__stateIcEELi0ELb0EE5__getB6v15007Ev CODE
 0001:0003b910 0000002dH .text$_ZNSt3__113move_backwardB6v15007IPPNS_7__stateIcEES4_EET0_T_S6_S5_ CODE
 0001:0003b940 0000006aH .text$_ZNSt3__115__move_backwardB6v15007INS_17_ClassicAlgPolicyEPPNS_7__stateIcEES5_EET1_T0_S7_S6_ CODE
 0001:0003b9b0 00000072H .text$_ZNSt3__120__move_backward_implB6v15007INS_17_ClassicAlgPolicyEPNS_7__stateIcEES4_EENS_9enable_ifIXaasr7is_sameINS_12remove_constIT0_E4typeET1_EE5valuesr28is_trivially_move_assignableISA_EE5valueEPSA_E4typeEPS7_SE_SB_ CODE
 0001:0003ba30 00000019H .text$_ZNSt3__117__compressed_pairIPPNS_7__stateIcEENS_9allocatorIS3_EEE6secondB6v15007Ev CODE
 0001:0003ba50 0000000bH .text$_ZNSt3__122__compressed_pair_elemINS_9allocatorIPNS_7__stateIcEEEELi1ELb1EE5__getB6v15007Ev CODE
 0001:0003ba60 000000d0H .text$_ZNSt3__114__split_bufferIPNS_7__stateIcEERNS_9allocatorIS3_EEEC2EyyS6_ CODE
 0001:0003bb30 0000002dH .text$_ZNSt3__117__compressed_pairIPPNS_7__stateIcEERNS_9allocatorIS3_EEEC1B6v15007IDnS7_EEOT_OT0_ CODE
 0001:0003bb60 0000004dH .text$_ZNSt3__119__allocate_at_leastB6v15007INS_9allocatorIPNS_7__stateIcEEEEEENS_19__allocation_resultINS_16allocator_traitsIT_E7pointerEEERS8_y CODE
 0001:0003bbb0 00000040H .text$_ZNSt3__117__compressed_pairIPPNS_7__stateIcEERNS_9allocatorIS3_EEEC2B6v15007IDnS7_EEOT_OT0_ CODE
 0001:0003bbf0 0000001eH .text$_ZNSt3__122__compressed_pair_elemIRNS_9allocatorIPNS_7__stateIcEEEELi1ELb0EEC2B6v15007IS6_vEEOT_ CODE
 0001:0003bc10 00000051H .text$_ZNSt3__19allocatorIPNS_7__stateIcEEE8allocateB6v15007Ey CODE
 0001:0003bc70 00000019H .text$_ZNSt3__116allocator_traitsINS_9allocatorIPNS_7__stateIcEEEEE8max_sizeB6v15007IS5_vEEyRKS5_ CODE
 0001:0003bc90 00000011H .text$_ZNKSt3__19allocatorIPNS_7__stateIcEEE8max_sizeB6v15007Ev CODE
 0001:0003bcb0 0000002cH .text$_ZNSt3__122__allocator_destructorINS_9allocatorINS_7__stateIcEEEEEC2B6v15007ERS4_y CODE
 0001:0003bce0 0000003aH .text$_ZNSt3__110unique_ptrIPNS_7__stateIcEENS_22__allocator_destructorINS_9allocatorIS2_EEEEEC2B6v15007ILb1EvEES3_NS_16__dependent_typeINS_27__unique_ptr_deleter_sfinaeIS7_EEXT_EE20__good_rval_ref_typeE CODE
 0001:0003bd20 0000002dH .text$_ZNSt3__117__compressed_pairIPNS_7__stateIcEENS_22__allocator_destructorINS_9allocatorIS2_EEEEEC1B6v15007IRS3_S7_EEOT_OT0_ CODE
 0001:0003bd50 00000040H .text$_ZNSt3__117__compressed_pairIPNS_7__stateIcEENS_22__allocator_destructorINS_9allocatorIS2_EEEEEC2B6v15007IRS3_S7_EEOT_OT0_ CODE
 0001:0003bd90 00000021H .text$_ZNSt3__122__compressed_pair_elemIPNS_7__stateIcEELi0ELb0EEC2B6v15007IRS3_vEEOT_ CODE
 0001:0003bdc0 00000029H .text$_ZNSt3__122__compressed_pair_elemINS_22__allocator_destructorINS_9allocatorINS_7__stateIcEEEEEELi1ELb0EEC2B6v15007IS6_vEEOT_ CODE
 0001:0003bdf0 00000019H .text$_ZNKSt3__117__compressed_pairIPNS_7__stateIcEENS_22__allocator_destructorINS_9allocatorIS2_EEEEE5firstB6v15007Ev CODE
 0001:0003be10 00000019H .text$_ZNSt3__117__compressed_pairIPNS_7__stateIcEENS_22__allocator_destructorINS_9allocatorIS2_EEEEE5firstB6v15007Ev CODE
 0001:0003be30 00000019H .text$_ZNSt3__117__compressed_pairIPPNS_7__stateIcEENS_9allocatorIS3_EEE5firstB6v15007Ev CODE
 0001:0003be50 0000000bH .text$_ZNSt3__122__compressed_pair_elemIPPNS_7__stateIcEELi0ELb0EE5__getB6v15007Ev CODE
 0001:0003be60 00000019H .text$_ZNSt3__117__compressed_pairIPPNS_7__stateIcEERNS_9allocatorIS3_EEE5firstB6v15007Ev CODE
 0001:0003be80 0000001dH .text$_ZNSt3__110unique_ptrIPNS_7__stateIcEENS_22__allocator_destructorINS_9allocatorIS2_EEEEED2B6v15007Ev CODE
 0001:0003bea0 0000006aH .text$_ZNSt3__110unique_ptrIPNS_7__stateIcEENS_22__allocator_destructorINS_9allocatorIS2_EEEEE5resetB6v15007ES3_ CODE
 0001:0003bf10 0000001dH .text$_ZNSt3__117__compressed_pairIPNS_7__stateIcEENS_22__allocator_destructorINS_9allocatorIS2_EEEEE6secondB6v15007Ev CODE
 0001:0003bf30 0000002aH .text$_ZNSt3__122__allocator_destructorINS_9allocatorINS_7__stateIcEEEEEclB6v15007EPS3_ CODE
 0001:0003bf60 0000000bH .text$_ZNSt3__122__compressed_pair_elemINS_22__allocator_destructorINS_9allocatorINS_7__stateIcEEEEEELi1ELb0EE5__getB6v15007Ev CODE
 0001:0003bf70 00000075H .text$_ZNSt3__114__split_bufferIPNS_7__stateIcEERNS_9allocatorIS3_EEED2Ev CODE
 0001:0003bff0 0000001dH .text$_ZNSt3__114__split_bufferIPNS_7__stateIcEERNS_9allocatorIS3_EEE5clearB6v15007Ev CODE
 0001:0003c010 0000002dH .text$_ZNSt3__116allocator_traitsINS_9allocatorIPNS_7__stateIcEEEEE10deallocateB6v15007ERS5_PS4_y CODE
 0001:0003c040 0000002fH .text$_ZNKSt3__114__split_bufferIPNS_7__stateIcEERNS_9allocatorIS3_EEE8capacityB6v15007Ev CODE
 0001:0003c070 00000028H .text$_ZNSt3__114__split_bufferIPNS_7__stateIcEERNS_9allocatorIS3_EEE17__destruct_at_endB6v15007EPS3_ CODE
 0001:0003c0a0 0000007eH .text$_ZNSt3__114__split_bufferIPNS_7__stateIcEERNS_9allocatorIS3_EEE17__destruct_at_endB6v15007EPS3_NS_17integral_constantIbLb0EEE CODE
 0001:0003c120 00000023H .text$_ZNSt3__116allocator_traitsINS_9allocatorIPNS_7__stateIcEEEEE7destroyB6v15007IS4_vEEvRS5_PT_ CODE
 0001:0003c150 00000012H .text$_ZNSt3__19allocatorIPNS_7__stateIcEEE7destroyB6v15007EPS3_ CODE
 0001:0003c170 0000003fH .text$_ZNSt3__19allocatorIPNS_7__stateIcEEE10deallocateB6v15007EPS3_y CODE
 0001:0003c1b0 0000001dH .text$_ZNKSt3__114__split_bufferIPNS_7__stateIcEERNS_9allocatorIS3_EEE9__end_capB6v15007Ev CODE
 0001:0003c1d0 00000019H .text$_ZNKSt3__117__compressed_pairIPPNS_7__stateIcEERNS_9allocatorIS3_EEE5firstB6v15007Ev CODE
 0001:0003c1f0 0000001bH .text$_ZNKSt3__114__split_bufferIPNS_7__stateIcEENS_9allocatorIS3_EEE5emptyB6v15007Ev CODE
 0001:0003c210 0000002dH .text$_ZNSt3__116__deque_iteratorINS_7__stateIcEEPS2_RS2_PS3_xLx42EEC1B6v15007ES5_S3_ CODE
 0001:0003c240 0000002cH .text$_ZNSt3__116__deque_iteratorINS_7__stateIcEEPS2_RS2_PS3_xLx42EEC2B6v15007ES5_S3_ CODE
 0001:0003c270 00000019H .text$_ZNSt3__117__compressed_pairIyNS_9allocatorINS_7__stateIcEEEEE5firstB6v15007Ev CODE
 0001:0003c290 0000009bH .text$_ZNSt3__15dequeINS_7__stateIcEENS_9allocatorIS2_EEE25__maybe_remove_back_spareB6v15007Eb CODE
 0001:0003c330 00000022H .text$_ZNKSt3__15dequeINS_7__stateIcEENS_9allocatorIS2_EEE19__back_spare_blocksB6v15007Ev CODE
 0001:0003c360 00000013H .text$_ZNSt3__114__split_bufferIPNS_7__stateIcEENS_9allocatorIS3_EEE4backB6v15007Ev CODE
 0001:0003c380 00000021H .text$_ZNSt3__114__split_bufferIPNS_7__stateIcEENS_9allocatorIS3_EEE8pop_backB6v15007Ev CODE
 0001:0003c3b0 00000028H .text$_ZNSt3__114__split_bufferIPNS_7__stateIcEENS_9allocatorIS3_EEE17__destruct_at_endB6v15007EPS3_ CODE
 0001:0003c3e0 0000007eH .text$_ZNSt3__114__split_bufferIPNS_7__stateIcEENS_9allocatorIS3_EEE17__destruct_at_endB6v15007EPS3_NS_17integral_constantIbLb0EEE CODE
 0001:0003c460 00000165H .text$_ZNSt3__112__deque_baseINS_7__stateIcEENS_9allocatorIS2_EEE5clearEv CODE
 0001:0003c5d0 000000ceH .text$_ZNSt3__112__deque_baseINS_7__stateIcEENS_9allocatorIS2_EEE5beginEv CODE
 0001:0003c6a0 00000029H .text$_ZNSt3__1neB6v15007ERKNS_16__deque_iteratorINS_7__stateIcEEPS2_RS2_PS3_xLx42EEES8_ CODE
 0001:0003c6d0 0000005cH .text$_ZNSt3__116__deque_iteratorINS_7__stateIcEEPS2_RS2_PS3_xLx42EEppB6v15007Ev CODE
 0001:0003c730 0000002bH .text$_ZNSt3__1eqB6v15007ERKNS_16__deque_iteratorINS_7__stateIcEEPS2_RS2_PS3_xLx42EEES8_ CODE
 0001:0003c760 00000426H .text$_ZNSt3__15dequeINS_7__stateIcEENS_9allocatorIS2_EEE20__add_front_capacityEv CODE
 0001:0003cb90 00000056H .text$_ZNSt3__116__deque_iteratorINS_7__stateIcEEPS2_RS2_PS3_xLx42EEmmB6v15007Ev CODE
 0001:0003cbf0 000002aaH .text$_ZNSt3__114__split_bufferIPNS_7__stateIcEENS_9allocatorIS3_EEE10push_frontERKS3_ CODE
 0001:0003cea0 00000019H .text$_ZNKSt3__114__split_bufferIPNS_7__stateIcEENS_9allocatorIS3_EEE13__front_spareB6v15007Ev CODE
 0001:0003cec0 000002a2H .text$_ZNSt3__114__split_bufferIPNS_7__stateIcEERNS_9allocatorIS3_EEE9push_backB6v15007ERKS3_ CODE
 0001:0003d170 00000019H .text$_ZNSt3__15dequeINS_7__stateIcEENS_9allocatorIS2_EEED2Ev CODE
 0001:0003d190 00000089H .text$_ZNSt3__112__deque_baseINS_7__stateIcEENS_9allocatorIS2_EEED2Ev CODE
 0001:0003d220 00000019H .text$_ZNSt3__114__split_bufferIPNS_7__stateIcEENS_9allocatorIS3_EEED1Ev CODE
 0001:0003d240 00000060H .text$_ZNSt3__114__split_bufferIPNS_7__stateIcEENS_9allocatorIS3_EEED2Ev CODE
 0001:0003d2a0 0000001dH .text$_ZNSt3__114__split_bufferIPNS_7__stateIcEENS_9allocatorIS3_EEE5clearB6v15007Ev CODE
 0001:0003d2c0 00000087H .text$_ZNSt3__17__stateIcEaSERKS1_ CODE
 0001:0003d350 00000046H .text$_ZNSt3__16vectorINS_7__stateIcEENS_9allocatorIS2_EEE5clearB6v15007Ev CODE
 0001:0003d3a0 00000057H .text$_ZNSt3__16vectorINS_9sub_matchIPKcEENS_9allocatorIS4_EEEaSB6v15007ERKS7_ CODE
 0001:0003d400 00000057H .text$_ZNSt3__16vectorINS_4pairIyPKcEENS_9allocatorIS4_EEEaSB6v15007ERKS7_ CODE
 0001:0003d460 00000028H .text$_ZNSt3__16vectorINS_9sub_matchIPKcEENS_9allocatorIS4_EEE19__copy_assign_allocB6v15007ERKS7_ CODE
 0001:0003d490 0000018fH .text$_ZNSt3__16vectorINS_9sub_matchIPKcEENS_9allocatorIS4_EEE6assignIPS4_EENS_9enable_ifIXaasr27__is_cpp17_forward_iteratorIT_EE5valuesr16is_constructibleIS4_NS_15iterator_traitsISB_E9referenceEEE5valueEvE4typeESB_SB_ CODE
 0001:0003d620 00000017H .text$_ZNSt3__16vectorINS_9sub_matchIPKcEENS_9allocatorIS4_EEE19__copy_assign_allocB6v15007ERKS7_NS_17integral_constantIbLb0EEE CODE
 0001:0003d640 00000028H .text$_ZNSt3__18distanceB6v15007IPNS_9sub_matchIPKcEEEENS_15iterator_traitsIT_E15difference_typeES7_S7_ CODE
 0001:0003d670 00000058H .text$_ZNSt3__17advanceB6v15007IPNS_9sub_matchIPKcEEyyvEEvRT_T0_ CODE
 0001:0003d6d0 00000036H .text$_ZNSt3__14copyB6v15007IPNS_9sub_matchIPKcEES5_EET0_T_S7_S6_ CODE
 0001:0003d710 0000002dH .text$_ZNSt3__110__distanceB6v15007IPNS_9sub_matchIPKcEEEENS_15iterator_traitsIT_E15difference_typeES7_S7_NS_26random_access_iterator_tagE CODE
 0001:0003d740 0000002aH .text$_ZNSt3__19__advanceB6v15007IPNS_9sub_matchIPKcEEEEvRT_NS_15iterator_traitsIS6_E15difference_typeENS_26random_access_iterator_tagE CODE
 0001:0003d770 000000ccH .text$_ZNSt3__16__copyB6v15007IPNS_9sub_matchIPKcEES5_S5_Li0EEENS_4pairIT_T1_EES7_T0_S8_ CODE
 0001:0003d840 0000005cH .text$_ZNSt3__114__unwrap_rangeB6v15007IPNS_9sub_matchIPKcEES5_EENS_4pairIT0_S7_EET_S9_ CODE
 0001:0003d8a0 00000083H .text$_ZNSt3__111__copy_implB6v15007IPNS_9sub_matchIPKcEES5_S5_EENS_4pairIT_T1_EES7_T0_S8_ CODE
 0001:0003d930 00000019H .text$_ZNSt3__113__unwrap_iterB6v15007IPNS_9sub_matchIPKcEENS_18__unwrap_iter_implIS5_Lb1EEELi0EEEDTclsrT0_8__unwrapclsr3stdE7declvalIT_EEEES9_ CODE
 0001:0003d950 00000034H .text$_ZNSt3__19make_pairB6v15007IPNS_9sub_matchIPKcEES5_EENS_4pairINS_18__unwrap_ref_decayIT_E4typeENS7_IT0_E4typeEEEOS8_OSB_ CODE
 0001:0003d990 00000023H .text$_ZNSt3__114__rewrap_rangeB6v15007IPNS_9sub_matchIPKcEES5_EET_S6_T0_ CODE
 0001:0003d9c0 0000003aH .text$_ZNSt3__113__rewrap_iterB6v15007IPNS_9sub_matchIPKcEES5_NS_18__unwrap_iter_implIS5_Lb1EEEEET_S8_T0_ CODE
 0001:0003da00 0000002dH .text$_ZNSt3__14pairIPNS_9sub_matchIPKcEES5_EC1B6v15007IS5_S5_LPv0EEEOT_OT0_ CODE
 0001:0003da30 00000032H .text$_ZNSt3__14pairIPNS_9sub_matchIPKcEES5_EC2B6v15007IS5_S5_LPv0EEEOT_OT0_ CODE
 0001:0003da70 00000019H .text$_ZNSt3__118__unwrap_iter_implIPNS_9sub_matchIPKcEELb1EE8__unwrapB6v15007ES5_ CODE
 0001:0003da90 00000055H .text$_ZNSt3__118__unwrap_iter_implIPNS_9sub_matchIPKcEELb1EE8__rewrapB6v15007ES5_S5_ CODE
 0001:0003daf0 00000028H .text$_ZNSt3__16vectorINS_4pairIyPKcEENS_9allocatorIS4_EEE19__copy_assign_allocB6v15007ERKS7_ CODE
 0001:0003db20 0000018fH .text$_ZNSt3__16vectorINS_4pairIyPKcEENS_9allocatorIS4_EEE6assignIPS4_EENS_9enable_ifIXaasr27__is_cpp17_forward_iteratorIT_EE5valuesr16is_constructibleIS4_NS_15iterator_traitsISB_E9referenceEEE5valueEvE4typeESB_SB_ CODE
 0001:0003dcb0 00000017H .text$_ZNSt3__16vectorINS_4pairIyPKcEENS_9allocatorIS4_EEE19__copy_assign_allocB6v15007ERKS7_NS_17integral_constantIbLb0EEE CODE
 0001:0003dcd0 00000028H .text$_ZNSt3__18distanceB6v15007IPNS_4pairIyPKcEEEENS_15iterator_traitsIT_E15difference_typeES7_S7_ CODE
 0001:0003dd00 00000058H .text$_ZNSt3__17advanceB6v15007IPNS_4pairIyPKcEEyyvEEvRT_T0_ CODE
 0001:0003dd60 00000036H .text$_ZNSt3__14copyB6v15007IPNS_4pairIyPKcEES5_EET0_T_S7_S6_ CODE
 0001:0003dda0 00000087H .text$_ZNSt3__16vectorINS_4pairIyPKcEENS_9allocatorIS4_EEE13__vdeallocateEv CODE
 0001:0003de30 00000027H .text$_ZNSt3__110__distanceB6v15007IPNS_4pairIyPKcEEEENS_15iterator_traitsIT_E15difference_typeES7_S7_NS_26random_access_iterator_tagE CODE
 0001:0003de60 0000002aH .text$_ZNSt3__19__advanceB6v15007IPNS_4pairIyPKcEEEEvRT_NS_15iterator_traitsIS6_E15difference_typeENS_26random_access_iterator_tagE CODE
 0001:0003de90 000000ccH .text$_ZNSt3__16__copyB6v15007IPNS_4pairIyPKcEES5_S5_Li0EEENS1_IT_T1_EES6_T0_S7_ CODE
 0001:0003df60 0000005cH .text$_ZNSt3__114__unwrap_rangeB6v15007IPNS_4pairIyPKcEES5_EENS1_IT0_S6_EET_S8_ CODE
 0001:0003dfc0 00000083H .text$_ZNSt3__111__copy_implB6v15007IPNS_4pairIyPKcEES5_S5_EENS1_IT_T1_EES6_T0_S7_ CODE
 0001:0003e050 00000019H .text$_ZNSt3__113__unwrap_iterB6v15007IPNS_4pairIyPKcEENS_18__unwrap_iter_implIS5_Lb1EEELi0EEEDTclsrT0_8__unwrapclsr3stdE7declvalIT_EEEES9_ CODE
 0001:0003e070 00000034H .text$_ZNSt3__19make_pairB6v15007IPNS_4pairIyPKcEES5_EENS1_INS_18__unwrap_ref_decayIT_E4typeENS6_IT0_E4typeEEEOS7_OSA_ CODE
 0001:0003e0b0 00000023H .text$_ZNSt3__114__rewrap_rangeB6v15007IPNS_4pairIyPKcEES5_EET_S6_T0_ CODE
 0001:0003e0e0 0000003aH .text$_ZNSt3__113__rewrap_iterB6v15007IPNS_4pairIyPKcEES5_NS_18__unwrap_iter_implIS5_Lb1EEEEET_S8_T0_ CODE
 0001:0003e120 0000002dH .text$_ZNSt3__14pairIyPKcEaSB6v15007ERKS3_ CODE
 0001:0003e150 0000002dH .text$_ZNSt3__14pairIPNS0_IyPKcEES4_EC1B6v15007IS4_S4_LPv0EEEOT_OT0_ CODE
 0001:0003e180 00000032H .text$_ZNSt3__14pairIPNS0_IyPKcEES4_EC2B6v15007IS4_S4_LPv0EEEOT_OT0_ CODE
 0001:0003e1c0 00000019H .text$_ZNSt3__118__unwrap_iter_implIPNS_4pairIyPKcEELb1EE8__unwrapB6v15007ES5_ CODE
 0001:0003e1e0 0000004cH .text$_ZNSt3__118__unwrap_iter_implIPNS_4pairIyPKcEELb1EE8__rewrapB6v15007ES5_S5_ CODE
 0001:0003e230 00000046H .text$_ZNSt3__16vectorINS_4pairIyPKcEENS_9allocatorIS4_EEE5clearB6v15007Ev CODE
 0001:0003e280 00000022H .text$_ZNKSt3__16vectorINS_9sub_matchIPKcEENS_9allocatorIS4_EEEixB6v15007Ey CODE
 0001:0003e2b0 0000000fH .text$_ZNKSt3__113match_resultsIPKcNS_9allocatorINS_9sub_matchIS2_EEEEE6prefixB6v15007Ev CODE
 0001:0003e2c0 0000007bH .text$_ZNSt3__16vectorINS_9sub_matchINS_11__wrap_iterIPKcEEEENS_9allocatorIS6_EEE6resizeEy CODE
 0001:0003e340 00000052H .text$_ZNSt3__14nextB6v15007INS_11__wrap_iterIPKcEEEENS_9enable_ifIXsr25__is_cpp17_input_iteratorIT_EE5valueES6_E4typeES6_NS_15iterator_traitsIS6_E15difference_typeE CODE
 0001:0003e3a0 00000022H .text$_ZNSt3__16vectorINS_9sub_matchINS_11__wrap_iterIPKcEEEENS_9allocatorIS6_EEEixB6v15007Ey CODE
 0001:0003e3d0 0000000fH .text$_ZNKSt3__113match_resultsIPKcNS_9allocatorINS_9sub_matchIS2_EEEEE6suffixB6v15007Ev CODE
 0001:0003e3e0 00000013H .text$_ZNKSt3__113match_resultsIPKcNS_9allocatorINS_9sub_matchIS2_EEEEE5readyB6v15007Ev CODE
 0001:0003e400 0000011eH .text$_ZNSt3__16vectorINS_9sub_matchINS_11__wrap_iterIPKcEEEENS_9allocatorIS6_EEE8__appendEy CODE
 0001:0003e520 00000063H .text$_ZNSt3__16vectorINS_9sub_matchINS_11__wrap_iterIPKcEEEENS_9allocatorIS6_EEE17__destruct_at_endB6v15007EPS6_ CODE
 0001:0003e590 0000001dH .text$_ZNSt3__16vectorINS_9sub_matchINS_11__wrap_iterIPKcEEEENS_9allocatorIS6_EEE9__end_capB6v15007Ev CODE
 0001:0003e5b0 000000cbH .text$_ZNSt3__16vectorINS_9sub_matchINS_11__wrap_iterIPKcEEEENS_9allocatorIS6_EEE18__construct_at_endEy CODE
 0001:0003e680 000000a0H .text$_ZNKSt3__16vectorINS_9sub_matchINS_11__wrap_iterIPKcEEEENS_9allocatorIS6_EEE11__recommendB6v15007Ey CODE
 0001:0003e720 00000037H .text$_ZNSt3__114__split_bufferINS_9sub_matchINS_11__wrap_iterIPKcEEEERNS_9allocatorIS6_EEEC1EyyS9_ CODE
 0001:0003e760 000000b6H .text$_ZNSt3__114__split_bufferINS_9sub_matchINS_11__wrap_iterIPKcEEEERNS_9allocatorIS6_EEE18__construct_at_endEy CODE
 0001:0003e820 0000014cH .text$_ZNSt3__16vectorINS_9sub_matchINS_11__wrap_iterIPKcEEEENS_9allocatorIS6_EEE26__swap_out_circular_bufferERNS_14__split_bufferIS6_RS8_EE CODE
 0001:0003e970 00000019H .text$_ZNSt3__114__split_bufferINS_9sub_matchINS_11__wrap_iterIPKcEEEERNS_9allocatorIS6_EEED1Ev CODE
 0001:0003e990 00000019H .text$_ZNSt3__117__compressed_pairIPNS_9sub_matchINS_11__wrap_iterIPKcEEEENS_9allocatorIS6_EEE5firstB6v15007Ev CODE
 0001:0003e9b0 0000000bH .text$_ZNSt3__122__compressed_pair_elemIPNS_9sub_matchINS_11__wrap_iterIPKcEEEELi0ELb0EE5__getB6v15007Ev CODE
 0001:0003e9c0 0000002dH .text$_ZNSt3__16vectorINS_9sub_matchINS_11__wrap_iterIPKcEEEENS_9allocatorIS6_EEE21_ConstructTransactionC1ERS9_y CODE
 0001:0003e9f0 00000023H .text$_ZNSt3__116allocator_traitsINS_9allocatorINS_9sub_matchINS_11__wrap_iterIPKcEEEEEEE9constructB6v15007IS7_JEvEEvRS8_PT_DpOT0_ CODE
 0001:0003ea20 00000019H .text$_ZNSt3__16vectorINS_9sub_matchINS_11__wrap_iterIPKcEEEENS_9allocatorIS6_EEE21_ConstructTransactionD1Ev CODE
 0001:0003ea40 00000046H .text$_ZNSt3__16vectorINS_9sub_matchINS_11__wrap_iterIPKcEEEENS_9allocatorIS6_EEE21_ConstructTransactionC2ERS9_y CODE
 0001:0003ea90 0000001eH .text$_ZNSt3__19allocatorINS_9sub_matchINS_11__wrap_iterIPKcEEEEE9constructB6v15007IS6_JEEEvPT_DpOT0_ CODE
 0001:0003eab0 00000016H .text$_ZNSt3__16vectorINS_9sub_matchINS_11__wrap_iterIPKcEEEENS_9allocatorIS6_EEE21_ConstructTransactionD2Ev CODE
 0001:0003ead0 00000059H .text$_ZNKSt3__16vectorINS_9sub_matchINS_11__wrap_iterIPKcEEEENS_9allocatorIS6_EEE8max_sizeEv CODE
 0001:0003eb30 00000016H .text$_ZNKSt3__16vectorINS_9sub_matchINS_11__wrap_iterIPKcEEEENS_9allocatorIS6_EEE20__throw_length_errorB6v15007Ev CODE
 0001:0003eb50 00000019H .text$_ZNSt3__116allocator_traitsINS_9allocatorINS_9sub_matchINS_11__wrap_iterIPKcEEEEEEE8max_sizeB6v15007IS8_vEEyRKS8_ CODE
 0001:0003eb70 0000001dH .text$_ZNKSt3__16vectorINS_9sub_matchINS_11__wrap_iterIPKcEEEENS_9allocatorIS6_EEE7__allocB6v15007Ev CODE
 0001:0003eb90 00000011H .text$_ZNKSt3__19allocatorINS_9sub_matchINS_11__wrap_iterIPKcEEEEE8max_sizeB6v15007Ev CODE
 0001:0003ebb0 00000019H .text$_ZNKSt3__117__compressed_pairIPNS_9sub_matchINS_11__wrap_iterIPKcEEEENS_9allocatorIS6_EEE6secondB6v15007Ev CODE
 0001:0003ebd0 0000000bH .text$_ZNKSt3__122__compressed_pair_elemINS_9allocatorINS_9sub_matchINS_11__wrap_iterIPKcEEEEEELi1ELb1EE5__getB6v15007Ev CODE
 0001:0003ebe0 000000caH .text$_ZNSt3__114__split_bufferINS_9sub_matchINS_11__wrap_iterIPKcEEEERNS_9allocatorIS6_EEEC2EyyS9_ CODE
 0001:0003ecb0 0000002dH .text$_ZNSt3__117__compressed_pairIPNS_9sub_matchINS_11__wrap_iterIPKcEEEERNS_9allocatorIS6_EEEC1B6v15007IDnSA_EEOT_OT0_ CODE
 0001:0003ece0 0000004dH .text$_ZNSt3__119__allocate_at_leastB6v15007INS_9allocatorINS_9sub_matchINS_11__wrap_iterIPKcEEEEEEEENS_19__allocation_resultINS_16allocator_traitsIT_E7pointerEEERSB_y CODE
 0001:0003ed30 0000001dH .text$_ZNSt3__114__split_bufferINS_9sub_matchINS_11__wrap_iterIPKcEEEERNS_9allocatorIS6_EEE7__allocB6v15007Ev CODE
 0001:0003ed50 0000001dH .text$_ZNSt3__114__split_bufferINS_9sub_matchINS_11__wrap_iterIPKcEEEERNS_9allocatorIS6_EEE9__end_capB6v15007Ev CODE
 0001:0003ed70 00000040H .text$_ZNSt3__117__compressed_pairIPNS_9sub_matchINS_11__wrap_iterIPKcEEEERNS_9allocatorIS6_EEEC2B6v15007IDnSA_EEOT_OT0_ CODE
 0001:0003edb0 0000001eH .text$_ZNSt3__122__compressed_pair_elemIRNS_9allocatorINS_9sub_matchINS_11__wrap_iterIPKcEEEEEELi1ELb0EEC2B6v15007IS9_vEEOT_ CODE
 0001:0003edd0 0000004eH .text$_ZNSt3__19allocatorINS_9sub_matchINS_11__wrap_iterIPKcEEEEE8allocateB6v15007Ey CODE
 0001:0003ee20 0000001dH .text$_ZNSt3__117__compressed_pairIPNS_9sub_matchINS_11__wrap_iterIPKcEEEERNS_9allocatorIS6_EEE6secondB6v15007Ev CODE
 0001:0003ee40 0000000eH .text$_ZNSt3__122__compressed_pair_elemIRNS_9allocatorINS_9sub_matchINS_11__wrap_iterIPKcEEEEEELi1ELb0EE5__getB6v15007Ev CODE
 0001:0003ee50 00000019H .text$_ZNSt3__117__compressed_pairIPNS_9sub_matchINS_11__wrap_iterIPKcEEEERNS_9allocatorIS6_EEE5firstB6v15007Ev CODE
 0001:0003ee70 0000002dH .text$_ZNSt3__114__split_bufferINS_9sub_matchINS_11__wrap_iterIPKcEEEERNS_9allocatorIS6_EEE21_ConstructTransactionC1EPPS6_y CODE
 0001:0003eea0 00000019H .text$_ZNSt3__114__split_bufferINS_9sub_matchINS_11__wrap_iterIPKcEEEERNS_9allocatorIS6_EEE21_ConstructTransactionD1Ev CODE
 0001:0003eec0 00000044H .text$_ZNSt3__114__split_bufferINS_9sub_matchINS_11__wrap_iterIPKcEEEERNS_9allocatorIS6_EEE21_ConstructTransactionC2EPPS6_y CODE
 0001:0003ef10 00000015H .text$_ZNSt3__114__split_bufferINS_9sub_matchINS_11__wrap_iterIPKcEEEERNS_9allocatorIS6_EEE21_ConstructTransactionD2Ev CODE
 0001:0003ef30 000001a8H .text$_ZNSt3__142__uninitialized_allocator_move_if_noexceptB6v15007INS_9allocatorINS_9sub_matchINS_11__wrap_iterIPKcEEEEEENS_16reverse_iteratorIPS7_EESB_SB_EET2_RT_T0_T1_SC_ CODE
 0001:0003f0e0 00000023H .text$_ZNSt3__116reverse_iteratorIPNS_9sub_matchINS_11__wrap_iterIPKcEEEEEC1B6v15007ES7_ CODE
 0001:0003f110 0000000fH .text$_ZNKSt3__116reverse_iteratorIPNS_9sub_matchINS_11__wrap_iterIPKcEEEEE4baseB6v15007Ev CODE
 0001:0003f120 0000003bH .text$_ZNSt3__14swapB6v15007IPNS_9sub_matchINS_11__wrap_iterIPKcEEEEEENS_9enable_ifIXaasr21is_move_constructibleIT_EE5valuesr18is_move_assignableIS9_EE5valueEvE4typeERS9_SC_ CODE
 0001:0003f160 000000b3H .text$_ZNKSt3__16vectorINS_9sub_matchINS_11__wrap_iterIPKcEEEENS_9allocatorIS6_EEE14__annotate_newB6v15007Ey CODE
 0001:0003f220 00000007H .text$_ZNSt3__125__debug_db_invalidate_allB6v15007INS_6vectorINS_9sub_matchINS_11__wrap_iterIPKcEEEENS_9allocatorIS7_EEEEEEvPT_ CODE
 0001:0003f230 0000003fH .text$_ZNSt3__1neB6v15007IPNS_9sub_matchINS_11__wrap_iterIPKcEEEES7_EEbRKNS_16reverse_iteratorIT_EERKNS8_IT0_EE CODE
 0001:0003f270 0000002dH .text$_ZNSt3__116allocator_traitsINS_9allocatorINS_9sub_matchINS_11__wrap_iterIPKcEEEEEEE9constructB6v15007IS7_JS7_EvEEvRS8_PT_DpOT0_ CODE
 0001:0003f2a0 00000019H .text$_ZNSt3__112__to_addressB6v15007INS_16reverse_iteratorIPNS_9sub_matchINS_11__wrap_iterIPKcEEEEEEvEENS_5decayIDTclsr19__to_address_helperIT_EE6__callcl7declvalIRKSB_EEEEE4typeESD_ CODE
 0001:0003f2c0 00000027H .text$_ZNKSt3__116reverse_iteratorIPNS_9sub_matchINS_11__wrap_iterIPKcEEEEEdeB6v15007Ev CODE
 0001:0003f2f0 00000017H .text$_ZNSt3__116reverse_iteratorIPNS_9sub_matchINS_11__wrap_iterIPKcEEEEEppB6v15007Ev CODE
 0001:0003f310 00000037H .text$_ZNSt3__129_AllocatorDestroyRangeReverseINS_9allocatorINS_9sub_matchINS_11__wrap_iterIPKcEEEEEENS_16reverse_iteratorIPS7_EEEC1B6v15007ERS8_RSB_SE_ CODE
 0001:0003f350 0000008eH .text$_ZNKSt3__129_AllocatorDestroyRangeReverseINS_9allocatorINS_9sub_matchINS_11__wrap_iterIPKcEEEEEENS_16reverse_iteratorIPS7_EEEclB6v15007Ev CODE
 0001:0003f3e0 00000036H .text$_ZNSt3__19allocatorINS_9sub_matchINS_11__wrap_iterIPKcEEEEE9constructB6v15007IS6_JS6_EEEvPT_DpOT0_ CODE
 0001:0003f420 00000036H .text$_ZNSt3__119__to_address_helperINS_16reverse_iteratorIPNS_9sub_matchINS_11__wrap_iterIPKcEEEEEEvE6__callB6v15007ERKS9_ CODE
 0001:0003f460 00000019H .text$_ZNKSt3__116reverse_iteratorIPNS_9sub_matchINS_11__wrap_iterIPKcEEEEEptB6v15007Ev CODE
 0001:0003f480 0000003aH .text$_ZNSt3__129_AllocatorDestroyRangeReverseINS_9allocatorINS_9sub_matchINS_11__wrap_iterIPKcEEEEEENS_16reverse_iteratorIPS7_EEEC2B6v15007ERS8_RSB_SE_ CODE
 0001:0003f4c0 00000064H .text$_ZNSt3__119__allocator_destroyB6v15007INS_9allocatorINS_9sub_matchINS_11__wrap_iterIPKcEEEEEENS_16reverse_iteratorINS9_IPS7_EEEESC_EEvRT_T0_T1_ CODE
 0001:0003f530 00000019H .text$_ZNSt3__116reverse_iteratorINS0_IPNS_9sub_matchINS_11__wrap_iterIPKcEEEEEEEC1B6v15007ES8_ CODE
 0001:0003f550 00000045H .text$_ZNSt3__1neB6v15007INS_16reverse_iteratorIPNS_9sub_matchINS_11__wrap_iterIPKcEEEEEES9_EEbRKNS1_IT_EERKNS1_IT0_EE CODE
 0001:0003f5a0 00000019H .text$_ZNSt3__112__to_addressB6v15007INS_16reverse_iteratorINS1_IPNS_9sub_matchINS_11__wrap_iterIPKcEEEEEEEEvEENS_5decayIDTclsr19__to_address_helperIT_EE6__callcl7declvalIRKSC_EEEEE4typeESE_ CODE
 0001:0003f5c0 00000026H .text$_ZNSt3__116reverse_iteratorINS0_IPNS_9sub_matchINS_11__wrap_iterIPKcEEEEEEEppB6v15007Ev CODE
 0001:0003f5f0 00000028H .text$_ZNKSt3__116reverse_iteratorINS0_IPNS_9sub_matchINS_11__wrap_iterIPKcEEEEEEE4baseB6v15007Ev CODE
 0001:0003f620 00000036H .text$_ZNSt3__119__to_address_helperINS_16reverse_iteratorINS1_IPNS_9sub_matchINS_11__wrap_iterIPKcEEEEEEEEvE6__callB6v15007ERKSA_ CODE
 0001:0003f660 00000019H .text$_ZNKSt3__116reverse_iteratorINS0_IPNS_9sub_matchINS_11__wrap_iterIPKcEEEEEEEptB6v15007Ev CODE
 0001:0003f680 00000038H .text$_ZNKSt3__116reverse_iteratorINS0_IPNS_9sub_matchINS_11__wrap_iterIPKcEEEEEEEdeB6v15007Ev CODE
 0001:0003f6c0 00000017H .text$_ZNSt3__116reverse_iteratorIPNS_9sub_matchINS_11__wrap_iterIPKcEEEEEmmB6v15007Ev CODE
 0001:0003f6e0 00000029H .text$_ZNSt3__116reverse_iteratorINS0_IPNS_9sub_matchINS_11__wrap_iterIPKcEEEEEEEC2B6v15007ES8_ CODE
 0001:0003f710 00000026H .text$_ZNSt3__116reverse_iteratorIPNS_9sub_matchINS_11__wrap_iterIPKcEEEEEC2B6v15007ES7_ CODE
 0001:0003f740 00000075H .text$_ZNSt3__114__split_bufferINS_9sub_matchINS_11__wrap_iterIPKcEEEERNS_9allocatorIS6_EEED2Ev CODE
 0001:0003f7c0 0000001dH .text$_ZNSt3__114__split_bufferINS_9sub_matchINS_11__wrap_iterIPKcEEEERNS_9allocatorIS6_EEE5clearB6v15007Ev CODE
 0001:0003f7e0 00000035H .text$_ZNKSt3__114__split_bufferINS_9sub_matchINS_11__wrap_iterIPKcEEEERNS_9allocatorIS6_EEE8capacityB6v15007Ev CODE
 0001:0003f820 00000028H .text$_ZNSt3__114__split_bufferINS_9sub_matchINS_11__wrap_iterIPKcEEEERNS_9allocatorIS6_EEE17__destruct_at_endB6v15007EPS6_ CODE
 0001:0003f850 0000007eH .text$_ZNSt3__114__split_bufferINS_9sub_matchINS_11__wrap_iterIPKcEEEERNS_9allocatorIS6_EEE17__destruct_at_endB6v15007EPS6_NS_17integral_constantIbLb0EEE CODE
 0001:0003f8d0 0000001dH .text$_ZNKSt3__114__split_bufferINS_9sub_matchINS_11__wrap_iterIPKcEEEERNS_9allocatorIS6_EEE9__end_capB6v15007Ev CODE
 0001:0003f8f0 00000019H .text$_ZNKSt3__117__compressed_pairIPNS_9sub_matchINS_11__wrap_iterIPKcEEEERNS_9allocatorIS6_EEE5firstB6v15007Ev CODE
 0001:0003f910 00000012H .text$_ZNSt3__16vectorINS_9sub_matchINS_11__wrap_iterIPKcEEEENS_9allocatorIS6_EEE27__invalidate_iterators_pastB6v15007EPS6_ CODE
 0001:0003f930 000000b3H .text$_ZNKSt3__16vectorINS_9sub_matchINS_11__wrap_iterIPKcEEEENS_9allocatorIS6_EEE17__annotate_shrinkB6v15007Ey CODE
 0001:0003f9f0 00000058H .text$_ZNSt3__17advanceB6v15007INS_11__wrap_iterIPKcEExxvEEvRT_T0_ CODE
 0001:0003fa50 00000028H .text$_ZNSt3__19__advanceB6v15007INS_11__wrap_iterIPKcEEEEvRT_NS_15iterator_traitsIS5_E15difference_typeENS_26random_access_iterator_tagE CODE
 0001:0003fa80 00000021H .text$_ZNSt3__111__wrap_iterIPKcEpLB6v15007Ex CODE
 0001:0003fab0 00000069H .text$_ZNKSt3__113match_resultsINS_11__wrap_iterIPKcEENS_9allocatorINS_9sub_matchIS4_EEEEEixB6v15007Ey CODE
 0001:0003fb20 00000072H .text$_ZNKSt3__19sub_matchINS_11__wrap_iterIPKcEEE3strB6v15007Ev CODE
 0001:0003fba0 00000022H .text$_ZNKSt3__16vectorINS_9sub_matchINS_11__wrap_iterIPKcEEEENS_9allocatorIS6_EEEixB6v15007Ey CODE
 0001:0003fbd0 0000002dH .text$_ZNSt3__112basic_stringIcNS_11char_traitsIcEENS_9allocatorIcEEEC1B6v15007INS_11__wrap_iterIPKcEEvEET_SB_ CODE
 0001:0003fc00 00000064H .text$_ZNSt3__112basic_stringIcNS_11char_traitsIcEENS_9allocatorIcEEEC2B6v15007INS_11__wrap_iterIPKcEEvEET_SB_ CODE
 0001:0003fc70 000001c0H .text$_ZNSt3__112basic_stringIcNS_11char_traitsIcEENS_9allocatorIcEEE6__initINS_11__wrap_iterIPKcEEEENS_9enable_ifIXsr27__is_cpp17_forward_iteratorIT_EE5valueEvE4typeESC_SC_ CODE
 0001:0003fe30 0000003cH .text$_ZNSt3__18distanceB6v15007INS_11__wrap_iterIPKcEEEENS_15iterator_traitsIT_E15difference_typeES6_S6_ CODE
 0001:0003fe70 00000028H .text$_ZNSt3__110__distanceB6v15007INS_11__wrap_iterIPKcEEEENS_15iterator_traitsIT_E15difference_typeES6_S6_NS_26random_access_iterator_tagE CODE
 0001:0003fea0 00000037H .text$_ZNSt3__1miB6v15007IPKcS2_EEDTmicldtfp_4baseEcldtfp0_4baseEERKNS_11__wrap_iterIT_EERKNS4_IT0_EE CODE
 0001:0003fee0 000000ceH .text$_ZNSt3__110__str_findB6v15007IcyNS_11char_traitsIcEELy18446744073709551615EEET0_PKT_S3_S6_S3_S3_ CODE
 0001:0003ffb0 0000013dH .text$_ZNSt3__118__search_substringIcNS_11char_traitsIcEEEEPKT_S5_S5_S5_S5_ CODE
 0001:000400f0 00000063H .text$_ZNSt3__111char_traitsIcE4findEPKcyRS2_ CODE
 0001:00040160 0000000cH .text$_ZNSt3__111char_traitsIcE11to_int_typeEc CODE
 0001:00040170 00000094H .text$_ZNSt3__113unordered_mapINS_12basic_stringIcNS_11char_traitsIcEENS_9allocatorIcEEEES6_NS_4hashIS6_EENS_8equal_toIS6_EENS4_INS_4pairIKS6_S6_EEEEEC2ESt16initializer_listISD_E CODE
 0001:00040210 00000019H .text$_ZNSt3__112__hash_tableINS_17__hash_value_typeINS_12basic_stringIcNS_11char_traitsIcEENS_9allocatorIcEEEES7_EENS_22__unordered_map_hasherIS7_S8_NS_4hashIS7_EENS_8equal_toIS7_EELb1EEENS_21__unordered_map_equalIS7_S8_SD_SB_Lb1EEENS5_IS8_EEEC1Ev CODE
 0001:00040230 00000007H .text$_ZNSt3__119__debug_db_insert_cB6v15007INS_13unordered_mapINS_12basic_stringIcNS_11char_traitsIcEENS_9allocatorIcEEEES7_NS_4hashIS7_EENS_8equal_toIS7_EENS5_INS_4pairIKS7_S7_EEEEEEEEvPT_ CODE
 0001:00040240 00000059H .text$_ZNSt3__113unordered_mapINS_12basic_stringIcNS_11char_traitsIcEENS_9allocatorIcEEEES6_NS_4hashIS6_EENS_8equal_toIS6_EENS4_INS_4pairIKS6_S6_EEEEE6insertIPKSD_EEvT_SJ_ CODE
 0001:000402a0 0000000eH .text$_ZNKSt16initializer_listINSt3__14pairIKNS0_12basic_stringIcNS0_11char_traitsIcEENS0_9allocatorIcEEEES7_EEE5beginB6v15007Ev CODE
 0001:000402b0 00000016H .text$_ZNKSt16initializer_listINSt3__14pairIKNS0_12basic_stringIcNS0_11char_traitsIcEENS0_9allocatorIcEEEES7_EEE3endB6v15007Ev CODE
 0001:000402d0 00000019H .text$_ZNSt3__112__hash_tableINS_17__hash_value_typeINS_12basic_stringIcNS_11char_traitsIcEENS_9allocatorIcEEEES7_EENS_22__unordered_map_hasherIS7_S8_NS_4hashIS7_EENS_8equal_toIS7_EELb1EEENS_21__unordered_map_equalIS7_S8_SD_SB_Lb1EEENS5_IS8_EEED1Ev CODE
 0001:000402f0 00000083H .text$_ZNSt3__112__hash_tableINS_17__hash_value_typeINS_12basic_stringIcNS_11char_traitsIcEENS_9allocatorIcEEEES7_EENS_22__unordered_map_hasherIS7_S8_NS_4hashIS7_EENS_8equal_toIS7_EELb1EEENS_21__unordered_map_equalIS7_S8_SD_SB_Lb1EEENS5_IS8_EEEC2Ev CODE
 0001:00040380 00000019H .text$_ZNSt3__110unique_ptrIA_PNS_16__hash_node_baseIPNS_11__hash_nodeINS_17__hash_value_typeINS_12basic_stringIcNS_11char_traitsIcEENS_9allocatorIcEEEES9_EEPvEEEENS_25__bucket_list_deallocatorINS7_ISF_EEEEEC1B6v15007ILb1EvEEv CODE
 0001:000403a0 00000019H .text$_ZNSt3__117__compressed_pairINS_16__hash_node_baseIPNS_11__hash_nodeINS_17__hash_value_typeINS_12basic_stringIcNS_11char_traitsIcEENS_9allocatorIcEEEES9_EEPvEEEENS7_ISC_EEEC1B6v15007ILb1EvEEv CODE
 0001:000403c0 0000002dH .text$_ZNSt3__117__compressed_pairIyNS_22__unordered_map_hasherINS_12basic_stringIcNS_11char_traitsIcEENS_9allocatorIcEEEENS_17__hash_value_typeIS7_S7_EENS_4hashIS7_EENS_8equal_toIS7_EELb1EEEEC1B6v15007IiNS_18__default_init_tagEEEOT_OT0_ CODE
 0001:000403f0 0000002dH .text$_ZNSt3__117__compressed_pairIfNS_21__unordered_map_equalINS_12basic_stringIcNS_11char_traitsIcEENS_9allocatorIcEEEENS_17__hash_value_typeIS7_S7_EENS_8equal_toIS7_EENS_4hashIS7_EELb1EEEEC1B6v15007IfNS_18__default_init_tagEEEOT_OT0_ CODE
 0001:00040420 00000030H .text$_ZNSt3__110unique_ptrIA_PNS_16__hash_node_baseIPNS_11__hash_nodeINS_17__hash_value_typeINS_12basic_stringIcNS_11char_traitsIcEENS_9allocatorIcEEEES9_EEPvEEEENS_25__bucket_list_deallocatorINS7_ISF_EEEEEC2B6v15007ILb1EvEEv CODE
 0001:00040450 0000002dH .text$_ZNSt3__117__compressed_pairIPPNS_16__hash_node_baseIPNS_11__hash_nodeINS_17__hash_value_typeINS_12basic_stringIcNS_11char_traitsIcEENS_9allocatorIcEEEES9_EEPvEEEENS_25__bucket_list_deallocatorINS7_ISF_EEEEEC1B6v15007INS_16__value_init_tagESM_EEOT_OT0_ CODE
 0001:00040480 0000003eH .text$_ZNSt3__117__compressed_pairIPPNS_16__hash_node_baseIPNS_11__hash_nodeINS_17__hash_value_typeINS_12basic_stringIcNS_11char_traitsIcEENS_9allocatorIcEEEES9_EEPvEEEENS_25__bucket_list_deallocatorINS7_ISF_EEEEEC2B6v15007INS_16__value_init_tagESM_EEOT_OT0_ CODE
 0001:000404c0 0000001cH .text$_ZNSt3__122__compressed_pair_elemIPPNS_16__hash_node_baseIPNS_11__hash_nodeINS_17__hash_value_typeINS_12basic_stringIcNS_11char_traitsIcEENS_9allocatorIcEEEES9_EEPvEEEELi0ELb0EEC2B6v15007ENS_16__value_init_tagE CODE
 0001:000404e0 0000001dH .text$_ZNSt3__122__compressed_pair_elemINS_25__bucket_list_deallocatorINS_9allocatorIPNS_16__hash_node_baseIPNS_11__hash_nodeINS_17__hash_value_typeINS_12basic_stringIcNS_11char_traitsIcEENS2_IcEEEESA_EEPvEEEEEEEELi1ELb0EEC2B6v15007ENS_16__value_init_tagE CODE
 0001:00040500 00000019H .text$_ZNSt3__125__bucket_list_deallocatorINS_9allocatorIPNS_16__hash_node_baseIPNS_11__hash_nodeINS_17__hash_value_typeINS_12basic_stringIcNS_11char_traitsIcEENS1_IcEEEES9_EEPvEEEEEEEC1B6v15007Ev CODE
 0001:00040520 00000038H .text$_ZNSt3__125__bucket_list_deallocatorINS_9allocatorIPNS_16__hash_node_baseIPNS_11__hash_nodeINS_17__hash_value_typeINS_12basic_stringIcNS_11char_traitsIcEENS1_IcEEEES9_EEPvEEEEEEEC2B6v15007Ev CODE
 0001:00040560 0000002dH .text$_ZNSt3__117__compressed_pairIyNS_9allocatorIPNS_16__hash_node_baseIPNS_11__hash_nodeINS_17__hash_value_typeINS_12basic_stringIcNS_11char_traitsIcEENS1_IcEEEES9_EEPvEEEEEEEC1B6v15007IiNS_18__default_init_tagEEEOT_OT0_ CODE
 0001:00040590 0000003bH .text$_ZNSt3__117__compressed_pairIyNS_9allocatorIPNS_16__hash_node_baseIPNS_11__hash_nodeINS_17__hash_value_typeINS_12basic_stringIcNS_11char_traitsIcEENS1_IcEEEES9_EEPvEEEEEEEC2B6v15007IiNS_18__default_init_tagEEEOT_OT0_ CODE
 0001:000405d0 0000001dH .text$_ZNSt3__122__compressed_pair_elemINS_9allocatorIPNS_16__hash_node_baseIPNS_11__hash_nodeINS_17__hash_value_typeINS_12basic_stringIcNS_11char_traitsIcEENS1_IcEEEES9_EEPvEEEEEELi1ELb1EEC2B6v15007ENS_18__default_init_tagE CODE
 0001:000405f0 00000019H .text$_ZNSt3__19allocatorIPNS_16__hash_node_baseIPNS_11__hash_nodeINS_17__hash_value_typeINS_12basic_stringIcNS_11char_traitsIcEENS0_IcEEEES8_EEPvEEEEEC2B6v15007Ev CODE
 0001:00040610 00000007H .text$_ZNSt3__116__non_trivial_ifILb1ENS_9allocatorIPNS_16__hash_node_baseIPNS_11__hash_nodeINS_17__hash_value_typeINS_12basic_stringIcNS_11char_traitsIcEENS1_IcEEEES9_EEPvEEEEEEEC2B6v15007Ev CODE
 0001:00040620 00000030H .text$_ZNSt3__117__compressed_pairINS_16__hash_node_baseIPNS_11__hash_nodeINS_17__hash_value_typeINS_12basic_stringIcNS_11char_traitsIcEENS_9allocatorIcEEEES9_EEPvEEEENS7_ISC_EEEC2B6v15007ILb1EvEEv CODE
 0001:00040650 0000001dH .text$_ZNSt3__122__compressed_pair_elemINS_16__hash_node_baseIPNS_11__hash_nodeINS_17__hash_value_typeINS_12basic_stringIcNS_11char_traitsIcEENS_9allocatorIcEEEES9_EEPvEEEELi0ELb0EEC2B6v15007ENS_16__value_init_tagE CODE
 0001:00040670 0000001dH .text$_ZNSt3__122__compressed_pair_elemINS_9allocatorINS_11__hash_nodeINS_17__hash_value_typeINS_12basic_stringIcNS_11char_traitsIcEENS1_IcEEEES8_EEPvEEEELi1ELb1EEC2B6v15007ENS_16__value_init_tagE CODE
 0001:00040690 00000019H .text$_ZNSt3__116__hash_node_baseIPNS_11__hash_nodeINS_17__hash_value_typeINS_12basic_stringIcNS_11char_traitsIcEENS_9allocatorIcEEEES8_EEPvEEEC1B6v15007Ev CODE
 0001:000406b0 00000012H .text$_ZNSt3__116__hash_node_baseIPNS_11__hash_nodeINS_17__hash_value_typeINS_12basic_stringIcNS_11char_traitsIcEENS_9allocatorIcEEEES8_EEPvEEEC2B6v15007Ev CODE
 0001:000406d0 00000019H .text$_ZNSt3__19allocatorINS_11__hash_nodeINS_17__hash_value_typeINS_12basic_stringIcNS_11char_traitsIcEENS0_IcEEEES7_EEPvEEEC2B6v15007Ev CODE
 0001:000406f0 00000007H .text$_ZNSt3__116__non_trivial_ifILb1ENS_9allocatorINS_11__hash_nodeINS_17__hash_value_typeINS_12basic_stringIcNS_11char_traitsIcEENS1_IcEEEES8_EEPvEEEEEC2B6v15007Ev CODE
 0001:00040700 0000003bH .text$_ZNSt3__117__compressed_pairIyNS_22__unordered_map_hasherINS_12basic_stringIcNS_11char_traitsIcEENS_9allocatorIcEEEENS_17__hash_value_typeIS7_S7_EENS_4hashIS7_EENS_8equal_toIS7_EELb1EEEEC2B6v15007IiNS_18__default_init_tagEEEOT_OT0_ CODE
 0001:00040740 0000001dH .text$_ZNSt3__122__compressed_pair_elemINS_22__unordered_map_hasherINS_12basic_stringIcNS_11char_traitsIcEENS_9allocatorIcEEEENS_17__hash_value_typeIS7_S7_EENS_4hashIS7_EENS_8equal_toIS7_EELb1EEELi1ELb1EEC2B6v15007ENS_18__default_init_tagE CODE
 0001:00040760 00000007H .text$_ZNSt3__122__unordered_map_hasherINS_12basic_stringIcNS_11char_traitsIcEENS_9allocatorIcEEEENS_17__hash_value_typeIS6_S6_EENS_4hashIS6_EENS_8equal_toIS6_EELb1EEC2B6v15007Ev CODE
 0001:00040770 0000003bH .text$_ZNSt3__117__compressed_pairIfNS_21__unordered_map_equalINS_12basic_stringIcNS_11char_traitsIcEENS_9allocatorIcEEEENS_17__hash_value_typeIS7_S7_EENS_8equal_toIS7_EENS_4hashIS7_EELb1EEEEC2B6v15007IfNS_18__default_init_tagEEEOT_OT0_ CODE
 0001:000407b0 00000023H .text$_ZNSt3__122__compressed_pair_elemIfLi0ELb0EEC2B6v15007IfvEEOT_ CODE
 0001:000407e0 0000001dH .text$_ZNSt3__122__compressed_pair_elemINS_21__unordered_map_equalINS_12basic_stringIcNS_11char_traitsIcEENS_9allocatorIcEEEENS_17__hash_value_typeIS7_S7_EENS_8equal_toIS7_EENS_4hashIS7_EELb1EEELi1ELb1EEC2B6v15007ENS_18__default_init_tagE CODE
 0001:00040800 00000007H .text$_ZNSt3__121__unordered_map_equalINS_12basic_stringIcNS_11char_traitsIcEENS_9allocatorIcEEEENS_17__hash_value_typeIS6_S6_EENS_8equal_toIS6_EENS_4hashIS6_EELb1EEC2B6v15007Ev CODE
 0001:00040810 00000055H .text$_ZNSt3__112__hash_tableINS_17__hash_value_typeINS_12basic_stringIcNS_11char_traitsIcEENS_9allocatorIcEEEES7_EENS_22__unordered_map_hasherIS7_S8_NS_4hashIS7_EENS_8equal_toIS7_EELb1EEENS_21__unordered_map_equalIS7_S8_SD_SB_Lb1EEENS5_IS8_EEE15__insert_uniqueB6v15007ERKNS_4pairIKS7_S7_EE CODE
 0001:00040870 000006e0H .text$_ZNSt3__112__hash_tableINS_17__hash_value_typeINS_12basic_stringIcNS_11char_traitsIcEENS_9allocatorIcEEEES7_EENS_22__unordered_map_hasherIS7_S8_NS_4hashIS7_EENS_8equal_toIS7_EELb1EEENS_21__unordered_map_equalIS7_S8_SD_SB_Lb1EEENS5_IS8_EEE25__emplace_unique_key_argsIS7_JRKNS_4pairIKS7_S7_EEEEENSK_INS_15__hash_iteratorIPNS_11__hash_nodeIS8_PvEEEEbEERKT_DpOT0_ CODE
 0001:00040f50 0000000bH .text$_ZNSt3__122__hash_key_value_typesINS_17__hash_value_typeINS_12basic_stringIcNS_11char_traitsIcEENS_9allocatorIcEEEES7_EEE9__get_keyB6v15007ERKNS_4pairIKS7_S7_EE CODE
 0001:00040f60 0000001dH .text$_ZNSt3__112__hash_tableINS_17__hash_value_typeINS_12basic_stringIcNS_11char_traitsIcEENS_9allocatorIcEEEES7_EENS_22__unordered_map_hasherIS7_S8_NS_4hashIS7_EENS_8equal_toIS7_EELb1EEENS_21__unordered_map_equalIS7_S8_SD_SB_Lb1EEENS5_IS8_EEE13hash_functionB6v15007Ev CODE
 0001:00040f80 00000023H .text$_ZNKSt3__122__unordered_map_hasherINS_12basic_stringIcNS_11char_traitsIcEENS_9allocatorIcEEEENS_17__hash_value_typeIS6_S6_EENS_4hashIS6_EENS_8equal_toIS6_EELb1EEclB6v15007ERKS6_ CODE
 0001:00040fb0 00000021H .text$_ZNKSt3__112__hash_tableINS_17__hash_value_typeINS_12basic_stringIcNS_11char_traitsIcEENS_9allocatorIcEEEES7_EENS_22__unordered_map_hasherIS7_S8_NS_4hashIS7_EENS_8equal_toIS7_EELb1EEENS_21__unordered_map_equalIS7_S8_SD_SB_Lb1EEENS5_IS8_EEE12bucket_countB6v15007Ev CODE
 0001:00040fe0 0000002cH .text$_ZNKSt3__110unique_ptrIA_PNS_16__hash_node_baseIPNS_11__hash_nodeINS_17__hash_value_typeINS_12basic_stringIcNS_11char_traitsIcEENS_9allocatorIcEEEES9_EEPvEEEENS_25__bucket_list_deallocatorINS7_ISF_EEEEEixB6v15007Ey CODE
 0001:00041010 0000000fH .text$_ZNKSt3__116__hash_node_baseIPNS_11__hash_nodeINS_17__hash_value_typeINS_12basic_stringIcNS_11char_traitsIcEENS_9allocatorIcEEEES8_EEPvEEE6__hashB6v15007Ev CODE
 0001:00041020 0000001dH .text$_ZNSt3__112__hash_tableINS_17__hash_value_typeINS_12basic_stringIcNS_11char_traitsIcEENS_9allocatorIcEEEES7_EENS_22__unordered_map_hasherIS7_S8_NS_4hashIS7_EENS_8equal_toIS7_EELb1EEENS_21__unordered_map_equalIS7_S8_SD_SB_Lb1EEENS5_IS8_EEE6key_eqB6v15007Ev CODE
 0001:00041040 00000043H .text$_ZNKSt3__121__unordered_map_equalINS_12basic_stringIcNS_11char_traitsIcEENS_9allocatorIcEEEENS_17__hash_value_typeIS6_S6_EENS_8equal_toIS6_EENS_4hashIS6_EELb1EEclB6v15007ERKS8_RKS6_ CODE
 0001:00041090 00000019H .text$_ZNSt3__116__hash_node_baseIPNS_11__hash_nodeINS_17__hash_value_typeINS_12basic_stringIcNS_11char_traitsIcEENS_9allocatorIcEEEES8_EEPvEEE8__upcastB6v15007Ev CODE
 0001:000410b0 00000182H .text$_ZNSt3__112__hash_tableINS_17__hash_value_typeINS_12basic_stringIcNS_11char_traitsIcEENS_9allocatorIcEEEES7_EENS_22__unordered_map_hasherIS7_S8_NS_4hashIS7_EENS_8equal_toIS7_EELb1EEENS_21__unordered_map_equalIS7_S8_SD_SB_Lb1EEENS5_IS8_EEE21__construct_node_hashIRKNS_4pairIKS7_S7_EEJEEENS_10unique_ptrINS_11__hash_nodeIS8_PvEENS_22__hash_node_destructorINS5_ISS_EEEEEEyOT_DpOT0_ CODE
 0001:00041240 0000001dH .text$_ZNSt3__112__hash_tableINS_17__hash_value_typeINS_12basic_stringIcNS_11char_traitsIcEENS_9allocatorIcEEEES7_EENS_22__unordered_map_hasherIS7_S8_NS_4hashIS7_EENS_8equal_toIS7_EELb1EEENS_21__unordered_map_equalIS7_S8_SD_SB_Lb1EEENS5_IS8_EEE4sizeB6v15007Ev CODE
 0001:00041260 0000001dH .text$_ZNSt3__112__hash_tableINS_17__hash_value_typeINS_12basic_stringIcNS_11char_traitsIcEENS_9allocatorIcEEEES7_EENS_22__unordered_map_hasherIS7_S8_NS_4hashIS7_EENS_8equal_toIS7_EELb1EEENS_21__unordered_map_equalIS7_S8_SD_SB_Lb1EEENS5_IS8_EEE15max_load_factorB6v15007Ev CODE
 0001:00041280 00000023H .text$_ZNSt3__112__hash_tableINS_17__hash_value_typeINS_12basic_stringIcNS_11char_traitsIcEENS_9allocatorIcEEEES7_EENS_22__unordered_map_hasherIS7_S8_NS_4hashIS7_EENS_8equal_toIS7_EELb1EEENS_21__unordered_map_equalIS7_S8_SD_SB_Lb1EEENS5_IS8_EEE15__rehash_uniqueB6v15007Ey CODE
 0001:000412b0 00000019H .text$_ZNSt3__117__compressed_pairINS_16__hash_node_baseIPNS_11__hash_nodeINS_17__hash_value_typeINS_12basic_stringIcNS_11char_traitsIcEENS_9allocatorIcEEEES9_EEPvEEEENS7_ISC_EEE5firstB6v15007Ev CODE
 0001:000412d0 00000019H .text$_ZNSt3__116__hash_node_baseIPNS_11__hash_nodeINS_17__hash_value_typeINS_12basic_stringIcNS_11char_traitsIcEENS_9allocatorIcEEEES8_EEPvEEE5__ptrB6v15007Ev CODE
 0001:000412f0 0000001bH .text$_ZNKSt3__110unique_ptrINS_11__hash_nodeINS_17__hash_value_typeINS_12basic_stringIcNS_11char_traitsIcEENS_9allocatorIcEEEES8_EEPvEENS_22__hash_node_destructorINS6_ISB_EEEEEptB6v15007Ev CODE
 0001:00041310 0000001bH .text$_ZNKSt3__110unique_ptrINS_11__hash_nodeINS_17__hash_value_typeINS_12basic_stringIcNS_11char_traitsIcEENS_9allocatorIcEEEES8_EEPvEENS_22__hash_node_destructorINS6_ISB_EEEEE3getB6v15007Ev CODE
 0001:00041330 0000003bH .text$_ZNSt3__110unique_ptrINS_11__hash_nodeINS_17__hash_value_typeINS_12basic_stringIcNS_11char_traitsIcEENS_9allocatorIcEEEES8_EEPvEENS_22__hash_node_destructorINS6_ISB_EEEEE7releaseB6v15007Ev CODE
 0001:00041370 00000019H .text$_ZNSt3__110unique_ptrINS_11__hash_nodeINS_17__hash_value_typeINS_12basic_stringIcNS_11char_traitsIcEENS_9allocatorIcEEEES8_EEPvEENS_22__hash_node_destructorINS6_ISB_EEEEED1B6v15007Ev CODE
 0001:00041390 0000002dH .text$_ZNSt3__115__hash_iteratorIPNS_11__hash_nodeINS_17__hash_value_typeINS_12basic_stringIcNS_11char_traitsIcEENS_9allocatorIcEEEES8_EEPvEEEC1B6v15007EPNS_16__hash_node_baseISC_EEPKv CODE
 0001:000413c0 0000002dH .text$_ZNSt3__14pairINS_15__hash_iteratorIPNS_11__hash_nodeINS_17__hash_value_typeINS_12basic_stringIcNS_11char_traitsIcEENS_9allocatorIcEEEES9_EEPvEEEEbEC1B6v15007ISE_RbLSB_0EEEOT_OT0_ CODE
 0001:000413f0 00000019H .text$_ZNSt3__117__compressed_pairIyNS_22__unordered_map_hasherINS_12basic_stringIcNS_11char_traitsIcEENS_9allocatorIcEEEENS_17__hash_value_typeIS7_S7_EENS_4hashIS7_EENS_8equal_toIS7_EELb1EEEE6secondB6v15007Ev CODE
 0001:00041410 0000000bH .text$_ZNSt3__122__compressed_pair_elemINS_22__unordered_map_hasherINS_12basic_stringIcNS_11char_traitsIcEENS_9allocatorIcEEEENS_17__hash_value_typeIS7_S7_EENS_4hashIS7_EENS_8equal_toIS7_EELb1EEELi1ELb1EE5__getB6v15007Ev CODE
 0001:00041420 00000019H .text$_ZNKSt3__110unique_ptrIA_PNS_16__hash_node_baseIPNS_11__hash_nodeINS_17__hash_value_typeINS_12basic_stringIcNS_11char_traitsIcEENS_9allocatorIcEEEES9_EEPvEEEENS_25__bucket_list_deallocatorINS7_ISF_EEEEE11get_deleterB6v15007Ev CODE
 0001:00041440 0000001bH .text$_ZNKSt3__125__bucket_list_deallocatorINS_9allocatorIPNS_16__hash_node_baseIPNS_11__hash_nodeINS_17__hash_value_typeINS_12basic_stringIcNS_11char_traitsIcEENS1_IcEEEES9_EEPvEEEEEEE4sizeB6v15007Ev CODE
 0001:00041460 0000001dH .text$_ZNKSt3__117__compressed_pairIPPNS_16__hash_node_baseIPNS_11__hash_nodeINS_17__hash_value_typeINS_12basic_stringIcNS_11char_traitsIcEENS_9allocatorIcEEEES9_EEPvEEEENS_25__bucket_list_deallocatorINS7_ISF_EEEEE6secondB6v15007Ev CODE
 0001:00041480 0000000bH .text$_ZNKSt3__122__compressed_pair_elemINS_25__bucket_list_deallocatorINS_9allocatorIPNS_16__hash_node_baseIPNS_11__hash_nodeINS_17__hash_value_typeINS_12basic_stringIcNS_11char_traitsIcEENS2_IcEEEESA_EEPvEEEEEEEELi1ELb0EE5__getB6v15007Ev CODE
 0001:00041490 00000019H .text$_ZNKSt3__117__compressed_pairIyNS_9allocatorIPNS_16__hash_node_baseIPNS_11__hash_nodeINS_17__hash_value_typeINS_12basic_stringIcNS_11char_traitsIcEENS1_IcEEEES9_EEPvEEEEEEE5firstB6v15007Ev CODE
 0001:000414b0 00000019H .text$_ZNKSt3__117__compressed_pairIPPNS_16__hash_node_baseIPNS_11__hash_nodeINS_17__hash_value_typeINS_12basic_stringIcNS_11char_traitsIcEENS_9allocatorIcEEEES9_EEPvEEEENS_25__bucket_list_deallocatorINS7_ISF_EEEEE5firstB6v15007Ev CODE
 0001:000414d0 0000000bH .text$_ZNKSt3__122__compressed_pair_elemIPPNS_16__hash_node_baseIPNS_11__hash_nodeINS_17__hash_value_typeINS_12basic_stringIcNS_11char_traitsIcEENS_9allocatorIcEEEES9_EEPvEEEELi0ELb0EE5__getB6v15007Ev CODE
 0001:000414e0 00000019H .text$_ZNSt3__117__compressed_pairIfNS_21__unordered_map_equalINS_12basic_stringIcNS_11char_traitsIcEENS_9allocatorIcEEEENS_17__hash_value_typeIS7_S7_EENS_8equal_toIS7_EENS_4hashIS7_EELb1EEEE6secondB6v15007Ev CODE
 0001:00041500 0000000bH .text$_ZNSt3__122__compressed_pair_elemINS_21__unordered_map_equalINS_12basic_stringIcNS_11char_traitsIcEENS_9allocatorIcEEEENS_17__hash_value_typeIS7_S7_EENS_8equal_toIS7_EENS_4hashIS7_EELb1EEELi1ELb1EE5__getB6v15007Ev CODE
 0001:00041510 00000019H .text$_ZNKSt3__117__hash_value_typeINS_12basic_stringIcNS_11char_traitsIcEENS_9allocatorIcEEEES6_E11__get_valueB6v15007Ev CODE
 0001:00041530 00000019H .text$_ZNSt3__17launderB6v15007IKNS_4pairIKNS_12basic_stringIcNS_11char_traitsIcEENS_9allocatorIcEEEES7_EEEEPT_SC_ CODE
 0001:00041550 0000000bH .text$_ZNSt3__19__launderB6v15007IKNS_4pairIKNS_12basic_stringIcNS_11char_traitsIcEENS_9allocatorIcEEEES7_EEEEPT_SC_ CODE
 0001:00041560 0000000bH .text$_ZNSt3__114pointer_traitsIPNS_16__hash_node_baseIPNS_11__hash_nodeINS_17__hash_value_typeINS_12basic_stringIcNS_11char_traitsIcEENS_9allocatorIcEEEES9_EEPvEEEEE10pointer_toB6v15007ERSE_ CODE
 0001:00041570 0000001dH .text$_ZNSt3__112__hash_tableINS_17__hash_value_typeINS_12basic_stringIcNS_11char_traitsIcEENS_9allocatorIcEEEES7_EENS_22__unordered_map_hasherIS7_S8_NS_4hashIS7_EENS_8equal_toIS7_EELb1EEENS_21__unordered_map_equalIS7_S8_SD_SB_Lb1EEENS5_IS8_EEE12__node_allocB6v15007Ev CODE
 0001:00041590 00000023H .text$_ZNSt3__116allocator_traitsINS_9allocatorINS_11__hash_nodeINS_17__hash_value_typeINS_12basic_stringIcNS_11char_traitsIcEENS1_IcEEEES8_EEPvEEEEE8allocateB6v15007ERSC_y CODE
 0001:000415c0 00000035H .text$_ZNSt3__122__hash_node_destructorINS_9allocatorINS_11__hash_nodeINS_17__hash_value_typeINS_12basic_stringIcNS_11char_traitsIcEENS1_IcEEEES8_EEPvEEEEEC1B6v15007ERSC_b CODE
 0001:00041600 0000002dH .text$_ZNSt3__110unique_ptrINS_11__hash_nodeINS_17__hash_value_typeINS_12basic_stringIcNS_11char_traitsIcEENS_9allocatorIcEEEES8_EEPvEENS_22__hash_node_destructorINS6_ISB_EEEEEC1B6v15007ILb1EvEEPSB_NS_16__dependent_typeINS_27__unique_ptr_deleter_sfinaeISE_EEXT_EE20__good_rval_ref_typeE CODE
 0001:00041630 0000002dH .text$_ZNSt3__116allocator_traitsINS_9allocatorINS_11__hash_nodeINS_17__hash_value_typeINS_12basic_stringIcNS_11char_traitsIcEENS1_IcEEEES8_EEPvEEEEE9constructB6v15007INS_4pairIKS8_S8_EEJRKSH_EvEEvRSC_PT_DpOT0_ CODE
 0001:00041660 00000019H .text$_ZNSt3__122__hash_key_value_typesINS_17__hash_value_typeINS_12basic_stringIcNS_11char_traitsIcEENS_9allocatorIcEEEES7_EEE9__get_ptrB6v15007ERS8_ CODE
 0001:00041680 00000019H .text$_ZNSt3__110unique_ptrINS_11__hash_nodeINS_17__hash_value_typeINS_12basic_stringIcNS_11char_traitsIcEENS_9allocatorIcEEEES8_EEPvEENS_22__hash_node_destructorINS6_ISB_EEEEE11get_deleterB6v15007Ev CODE
 0001:000416a0 00000019H .text$_ZNSt3__117__compressed_pairINS_16__hash_node_baseIPNS_11__hash_nodeINS_17__hash_value_typeINS_12basic_stringIcNS_11char_traitsIcEENS_9allocatorIcEEEES9_EEPvEEEENS7_ISC_EEE6secondB6v15007Ev CODE
 0001:000416c0 0000000bH .text$_ZNSt3__122__compressed_pair_elemINS_9allocatorINS_11__hash_nodeINS_17__hash_value_typeINS_12basic_stringIcNS_11char_traitsIcEENS1_IcEEEES8_EEPvEEEELi1ELb1EE5__getB6v15007Ev CODE
 0001:000416d0 00000051H .text$_ZNSt3__19allocatorINS_11__hash_nodeINS_17__hash_value_typeINS_12basic_stringIcNS_11char_traitsIcEENS0_IcEEEES7_EEPvEEE8allocateB6v15007Ey CODE
 0001:00041730 00000019H .text$_ZNSt3__116allocator_traitsINS_9allocatorINS_11__hash_nodeINS_17__hash_value_typeINS_12basic_stringIcNS_11char_traitsIcEENS1_IcEEEES8_EEPvEEEEE8max_sizeB6v15007ISC_vEEyRKSC_ CODE
 0001:00041750 00000011H .text$_ZNKSt3__19allocatorINS_11__hash_nodeINS_17__hash_value_typeINS_12basic_stringIcNS_11char_traitsIcEENS0_IcEEEES7_EEPvEEE8max_sizeB6v15007Ev CODE
 0001:00041770 00000033H .text$_ZNSt3__122__hash_node_destructorINS_9allocatorINS_11__hash_nodeINS_17__hash_value_typeINS_12basic_stringIcNS_11char_traitsIcEENS1_IcEEEES8_EEPvEEEEEC2B6v15007ERSC_b CODE
 0001:000417b0 0000003aH .text$_ZNSt3__110unique_ptrINS_11__hash_nodeINS_17__hash_value_typeINS_12basic_stringIcNS_11char_traitsIcEENS_9allocatorIcEEEES8_EEPvEENS_22__hash_node_destructorINS6_ISB_EEEEEC2B6v15007ILb1EvEEPSB_NS_16__dependent_typeINS_27__unique_ptr_deleter_sfinaeISE_EEXT_EE20__good_rval_ref_typeE CODE
 0001:000417f0 0000002dH .text$_ZNSt3__117__compressed_pairIPNS_11__hash_nodeINS_17__hash_value_typeINS_12basic_stringIcNS_11char_traitsIcEENS_9allocatorIcEEEES8_EEPvEENS_22__hash_node_destructorINS6_ISB_EEEEEC1B6v15007IRSC_SF_EEOT_OT0_ CODE
 0001:00041820 00000040H .text$_ZNSt3__117__compressed_pairIPNS_11__hash_nodeINS_17__hash_value_typeINS_12basic_stringIcNS_11char_traitsIcEENS_9allocatorIcEEEES8_EEPvEENS_22__hash_node_destructorINS6_ISB_EEEEEC2B6v15007IRSC_SF_EEOT_OT0_ CODE
 0001:00041860 00000021H .text$_ZNSt3__122__compressed_pair_elemIPNS_11__hash_nodeINS_17__hash_value_typeINS_12basic_stringIcNS_11char_traitsIcEENS_9allocatorIcEEEES8_EEPvEELi0ELb0EEC2B6v15007IRSC_vEEOT_ CODE
 0001:00041890 00000029H .text$_ZNSt3__122__compressed_pair_elemINS_22__hash_node_destructorINS_9allocatorINS_11__hash_nodeINS_17__hash_value_typeINS_12basic_stringIcNS_11char_traitsIcEENS2_IcEEEES9_EEPvEEEEEELi1ELb0EEC2B6v15007ISE_vEEOT_ CODE
 0001:000418c0 00000028H .text$_ZNSt3__19allocatorINS_11__hash_nodeINS_17__hash_value_typeINS_12basic_stringIcNS_11char_traitsIcEENS0_IcEEEES7_EEPvEEE9constructB6v15007INS_4pairIKS7_S7_EEJRKSF_EEEvPT_DpOT0_ CODE
 0001:000418f0 00000023H .text$_ZNSt3__14pairIKNS_12basic_stringIcNS_11char_traitsIcEENS_9allocatorIcEEEES6_EC1ERKS8_ CODE
 0001:00041920 0000006eH .text$_ZNSt3__14pairIKNS_12basic_stringIcNS_11char_traitsIcEENS_9allocatorIcEEEES6_EC2ERKS8_ CODE
 0001:00041990 00000019H .text$_ZNSt3__117__hash_value_typeINS_12basic_stringIcNS_11char_traitsIcEENS_9allocatorIcEEEES6_E11__get_valueB6v15007Ev CODE
 0001:000419b0 00000019H .text$_ZNSt3__17launderB6v15007INS_4pairIKNS_12basic_stringIcNS_11char_traitsIcEENS_9allocatorIcEEEES7_EEEEPT_SB_ CODE
 0001:000419d0 0000000bH .text$_ZNSt3__19__launderB6v15007INS_4pairIKNS_12basic_stringIcNS_11char_traitsIcEENS_9allocatorIcEEEES7_EEEEPT_SB_ CODE
 0001:000419e0 0000001dH .text$_ZNSt3__117__compressed_pairIPNS_11__hash_nodeINS_17__hash_value_typeINS_12basic_stringIcNS_11char_traitsIcEENS_9allocatorIcEEEES8_EEPvEENS_22__hash_node_destructorINS6_ISB_EEEEE6secondB6v15007Ev CODE
 0001:00041a00 0000000bH .text$_ZNSt3__122__compressed_pair_elemINS_22__hash_node_destructorINS_9allocatorINS_11__hash_nodeINS_17__hash_value_typeINS_12basic_stringIcNS_11char_traitsIcEENS2_IcEEEES9_EEPvEEEEEELi1ELb0EE5__getB6v15007Ev CODE
 0001:00041a10 00000019H .text$_ZNSt3__117__compressed_pairIyNS_22__unordered_map_hasherINS_12basic_stringIcNS_11char_traitsIcEENS_9allocatorIcEEEENS_17__hash_value_typeIS7_S7_EENS_4hashIS7_EENS_8equal_toIS7_EELb1EEEE5firstB6v15007Ev CODE
 0001:00041a30 00000019H .text$_ZNSt3__117__compressed_pairIfNS_21__unordered_map_equalINS_12basic_stringIcNS_11char_traitsIcEENS_9allocatorIcEEEENS_17__hash_value_typeIS7_S7_EENS_8equal_toIS7_EENS_4hashIS7_EELb1EEEE5firstB6v15007Ev CODE
 0001:00041a50 00000255H .text$_ZNSt3__112__hash_tableINS_17__hash_value_typeINS_12basic_stringIcNS_11char_traitsIcEENS_9allocatorIcEEEES7_EENS_22__unordered_map_hasherIS7_S8_NS_4hashIS7_EENS_8equal_toIS7_EELb1EEENS_21__unordered_map_equalIS7_S8_SD_SB_Lb1EEENS5_IS8_EEE8__rehashILb1EEEvy CODE
 0001:00041cb0 000002c2H .text$_ZNSt3__112__hash_tableINS_17__hash_value_typeINS_12basic_stringIcNS_11char_traitsIcEENS_9allocatorIcEEEES7_EENS_22__unordered_map_hasherIS7_S8_NS_4hashIS7_EENS_8equal_toIS7_EELb1EEENS_21__unordered_map_equalIS7_S8_SD_SB_Lb1EEENS5_IS8_EEE11__do_rehashILb1EEEvy CODE
 0001:00041f80 00000007H .text$_ZNSt3__125__debug_db_invalidate_allB6v15007INS_12__hash_tableINS_17__hash_value_typeINS_12basic_stringIcNS_11char_traitsIcEENS_9allocatorIcEEEES8_EENS_22__unordered_map_hasherIS8_S9_NS_4hashIS8_EENS_8equal_toIS8_EELb1EEENS_21__unordered_map_equalIS8_S9_SE_SC_Lb1EEENS6_IS9_EEEEEEvPT_ CODE
 0001:00041f90 00000019H .text$_ZNSt3__110unique_ptrIA_PNS_16__hash_node_baseIPNS_11__hash_nodeINS_17__hash_value_typeINS_12basic_stringIcNS_11char_traitsIcEENS_9allocatorIcEEEES9_EEPvEEEENS_25__bucket_list_deallocatorINS7_ISF_EEEEE11get_deleterB6v15007Ev CODE
 0001:00041fb0 00000019H .text$_ZNSt3__125__bucket_list_deallocatorINS_9allocatorIPNS_16__hash_node_baseIPNS_11__hash_nodeINS_17__hash_value_typeINS_12basic_stringIcNS_11char_traitsIcEENS1_IcEEEES9_EEPvEEEEEEE7__allocB6v15007Ev CODE
 0001:00041fd0 0000006aH .text$_ZNSt3__110unique_ptrIA_PNS_16__hash_node_baseIPNS_11__hash_nodeINS_17__hash_value_typeINS_12basic_stringIcNS_11char_traitsIcEENS_9allocatorIcEEEES9_EEPvEEEENS_25__bucket_list_deallocatorINS7_ISF_EEEEE5resetB6v15007IPSF_EENS_9enable_ifIXsr28_CheckArrayPointerConversionIT_EE5valueEvE4typeESO_ CODE
 0001:00042040 00000023H .text$_ZNSt3__116allocator_traitsINS_9allocatorIPNS_16__hash_node_baseIPNS_11__hash_nodeINS_17__hash_value_typeINS_12basic_stringIcNS_11char_traitsIcEENS1_IcEEEES9_EEPvEEEEEEE8allocateB6v15007ERSG_y CODE
 0001:00042070 00000019H .text$_ZNSt3__125__bucket_list_deallocatorINS_9allocatorIPNS_16__hash_node_baseIPNS_11__hash_nodeINS_17__hash_value_typeINS_12basic_stringIcNS_11char_traitsIcEENS1_IcEEEES9_EEPvEEEEEEE4sizeB6v15007Ev CODE
 0001:00042090 0000001dH .text$_ZNSt3__117__compressed_pairIPPNS_16__hash_node_baseIPNS_11__hash_nodeINS_17__hash_value_typeINS_12basic_stringIcNS_11char_traitsIcEENS_9allocatorIcEEEES9_EEPvEEEENS_25__bucket_list_deallocatorINS7_ISF_EEEEE6secondB6v15007Ev CODE
 0001:000420b0 0000000bH .text$_ZNSt3__122__compressed_pair_elemINS_25__bucket_list_deallocatorINS_9allocatorIPNS_16__hash_node_baseIPNS_11__hash_nodeINS_17__hash_value_typeINS_12basic_stringIcNS_11char_traitsIcEENS2_IcEEEESA_EEPvEEEEEEEELi1ELb0EE5__getB6v15007Ev CODE
 0001:000420c0 00000019H .text$_ZNSt3__117__compressed_pairIyNS_9allocatorIPNS_16__hash_node_baseIPNS_11__hash_nodeINS_17__hash_value_typeINS_12basic_stringIcNS_11char_traitsIcEENS1_IcEEEES9_EEPvEEEEEEE6secondB6v15007Ev CODE
 0001:000420e0 0000000bH .text$_ZNSt3__122__compressed_pair_elemINS_9allocatorIPNS_16__hash_node_baseIPNS_11__hash_nodeINS_17__hash_value_typeINS_12basic_stringIcNS_11char_traitsIcEENS1_IcEEEES9_EEPvEEEEEELi1ELb1EE5__getB6v15007Ev CODE
 0001:000420f0 00000019H .text$_ZNSt3__117__compressed_pairIPPNS_16__hash_node_baseIPNS_11__hash_nodeINS_17__hash_value_typeINS_12basic_stringIcNS_11char_traitsIcEENS_9allocatorIcEEEES9_EEPvEEEENS_25__bucket_list_deallocatorINS7_ISF_EEEEE5firstB6v15007Ev CODE
 0001:00042110 0000004eH .text$_ZNSt3__125__bucket_list_deallocatorINS_9allocatorIPNS_16__hash_node_baseIPNS_11__hash_nodeINS_17__hash_value_typeINS_12basic_stringIcNS_11char_traitsIcEENS1_IcEEEES9_EEPvEEEEEEEclB6v15007EPSF_ CODE
 0001:00042160 0000000bH .text$_ZNSt3__122__compressed_pair_elemIPPNS_16__hash_node_baseIPNS_11__hash_nodeINS_17__hash_value_typeINS_12basic_stringIcNS_11char_traitsIcEENS_9allocatorIcEEEES9_EEPvEEEELi0ELb0EE5__getB6v15007Ev CODE
 0001:00042170 0000002dH .text$_ZNSt3__116allocator_traitsINS_9allocatorIPNS_16__hash_node_baseIPNS_11__hash_nodeINS_17__hash_value_typeINS_12basic_stringIcNS_11char_traitsIcEENS1_IcEEEES9_EEPvEEEEEEE10deallocateB6v15007ERSG_PSF_y CODE
 0001:000421a0 0000003fH .text$_ZNSt3__19allocatorIPNS_16__hash_node_baseIPNS_11__hash_nodeINS_17__hash_value_typeINS_12basic_stringIcNS_11char_traitsIcEENS0_IcEEEES8_EEPvEEEEE10deallocateB6v15007EPSE_y CODE
 0001:000421e0 00000051H .text$_ZNSt3__19allocatorIPNS_16__hash_node_baseIPNS_11__hash_nodeINS_17__hash_value_typeINS_12basic_stringIcNS_11char_traitsIcEENS0_IcEEEES8_EEPvEEEEE8allocateB6v15007Ey CODE
 0001:00042240 00000019H .text$_ZNSt3__116allocator_traitsINS_9allocatorIPNS_16__hash_node_baseIPNS_11__hash_nodeINS_17__hash_value_typeINS_12basic_stringIcNS_11char_traitsIcEENS1_IcEEEES9_EEPvEEEEEEE8max_sizeB6v15007ISG_vEEyRKSG_ CODE
 0001:00042260 00000011H .text$_ZNKSt3__19allocatorIPNS_16__hash_node_baseIPNS_11__hash_nodeINS_17__hash_value_typeINS_12basic_stringIcNS_11char_traitsIcEENS0_IcEEEES8_EEPvEEEEE8max_sizeB6v15007Ev CODE
 0001:00042280 00000019H .text$_ZNSt3__117__compressed_pairIyNS_9allocatorIPNS_16__hash_node_baseIPNS_11__hash_nodeINS_17__hash_value_typeINS_12basic_stringIcNS_11char_traitsIcEENS1_IcEEEES9_EEPvEEEEEEE5firstB6v15007Ev CODE
 0001:000422a0 0000000bH .text$_ZNSt3__122__compressed_pair_elemINS_16__hash_node_baseIPNS_11__hash_nodeINS_17__hash_value_typeINS_12basic_stringIcNS_11char_traitsIcEENS_9allocatorIcEEEES9_EEPvEEEELi0ELb0EE5__getB6v15007Ev CODE
 0001:000422b0 00000019H .text$_ZNKSt3__117__compressed_pairIPNS_11__hash_nodeINS_17__hash_value_typeINS_12basic_stringIcNS_11char_traitsIcEENS_9allocatorIcEEEES8_EEPvEENS_22__hash_node_destructorINS6_ISB_EEEEE5firstB6v15007Ev CODE
 0001:000422d0 0000000bH .text$_ZNKSt3__122__compressed_pair_elemIPNS_11__hash_nodeINS_17__hash_value_typeINS_12basic_stringIcNS_11char_traitsIcEENS_9allocatorIcEEEES8_EEPvEELi0ELb0EE5__getB6v15007Ev CODE
 0001:000422e0 00000019H .text$_ZNSt3__117__compressed_pairIPNS_11__hash_nodeINS_17__hash_value_typeINS_12basic_stringIcNS_11char_traitsIcEENS_9allocatorIcEEEES8_EEPvEENS_22__hash_node_destructorINS6_ISB_EEEEE5firstB6v15007Ev CODE
 0001:00042300 0000000bH .text$_ZNSt3__122__compressed_pair_elemIPNS_11__hash_nodeINS_17__hash_value_typeINS_12basic_stringIcNS_11char_traitsIcEENS_9allocatorIcEEEES8_EEPvEELi0ELb0EE5__getB6v15007Ev CODE
 0001:00042310 0000001dH .text$_ZNSt3__110unique_ptrINS_11__hash_nodeINS_17__hash_value_typeINS_12basic_stringIcNS_11char_traitsIcEENS_9allocatorIcEEEES8_EEPvEENS_22__hash_node_destructorINS6_ISB_EEEEED2B6v15007Ev CODE
 0001:00042330 0000006aH .text$_ZNSt3__110unique_ptrINS_11__hash_nodeINS_17__hash_value_typeINS_12basic_stringIcNS_11char_traitsIcEENS_9allocatorIcEEEES8_EEPvEENS_22__hash_node_destructorINS6_ISB_EEEEE5resetB6v15007EPSB_ CODE
 0001:000423a0 00000093H .text$_ZNSt3__122__hash_node_destructorINS_9allocatorINS_11__hash_nodeINS_17__hash_value_typeINS_12basic_stringIcNS_11char_traitsIcEENS1_IcEEEES8_EEPvEEEEEclB6v15007EPSB_ CODE
 0001:00042440 0000001eH .text$_ZNSt3__116allocator_traitsINS_9allocatorINS_11__hash_nodeINS_17__hash_value_typeINS_12basic_stringIcNS_11char_traitsIcEENS1_IcEEEES8_EEPvEEEEE7destroyB6v15007INS_4pairIKS8_S8_EEvvEEvRSC_PT_ CODE
 0001:00042460 0000002dH .text$_ZNSt3__116allocator_traitsINS_9allocatorINS_11__hash_nodeINS_17__hash_value_typeINS_12basic_stringIcNS_11char_traitsIcEENS1_IcEEEES8_EEPvEEEEE10deallocateB6v15007ERSC_PSB_y CODE
 0001:00042490 0000003fH .text$_ZNSt3__19allocatorINS_11__hash_nodeINS_17__hash_value_typeINS_12basic_stringIcNS_11char_traitsIcEENS0_IcEEEES7_EEPvEEE10deallocateB6v15007EPSA_y CODE
 0001:000424d0 00000024H .text$_ZNSt3__115__hash_iteratorIPNS_11__hash_nodeINS_17__hash_value_typeINS_12basic_stringIcNS_11char_traitsIcEENS_9allocatorIcEEEES8_EEPvEEEC2B6v15007EPNS_16__hash_node_baseISC_EEPKv CODE
 0001:00042500 00000033H .text$_ZNSt3__14pairINS_15__hash_iteratorIPNS_11__hash_nodeINS_17__hash_value_typeINS_12basic_stringIcNS_11char_traitsIcEENS_9allocatorIcEEEES9_EEPvEEEEbEC2B6v15007ISE_RbLSB_0EEEOT_OT0_ CODE
 0001:00042540 00000051H .text$_ZNSt3__112__hash_tableINS_17__hash_value_typeINS_12basic_stringIcNS_11char_traitsIcEENS_9allocatorIcEEEES7_EENS_22__unordered_map_hasherIS7_S8_NS_4hashIS7_EENS_8equal_toIS7_EELb1EEENS_21__unordered_map_equalIS7_S8_SD_SB_Lb1EEENS5_IS8_EEED2Ev CODE
 0001:000425a0 000000a8H .text$_ZNSt3__112__hash_tableINS_17__hash_value_typeINS_12basic_stringIcNS_11char_traitsIcEENS_9allocatorIcEEEES7_EENS_22__unordered_map_hasherIS7_S8_NS_4hashIS7_EENS_8equal_toIS7_EELb1EEENS_21__unordered_map_equalIS7_S8_SD_SB_Lb1EEENS5_IS8_EEE17__deallocate_nodeEPNS_16__hash_node_baseIPNS_11__hash_nodeIS8_PvEEEE CODE
 0001:00042650 00000007H .text$_ZNSt3__118__debug_db_erase_cB6v15007INS_12__hash_tableINS_17__hash_value_typeINS_12basic_stringIcNS_11char_traitsIcEENS_9allocatorIcEEEES8_EENS_22__unordered_map_hasherIS8_S9_NS_4hashIS8_EENS_8equal_toIS8_EELb1EEENS_21__unordered_map_equalIS8_S9_SE_SC_Lb1EEENS6_IS9_EEEEEEvPT_ CODE
 0001:00042660 00000019H .text$_ZNSt3__110unique_ptrIA_PNS_16__hash_node_baseIPNS_11__hash_nodeINS_17__hash_value_typeINS_12basic_stringIcNS_11char_traitsIcEENS_9allocatorIcEEEES9_EEPvEEEENS_25__bucket_list_deallocatorINS7_ISF_EEEEED1B6v15007Ev CODE
 0001:00042680 0000001dH .text$_ZNSt3__110unique_ptrIA_PNS_16__hash_node_baseIPNS_11__hash_nodeINS_17__hash_value_typeINS_12basic_stringIcNS_11char_traitsIcEENS_9allocatorIcEEEES9_EEPvEEEENS_25__bucket_list_deallocatorINS7_ISF_EEEEED2B6v15007Ev CODE
 0001:000426a0 0000005fH .text$_ZNSt3__110unique_ptrIA_PNS_16__hash_node_baseIPNS_11__hash_nodeINS_17__hash_value_typeINS_12basic_stringIcNS_11char_traitsIcEENS_9allocatorIcEEEES9_EEPvEEEENS_25__bucket_list_deallocatorINS7_ISF_EEEEE5resetB6v15007EDn CODE
 0001:00042700 00000019H .text$_ZNSt3__113unordered_mapINS_12basic_stringIcNS_11char_traitsIcEENS_9allocatorIcEEEES6_NS_4hashIS6_EENS_8equal_toIS6_EENS4_INS_4pairIKS6_S6_EEEEED2B6v15007Ev CODE
 0001:00042720 0000019eH .text$_ZNSt3__112__hash_tableINS_17__hash_value_typeINS_12basic_stringIcNS_11char_traitsIcEENS_9allocatorIcEEEES7_EENS_22__unordered_map_hasherIS7_S8_NS_4hashIS7_EENS_8equal_toIS7_EELb1EEENS_21__unordered_map_equalIS7_S8_SD_SB_Lb1EEENS5_IS8_EEE4findIS7_EENS_15__hash_iteratorIPNS_11__hash_nodeIS8_PvEEEERKT_ CODE
 0001:000428c0 00000023H .text$_ZNSt3__119__hash_map_iteratorINS_15__hash_iteratorIPNS_11__hash_nodeINS_17__hash_value_typeINS_12basic_stringIcNS_11char_traitsIcEENS_9allocatorIcEEEES9_EEPvEEEEEC1B6v15007ESE_ CODE
 0001:000428f0 00000026H .text$_ZNSt3__112__hash_tableINS_17__hash_value_typeINS_12basic_stringIcNS_11char_traitsIcEENS_9allocatorIcEEEES7_EENS_22__unordered_map_hasherIS7_S8_NS_4hashIS7_EENS_8equal_toIS7_EELb1EEENS_21__unordered_map_equalIS7_S8_SD_SB_Lb1EEENS5_IS8_EEE3endEv CODE
 0001:00042920 0000001eH .text$_ZNSt3__119__hash_map_iteratorINS_15__hash_iteratorIPNS_11__hash_nodeINS_17__hash_value_typeINS_12basic_stringIcNS_11char_traitsIcEENS_9allocatorIcEEEES9_EEPvEEEEEC2B6v15007ESE_ CODE
 0001:00042940 00000029H .text$_ZNSt3__1neB6v15007ERKNS_15__hash_iteratorIPNS_11__hash_nodeINS_17__hash_value_typeINS_12basic_stringIcNS_11char_traitsIcEENS_9allocatorIcEEEES8_EEPvEEEESF_ CODE
 0001:00042970 00000029H .text$_ZNSt3__1eqB6v15007ERKNS_15__hash_iteratorIPNS_11__hash_nodeINS_17__hash_value_typeINS_12basic_stringIcNS_11char_traitsIcEENS_9allocatorIcEEEES8_EEPvEEEESF_ CODE
 0001:000429a0 0000000bH .text$_ZNSt3__114pointer_traitsIPNS_4pairIKNS_12basic_stringIcNS_11char_traitsIcEENS_9allocatorIcEEEES7_EEE10pointer_toB6v15007ERS9_ CODE
 0001:000429b0 00000028H .text$_ZNKSt3__115__hash_iteratorIPNS_11__hash_nodeINS_17__hash_value_typeINS_12basic_stringIcNS_11char_traitsIcEENS_9allocatorIcEEEES8_EEPvEEEptB6v15007Ev CODE
 0001:000429e0 0000000bH .text$_ZNSt3__114pointer_traitsIPNS_17__hash_value_typeINS_12basic_stringIcNS_11char_traitsIcEENS_9allocatorIcEEEES7_EEE10pointer_toB6v15007ERS8_ CODE
 0001:000429f0 00000021H .text$_ZNSt3__123mersenne_twister_engineIjLy32ELy624ELy397ELy31ELj2567483615ELy11ELj4294967295ELy7ELj2636928640ELy15ELj4022730752ELy18ELj1812433253EEC2B6v15007Ej CODE
 0001:00042a20 000000b7H .text$_ZNSt3__123mersenne_twister_engineIjLy32ELy624ELy397ELy31ELj2567483615ELy11ELj4294967295ELy7ELj2636928640ELy15ELj4022730752ELy18ELj1812433253EE4seedEj CODE
 0001:00042ae0 0000000eH .text$_ZNSt3__123mersenne_twister_engineIjLy32ELy624ELy397ELy31ELj2567483615ELy11ELj4294967295ELy7ELj2636928640ELy15ELj4022730752ELy18ELj1812433253EE8__rshiftB6v15007ILy30EEENS_9enable_ifIXltT_L_ZNS1_3_DtEEEjE4typeEj CODE
 0001:00042af0 0000002bH .text$_ZNSt3__124uniform_int_distributionIiEC2Eii CODE
 0001:00042b20 0000002bH .text$_ZNSt3__124uniform_int_distributionIiE10param_typeC1Eii CODE
 0001:00042b50 00000027H .text$_ZNSt3__124uniform_int_distributionIiE10param_typeC2Eii CODE
 0001:00042b80 00000184H .text$_ZNSt3__124uniform_int_distributionIiEclINS_23mersenne_twister_engineIjLy32ELy624ELy397ELy31ELj2567483615ELy11ELj4294967295ELy7ELj2636928640ELy15ELj4022730752ELy18ELj1812433253EEEEEiRT_RKNS1_10param_typeE CODE
 0001:00042d10 0000000eH .text$_ZNKSt3__124uniform_int_distributionIiE10param_type1bEv CODE
 0001:00042d20 0000000dH .text$_ZNKSt3__124uniform_int_distributionIiE10param_type1aEv CODE
 0001:00042d30 0000002dH .text$_ZNSt3__125__independent_bits_engineINS_23mersenne_twister_engineIjLy32ELy624ELy397ELy31ELj2567483615ELy11ELj4294967295ELy7ELj2636928640ELy15ELj4022730752ELy18ELj1812433253EEEjEC1ERS2_y CODE
 0001:00042d60 0000001dH .text$_ZNSt3__125__independent_bits_engineINS_23mersenne_twister_engineIjLy32ELy624ELy397ELy31ELj2567483615ELy11ELj4294967295ELy7ELj2636928640ELy15ELj4022730752ELy18ELj1812433253EEEjEclEv CODE
 0001:00042d80 00000039H .text$_ZNSt3__113__countl_zeroB6v15007IjEEiT_ CODE
 0001:00042dc0 000001ddH .text$_ZNSt3__125__independent_bits_engineINS_23mersenne_twister_engineIjLy32ELy624ELy397ELy31ELj2567483615ELy11ELj4294967295ELy7ELj2636928640ELy15ELj4022730752ELy18ELj1812433253EEEjEC2ERS2_y CODE
 0001:00042fa0 0000002cH .text$_ZNSt3__125__independent_bits_engineINS_23mersenne_twister_engineIjLy32ELy624ELy397ELy31ELj2567483615ELy11ELj4294967295ELy7ELj2636928640ELy15ELj4022730752ELy18ELj1812433253EEEjE6__evalENS_17integral_constantIbLb0EEE CODE
 0001:00042fd0 00000141H .text$_ZNSt3__123mersenne_twister_engineIjLy32ELy624ELy397ELy31ELj2567483615ELy11ELj4294967295ELy7ELj2636928640ELy15ELj4022730752ELy18ELj1812433253EEclEv CODE
 0001:00043120 0000000eH .text$_ZNSt3__123mersenne_twister_engineIjLy32ELy624ELy397ELy31ELj2567483615ELy11ELj4294967295ELy7ELj2636928640ELy15ELj4022730752ELy18ELj1812433253EE8__rshiftB6v15007ILy1EEENS_9enable_ifIXltT_L_ZNS1_3_DtEEEjE4typeEj CODE
 0001:00043130 0000000eH .text$_ZNSt3__123mersenne_twister_engineIjLy32ELy624ELy397ELy31ELj2567483615ELy11ELj4294967295ELy7ELj2636928640ELy15ELj4022730752ELy18ELj1812433253EE8__rshiftB6v15007ILy11EEENS_9enable_ifIXltT_L_ZNS1_3_DtEEEjE4typeEj CODE
 0001:00043140 00000011H .text$_ZNSt3__123mersenne_twister_engineIjLy32ELy624ELy397ELy31ELj2567483615ELy11ELj4294967295ELy7ELj2636928640ELy15ELj4022730752ELy18ELj1812433253EE8__lshiftB6v15007ILy7EEENS_9enable_ifIXltT_Ly32EEjE4typeEj CODE
 0001:00043160 00000011H .text$_ZNSt3__123mersenne_twister_engineIjLy32ELy624ELy397ELy31ELj2567483615ELy11ELj4294967295ELy7ELj2636928640ELy15ELj4022730752ELy18ELj1812433253EE8__lshiftB6v15007ILy15EEENS_9enable_ifIXltT_Ly32EEjE4typeEj CODE
 0001:00043180 0000000eH .text$_ZNSt3__123mersenne_twister_engineIjLy32ELy624ELy397ELy31ELj2567483615ELy11ELj4294967295ELy7ELj2636928640ELy15ELj4022730752ELy18ELj1812433253EE8__rshiftB6v15007ILy18EEENS_9enable_ifIXltT_L_ZNS1_3_DtEEEjE4typeEj CODE
 0001:00043190 00000011H .text$_ZNSt3__112__libcpp_clzB6v15007Ej CODE
 0001:000431b0 0000002dH .text$_ZNSt3__111__wrap_iterIPKNS_12basic_stringIcNS_11char_traitsIcEENS_9allocatorIcEEEEEC1B6v15007EPKvS8_ CODE
 0001:000431e0 00000023H .text$_ZNSt3__111__wrap_iterIPKNS_12basic_stringIcNS_11char_traitsIcEENS_9allocatorIcEEEEEC2B6v15007EPKvS8_ CODE
 0001:00043210 00000019H .text$_ZNSt3__113unordered_setINS_12basic_stringIcNS_11char_traitsIcEENS_9allocatorIcEEEENS_4hashIS6_EENS_8equal_toIS6_EENS4_IS6_EEED2B6v15007Ev CODE
 0001:00043230 00000087H .text$_ZNSt3__113unordered_setINS_12basic_stringIcNS_11char_traitsIcEENS_9allocatorIcEEEENS_4hashIS6_EENS_8equal_toIS6_EENS4_IS6_EEEC2ESt16initializer_listIS6_E CODE
 0001:000432c0 00000019H .text$_ZNSt3__112__hash_tableINS_12basic_stringIcNS_11char_traitsIcEENS_9allocatorIcEEEENS_4hashIS6_EENS_8equal_toIS6_EENS4_IS6_EEEC1Ev CODE
 0001:000432e0 00000059H .text$_ZNSt3__113unordered_setINS_12basic_stringIcNS_11char_traitsIcEENS_9allocatorIcEEEENS_4hashIS6_EENS_8equal_toIS6_EENS4_IS6_EEE6insertIPKS6_EEvT_SG_ CODE
 0001:00043340 00000083H .text$_ZNSt3__112__hash_tableINS_12basic_stringIcNS_11char_traitsIcEENS_9allocatorIcEEEENS_4hashIS6_EENS_8equal_toIS6_EENS4_IS6_EEEC2Ev CODE
 0001:000433d0 00000019H .text$_ZNSt3__110unique_ptrIA_PNS_16__hash_node_baseIPNS_11__hash_nodeINS_12basic_stringIcNS_11char_traitsIcEENS_9allocatorIcEEEEPvEEEENS_25__bucket_list_deallocatorINS6_ISD_EEEEEC1B6v15007ILb1EvEEv CODE
 0001:000433f0 00000019H .text$_ZNSt3__117__compressed_pairINS_16__hash_node_baseIPNS_11__hash_nodeINS_12basic_stringIcNS_11char_traitsIcEENS_9allocatorIcEEEEPvEEEENS6_ISA_EEEC1B6v15007ILb1EvEEv CODE
 0001:00043410 0000002dH .text$_ZNSt3__117__compressed_pairIyNS_4hashINS_12basic_stringIcNS_11char_traitsIcEENS_9allocatorIcEEEEEEEC1B6v15007IiNS_18__default_init_tagEEEOT_OT0_ CODE
 0001:00043440 0000002dH .text$_ZNSt3__117__compressed_pairIfNS_8equal_toINS_12basic_stringIcNS_11char_traitsIcEENS_9allocatorIcEEEEEEEC1B6v15007IfNS_18__default_init_tagEEEOT_OT0_ CODE
 0001:00043470 00000030H .text$_ZNSt3__110unique_ptrIA_PNS_16__hash_node_baseIPNS_11__hash_nodeINS_12basic_stringIcNS_11char_traitsIcEENS_9allocatorIcEEEEPvEEEENS_25__bucket_list_deallocatorINS6_ISD_EEEEEC2B6v15007ILb1EvEEv CODE
 0001:000434a0 0000002dH .text$_ZNSt3__117__compressed_pairIPPNS_16__hash_node_baseIPNS_11__hash_nodeINS_12basic_stringIcNS_11char_traitsIcEENS_9allocatorIcEEEEPvEEEENS_25__bucket_list_deallocatorINS6_ISD_EEEEEC1B6v15007INS_16__value_init_tagESK_EEOT_OT0_ CODE
 0001:000434d0 0000003eH .text$_ZNSt3__117__compressed_pairIPPNS_16__hash_node_baseIPNS_11__hash_nodeINS_12basic_stringIcNS_11char_traitsIcEENS_9allocatorIcEEEEPvEEEENS_25__bucket_list_deallocatorINS6_ISD_EEEEEC2B6v15007INS_16__value_init_tagESK_EEOT_OT0_ CODE
 0001:00043510 0000001cH .text$_ZNSt3__122__compressed_pair_elemIPPNS_16__hash_node_baseIPNS_11__hash_nodeINS_12basic_stringIcNS_11char_traitsIcEENS_9allocatorIcEEEEPvEEEELi0ELb0EEC2B6v15007ENS_16__value_init_tagE CODE
 0001:00043530 0000001dH .text$_ZNSt3__122__compressed_pair_elemINS_25__bucket_list_deallocatorINS_9allocatorIPNS_16__hash_node_baseIPNS_11__hash_nodeINS_12basic_stringIcNS_11char_traitsIcEENS2_IcEEEEPvEEEEEEEELi1ELb0EEC2B6v15007ENS_16__value_init_tagE CODE
 0001:00043550 00000019H .text$_ZNSt3__125__bucket_list_deallocatorINS_9allocatorIPNS_16__hash_node_baseIPNS_11__hash_nodeINS_12basic_stringIcNS_11char_traitsIcEENS1_IcEEEEPvEEEEEEEC1B6v15007Ev CODE
 0001:00043570 00000038H .text$_ZNSt3__125__bucket_list_deallocatorINS_9allocatorIPNS_16__hash_node_baseIPNS_11__hash_nodeINS_12basic_stringIcNS_11char_traitsIcEENS1_IcEEEEPvEEEEEEEC2B6v15007Ev CODE
 0001:000435b0 0000002dH .text$_ZNSt3__117__compressed_pairIyNS_9allocatorIPNS_16__hash_node_baseIPNS_11__hash_nodeINS_12basic_stringIcNS_11char_traitsIcEENS1_IcEEEEPvEEEEEEEC1B6v15007IiNS_18__default_init_tagEEEOT_OT0_ CODE
 0001:000435e0 0000003bH .text$_ZNSt3__117__compressed_pairIyNS_9allocatorIPNS_16__hash_node_baseIPNS_11__hash_nodeINS_12basic_stringIcNS_11char_traitsIcEENS1_IcEEEEPvEEEEEEEC2B6v15007IiNS_18__default_init_tagEEEOT_OT0_ CODE
 0001:00043620 0000001dH .text$_ZNSt3__122__compressed_pair_elemINS_9allocatorIPNS_16__hash_node_baseIPNS_11__hash_nodeINS_12basic_stringIcNS_11char_traitsIcEENS1_IcEEEEPvEEEEEELi1ELb1EEC2B6v15007ENS_18__default_init_tagE CODE
 0001:00043640 00000019H .text$_ZNSt3__19allocatorIPNS_16__hash_node_baseIPNS_11__hash_nodeINS_12basic_stringIcNS_11char_traitsIcEENS0_IcEEEEPvEEEEEC2B6v15007Ev CODE
 0001:00043660 00000007H .text$_ZNSt3__116__non_trivial_ifILb1ENS_9allocatorIPNS_16__hash_node_baseIPNS_11__hash_nodeINS_12basic_stringIcNS_11char_traitsIcEENS1_IcEEEEPvEEEEEEEC2B6v15007Ev CODE
 0001:00043670 00000030H .text$_ZNSt3__117__compressed_pairINS_16__hash_node_baseIPNS_11__hash_nodeINS_12basic_stringIcNS_11char_traitsIcEENS_9allocatorIcEEEEPvEEEENS6_ISA_EEEC2B6v15007ILb1EvEEv CODE
 0001:000436a0 0000001dH .text$_ZNSt3__122__compressed_pair_elemINS_16__hash_node_baseIPNS_11__hash_nodeINS_12basic_stringIcNS_11char_traitsIcEENS_9allocatorIcEEEEPvEEEELi0ELb0EEC2B6v15007ENS_16__value_init_tagE CODE
 0001:000436c0 0000001dH .text$_ZNSt3__122__compressed_pair_elemINS_9allocatorINS_11__hash_nodeINS_12basic_stringIcNS_11char_traitsIcEENS1_IcEEEEPvEEEELi1ELb1EEC2B6v15007ENS_16__value_init_tagE CODE
 0001:000436e0 00000019H .text$_ZNSt3__19allocatorINS_11__hash_nodeINS_12basic_stringIcNS_11char_traitsIcEENS0_IcEEEEPvEEEC2B6v15007Ev CODE
 0001:00043700 00000007H .text$_ZNSt3__116__non_trivial_ifILb1ENS_9allocatorINS_11__hash_nodeINS_12basic_stringIcNS_11char_traitsIcEENS1_IcEEEEPvEEEEEC2B6v15007Ev CODE
 0001:00043710 0000003bH .text$_ZNSt3__117__compressed_pairIyNS_4hashINS_12basic_stringIcNS_11char_traitsIcEENS_9allocatorIcEEEEEEEC2B6v15007IiNS_18__default_init_tagEEEOT_OT0_ CODE
 0001:00043750 00000011H .text$_ZNSt3__122__compressed_pair_elemINS_4hashINS_12basic_stringIcNS_11char_traitsIcEENS_9allocatorIcEEEEEELi1ELb1EEC2B6v15007ENS_18__default_init_tagE CODE
 0001:00043770 0000003bH .text$_ZNSt3__117__compressed_pairIfNS_8equal_toINS_12basic_stringIcNS_11char_traitsIcEENS_9allocatorIcEEEEEEEC2B6v15007IfNS_18__default_init_tagEEEOT_OT0_ CODE
 0001:000437b0 00000011H .text$_ZNSt3__122__compressed_pair_elemINS_8equal_toINS_12basic_stringIcNS_11char_traitsIcEENS_9allocatorIcEEEEEELi1ELb1EEC2B6v15007ENS_18__default_init_tagE CODE
 0001:000437d0 00000094H .text$_ZNSt3__113unordered_mapINS_12basic_stringIcNS_11char_traitsIcEENS_9allocatorIcEEEENS_13unordered_setIS6_NS_4hashIS6_EENS_8equal_toIS6_EENS4_IS6_EEEES9_SB_NS4_INS_4pairIKS6_SD_EEEEEC2ESt16initializer_listISG_E CODE
 0001:00043870 00000019H .text$_ZNSt3__112__hash_tableINS_17__hash_value_typeINS_12basic_stringIcNS_11char_traitsIcEENS_9allocatorIcEEEENS_13unordered_setIS7_NS_4hashIS7_EENS_8equal_toIS7_EENS5_IS7_EEEEEENS_22__unordered_map_hasherIS7_SF_SA_SC_Lb1EEENS_21__unordered_map_equalIS7_SF_SC_SA_Lb1EEENS5_ISF_EEEC1Ev CODE
 0001:00043890 00000007H .text$_ZNSt3__119__debug_db_insert_cB6v15007INS_13unordered_mapINS_12basic_stringIcNS_11char_traitsIcEENS_9allocatorIcEEEENS_13unordered_setIS7_NS_4hashIS7_EENS_8equal_toIS7_EENS5_IS7_EEEESA_SC_NS5_INS_4pairIKS7_SE_EEEEEEEEvPT_ CODE
 0001:000438a0 00000059H .text$_ZNSt3__113unordered_mapINS_12basic_stringIcNS_11char_traitsIcEENS_9allocatorIcEEEENS_13unordered_setIS6_NS_4hashIS6_EENS_8equal_toIS6_EENS4_IS6_EEEES9_SB_NS4_INS_4pairIKS6_SD_EEEEE6insertIPKSG_EEvT_SM_ CODE
 0001:00043900 0000000eH .text$_ZNKSt16initializer_listINSt3__14pairIKNS0_12basic_stringIcNS0_11char_traitsIcEENS0_9allocatorIcEEEENS0_13unordered_setIS7_NS0_4hashIS7_EENS0_8equal_toIS7_EENS5_IS7_EEEEEEE5beginB6v15007Ev CODE
 0001:00043910 00000019H .text$_ZNKSt16initializer_listINSt3__14pairIKNS0_12basic_stringIcNS0_11char_traitsIcEENS0_9allocatorIcEEEENS0_13unordered_setIS7_NS0_4hashIS7_EENS0_8equal_toIS7_EENS5_IS7_EEEEEEE3endB6v15007Ev CODE
 0001:00043930 00000019H .text$_ZNSt3__112__hash_tableINS_17__hash_value_typeINS_12basic_stringIcNS_11char_traitsIcEENS_9allocatorIcEEEENS_13unordered_setIS7_NS_4hashIS7_EENS_8equal_toIS7_EENS5_IS7_EEEEEENS_22__unordered_map_hasherIS7_SF_SA_SC_Lb1EEENS_21__unordered_map_equalIS7_SF_SC_SA_Lb1EEENS5_ISF_EEED1Ev CODE
 0001:00043950 00000083H .text$_ZNSt3__112__hash_tableINS_17__hash_value_typeINS_12basic_stringIcNS_11char_traitsIcEENS_9allocatorIcEEEENS_13unordered_setIS7_NS_4hashIS7_EENS_8equal_toIS7_EENS5_IS7_EEEEEENS_22__unordered_map_hasherIS7_SF_SA_SC_Lb1EEENS_21__unordered_map_equalIS7_SF_SC_SA_Lb1EEENS5_ISF_EEEC2Ev CODE
 0001:000439e0 00000019H .text$_ZNSt3__110unique_ptrIA_PNS_16__hash_node_baseIPNS_11__hash_nodeINS_17__hash_value_typeINS_12basic_stringIcNS_11char_traitsIcEENS_9allocatorIcEEEENS_13unordered_setIS9_NS_4hashIS9_EENS_8equal_toIS9_EENS7_IS9_EEEEEEPvEEEENS_25__bucket_list_deallocatorINS7_ISM_EEEEEC1B6v15007ILb1EvEEv CODE
 0001:00043a00 00000019H .text$_ZNSt3__117__compressed_pairINS_16__hash_node_baseIPNS_11__hash_nodeINS_17__hash_value_typeINS_12basic_stringIcNS_11char_traitsIcEENS_9allocatorIcEEEENS_13unordered_setIS9_NS_4hashIS9_EENS_8equal_toIS9_EENS7_IS9_EEEEEEPvEEEENS7_ISJ_EEEC1B6v15007ILb1EvEEv CODE
 0001:00043a20 0000002dH .text$_ZNSt3__117__compressed_pairIyNS_22__unordered_map_hasherINS_12basic_stringIcNS_11char_traitsIcEENS_9allocatorIcEEEENS_17__hash_value_typeIS7_NS_13unordered_setIS7_NS_4hashIS7_EENS_8equal_toIS7_EENS5_IS7_EEEEEESB_SD_Lb1EEEEC1B6v15007IiNS_18__default_init_tagEEEOT_OT0_ CODE
 0001:00043a50 0000002dH .text$_ZNSt3__117__compressed_pairIfNS_21__unordered_map_equalINS_12basic_stringIcNS_11char_traitsIcEENS_9allocatorIcEEEENS_17__hash_value_typeIS7_NS_13unordered_setIS7_NS_4hashIS7_EENS_8equal_toIS7_EENS5_IS7_EEEEEESD_SB_Lb1EEEEC1B6v15007IfNS_18__default_init_tagEEEOT_OT0_ CODE
 0001:00043a80 00000030H .text$_ZNSt3__110unique_ptrIA_PNS_16__hash_node_baseIPNS_11__hash_nodeINS_17__hash_value_typeINS_12basic_stringIcNS_11char_traitsIcEENS_9allocatorIcEEEENS_13unordered_setIS9_NS_4hashIS9_EENS_8equal_toIS9_EENS7_IS9_EEEEEEPvEEEENS_25__bucket_list_deallocatorINS7_ISM_EEEEEC2B6v15007ILb1EvEEv CODE
 0001:00043ab0 0000002dH .text$_ZNSt3__117__compressed_pairIPPNS_16__hash_node_baseIPNS_11__hash_nodeINS_17__hash_value_typeINS_12basic_stringIcNS_11char_traitsIcEENS_9allocatorIcEEEENS_13unordered_setIS9_NS_4hashIS9_EENS_8equal_toIS9_EENS7_IS9_EEEEEEPvEEEENS_25__bucket_list_deallocatorINS7_ISM_EEEEEC1B6v15007INS_16__value_init_tagEST_EEOT_OT0_ CODE
 0001:00043ae0 0000003eH .text$_ZNSt3__117__compressed_pairIPPNS_16__hash_node_baseIPNS_11__hash_nodeINS_17__hash_value_typeINS_12basic_stringIcNS_11char_traitsIcEENS_9allocatorIcEEEENS_13unordered_setIS9_NS_4hashIS9_EENS_8equal_toIS9_EENS7_IS9_EEEEEEPvEEEENS_25__bucket_list_deallocatorINS7_ISM_EEEEEC2B6v15007INS_16__value_init_tagEST_EEOT_OT0_ CODE
 0001:00043b20 0000001cH .text$_ZNSt3__122__compressed_pair_elemIPPNS_16__hash_node_baseIPNS_11__hash_nodeINS_17__hash_value_typeINS_12basic_stringIcNS_11char_traitsIcEENS_9allocatorIcEEEENS_13unordered_setIS9_NS_4hashIS9_EENS_8equal_toIS9_EENS7_IS9_EEEEEEPvEEEELi0ELb0EEC2B6v15007ENS_16__value_init_tagE CODE
 0001:00043b40 0000001dH .text$_ZNSt3__122__compressed_pair_elemINS_25__bucket_list_deallocatorINS_9allocatorIPNS_16__hash_node_baseIPNS_11__hash_nodeINS_17__hash_value_typeINS_12basic_stringIcNS_11char_traitsIcEENS2_IcEEEENS_13unordered_setISA_NS_4hashISA_EENS_8equal_toISA_EENS2_ISA_EEEEEEPvEEEEEEEELi1ELb0EEC2B6v15007ENS_16__value_init_tagE CODE
 0001:00043b60 00000019H .text$_ZNSt3__125__bucket_list_deallocatorINS_9allocatorIPNS_16__hash_node_baseIPNS_11__hash_nodeINS_17__hash_value_typeINS_12basic_stringIcNS_11char_traitsIcEENS1_IcEEEENS_13unordered_setIS9_NS_4hashIS9_EENS_8equal_toIS9_EENS1_IS9_EEEEEEPvEEEEEEEC1B6v15007Ev CODE
 0001:00043b80 00000038H .text$_ZNSt3__125__bucket_list_deallocatorINS_9allocatorIPNS_16__hash_node_baseIPNS_11__hash_nodeINS_17__hash_value_typeINS_12basic_stringIcNS_11char_traitsIcEENS1_IcEEEENS_13unordered_setIS9_NS_4hashIS9_EENS_8equal_toIS9_EENS1_IS9_EEEEEEPvEEEEEEEC2B6v15007Ev CODE
 0001:00043bc0 0000002dH .text$_ZNSt3__117__compressed_pairIyNS_9allocatorIPNS_16__hash_node_baseIPNS_11__hash_nodeINS_17__hash_value_typeINS_12basic_stringIcNS_11char_traitsIcEENS1_IcEEEENS_13unordered_setIS9_NS_4hashIS9_EENS_8equal_toIS9_EENS1_IS9_EEEEEEPvEEEEEEEC1B6v15007IiNS_18__default_init_tagEEEOT_OT0_ CODE
 0001:00043bf0 0000003bH .text$_ZNSt3__117__compressed_pairIyNS_9allocatorIPNS_16__hash_node_baseIPNS_11__hash_nodeINS_17__hash_value_typeINS_12basic_stringIcNS_11char_traitsIcEENS1_IcEEEENS_13unordered_setIS9_NS_4hashIS9_EENS_8equal_toIS9_EENS1_IS9_EEEEEEPvEEEEEEEC2B6v15007IiNS_18__default_init_tagEEEOT_OT0_ CODE
 0001:00043c30 0000001dH .text$_ZNSt3__122__compressed_pair_elemINS_9allocatorIPNS_16__hash_node_baseIPNS_11__hash_nodeINS_17__hash_value_typeINS_12basic_stringIcNS_11char_traitsIcEENS1_IcEEEENS_13unordered_setIS9_NS_4hashIS9_EENS_8equal_toIS9_EENS1_IS9_EEEEEEPvEEEEEELi1ELb1EEC2B6v15007ENS_18__default_init_tagE CODE
 0001:00043c50 00000019H .text$_ZNSt3__19allocatorIPNS_16__hash_node_baseIPNS_11__hash_nodeINS_17__hash_value_typeINS_12basic_stringIcNS_11char_traitsIcEENS0_IcEEEENS_13unordered_setIS8_NS_4hashIS8_EENS_8equal_toIS8_EENS0_IS8_EEEEEEPvEEEEEC2B6v15007Ev CODE
 0001:00043c70 00000007H .text$_ZNSt3__116__non_trivial_ifILb1ENS_9allocatorIPNS_16__hash_node_baseIPNS_11__hash_nodeINS_17__hash_value_typeINS_12basic_stringIcNS_11char_traitsIcEENS1_IcEEEENS_13unordered_setIS9_NS_4hashIS9_EENS_8equal_toIS9_EENS1_IS9_EEEEEEPvEEEEEEEC2B6v15007Ev CODE
 0001:00043c80 00000030H .text$_ZNSt3__117__compressed_pairINS_16__hash_node_baseIPNS_11__hash_nodeINS_17__hash_value_typeINS_12basic_stringIcNS_11char_traitsIcEENS_9allocatorIcEEEENS_13unordered_setIS9_NS_4hashIS9_EENS_8equal_toIS9_EENS7_IS9_EEEEEEPvEEEENS7_ISJ_EEEC2B6v15007ILb1EvEEv CODE
 0001:00043cb0 0000001dH .text$_ZNSt3__122__compressed_pair_elemINS_16__hash_node_baseIPNS_11__hash_nodeINS_17__hash_value_typeINS_12basic_stringIcNS_11char_traitsIcEENS_9allocatorIcEEEENS_13unordered_setIS9_NS_4hashIS9_EENS_8equal_toIS9_EENS7_IS9_EEEEEEPvEEEELi0ELb0EEC2B6v15007ENS_16__value_init_tagE CODE
 0001:00043cd0 0000001dH .text$_ZNSt3__122__compressed_pair_elemINS_9allocatorINS_11__hash_nodeINS_17__hash_value_typeINS_12basic_stringIcNS_11char_traitsIcEENS1_IcEEEENS_13unordered_setIS8_NS_4hashIS8_EENS_8equal_toIS8_EENS1_IS8_EEEEEEPvEEEELi1ELb1EEC2B6v15007ENS_16__value_init_tagE CODE
 0001:00043cf0 00000019H .text$_ZNSt3__116__hash_node_baseIPNS_11__hash_nodeINS_17__hash_value_typeINS_12basic_stringIcNS_11char_traitsIcEENS_9allocatorIcEEEENS_13unordered_setIS8_NS_4hashIS8_EENS_8equal_toIS8_EENS6_IS8_EEEEEEPvEEEC1B6v15007Ev CODE
 0001:00043d10 00000012H .text$_ZNSt3__116__hash_node_baseIPNS_11__hash_nodeINS_17__hash_value_typeINS_12basic_stringIcNS_11char_traitsIcEENS_9allocatorIcEEEENS_13unordered_setIS8_NS_4hashIS8_EENS_8equal_toIS8_EENS6_IS8_EEEEEEPvEEEC2B6v15007Ev CODE
 0001:00043d30 00000019H .text$_ZNSt3__19allocatorINS_11__hash_nodeINS_17__hash_value_typeINS_12basic_stringIcNS_11char_traitsIcEENS0_IcEEEENS_13unordered_setIS7_NS_4hashIS7_EENS_8equal_toIS7_EENS0_IS7_EEEEEEPvEEEC2B6v15007Ev CODE
 0001:00043d50 00000007H .text$_ZNSt3__116__non_trivial_ifILb1ENS_9allocatorINS_11__hash_nodeINS_17__hash_value_typeINS_12basic_stringIcNS_11char_traitsIcEENS1_IcEEEENS_13unordered_setIS8_NS_4hashIS8_EENS_8equal_toIS8_EENS1_IS8_EEEEEEPvEEEEEC2B6v15007Ev CODE
 0001:00043d60 0000003bH .text$_ZNSt3__117__compressed_pairIyNS_22__unordered_map_hasherINS_12basic_stringIcNS_11char_traitsIcEENS_9allocatorIcEEEENS_17__hash_value_typeIS7_NS_13unordered_setIS7_NS_4hashIS7_EENS_8equal_toIS7_EENS5_IS7_EEEEEESB_SD_Lb1EEEEC2B6v15007IiNS_18__default_init_tagEEEOT_OT0_ CODE
 0001:00043da0 0000001dH .text$_ZNSt3__122__compressed_pair_elemINS_22__unordered_map_hasherINS_12basic_stringIcNS_11char_traitsIcEENS_9allocatorIcEEEENS_17__hash_value_typeIS7_NS_13unordered_setIS7_NS_4hashIS7_EENS_8equal_toIS7_EENS5_IS7_EEEEEESB_SD_Lb1EEELi1ELb1EEC2B6v15007ENS_18__default_init_tagE CODE
 0001:00043dc0 00000007H .text$_ZNSt3__122__unordered_map_hasherINS_12basic_stringIcNS_11char_traitsIcEENS_9allocatorIcEEEENS_17__hash_value_typeIS6_NS_13unordered_setIS6_NS_4hashIS6_EENS_8equal_toIS6_EENS4_IS6_EEEEEESA_SC_Lb1EEC2B6v15007Ev CODE
 0001:00043dd0 0000003bH .text$_ZNSt3__117__compressed_pairIfNS_21__unordered_map_equalINS_12basic_stringIcNS_11char_traitsIcEENS_9allocatorIcEEEENS_17__hash_value_typeIS7_NS_13unordered_setIS7_NS_4hashIS7_EENS_8equal_toIS7_EENS5_IS7_EEEEEESD_SB_Lb1EEEEC2B6v15007IfNS_18__default_init_tagEEEOT_OT0_ CODE
 0001:00043e10 0000001dH .text$_ZNSt3__122__compressed_pair_elemINS_21__unordered_map_equalINS_12basic_stringIcNS_11char_traitsIcEENS_9allocatorIcEEEENS_17__hash_value_typeIS7_NS_13unordered_setIS7_NS_4hashIS7_EENS_8equal_toIS7_EENS5_IS7_EEEEEESD_SB_Lb1EEELi1ELb1EEC2B6v15007ENS_18__default_init_tagE CODE
 0001:00043e30 00000007H .text$_ZNSt3__121__unordered_map_equalINS_12basic_stringIcNS_11char_traitsIcEENS_9allocatorIcEEEENS_17__hash_value_typeIS6_NS_13unordered_setIS6_NS_4hashIS6_EENS_8equal_toIS6_EENS4_IS6_EEEEEESC_SA_Lb1EEC2B6v15007Ev CODE
 0001:00043e40 00000055H .text$_ZNSt3__112__hash_tableINS_17__hash_value_typeINS_12basic_stringIcNS_11char_traitsIcEENS_9allocatorIcEEEENS_13unordered_setIS7_NS_4hashIS7_EENS_8equal_toIS7_EENS5_IS7_EEEEEENS_22__unordered_map_hasherIS7_SF_SA_SC_Lb1EEENS_21__unordered_map_equalIS7_SF_SC_SA_Lb1EEENS5_ISF_EEE15__insert_uniqueB6v15007ERKNS_4pairIKS7_SE_EE CODE
 0001:00043ea0 000006e0H .text$_ZNSt3__112__hash_tableINS_17__hash_value_typeINS_12basic_stringIcNS_11char_traitsIcEENS_9allocatorIcEEEENS_13unordered_setIS7_NS_4hashIS7_EENS_8equal_toIS7_EENS5_IS7_EEEEEENS_22__unordered_map_hasherIS7_SF_SA_SC_Lb1EEENS_21__unordered_map_equalIS7_SF_SC_SA_Lb1EEENS5_ISF_EEE25__emplace_unique_key_argsIS7_JRKNS_4pairIKS7_SE_EEEEENSN_INS_15__hash_iteratorIPNS_11__hash_nodeISF_PvEEEEbEERKT_DpOT0_ CODE
 0001:00044580 0000000bH .text$_ZNSt3__122__hash_key_value_typesINS_17__hash_value_typeINS_12basic_stringIcNS_11char_traitsIcEENS_9allocatorIcEEEENS_13unordered_setIS7_NS_4hashIS7_EENS_8equal_toIS7_EENS5_IS7_EEEEEEE9__get_keyB6v15007ERKNS_4pairIKS7_SE_EE CODE
 0001:00044590 0000001dH .text$_ZNSt3__112__hash_tableINS_17__hash_value_typeINS_12basic_stringIcNS_11char_traitsIcEENS_9allocatorIcEEEENS_13unordered_setIS7_NS_4hashIS7_EENS_8equal_toIS7_EENS5_IS7_EEEEEENS_22__unordered_map_hasherIS7_SF_SA_SC_Lb1EEENS_21__unordered_map_equalIS7_SF_SC_SA_Lb1EEENS5_ISF_EEE13hash_functionB6v15007Ev CODE
 0001:000445b0 00000023H .text$_ZNKSt3__122__unordered_map_hasherINS_12basic_stringIcNS_11char_traitsIcEENS_9allocatorIcEEEENS_17__hash_value_typeIS6_NS_13unordered_setIS6_NS_4hashIS6_EENS_8equal_toIS6_EENS4_IS6_EEEEEESA_SC_Lb1EEclB6v15007ERKS6_ CODE
 0001:000445e0 00000021H .text$_ZNKSt3__112__hash_tableINS_17__hash_value_typeINS_12basic_stringIcNS_11char_traitsIcEENS_9allocatorIcEEEENS_13unordered_setIS7_NS_4hashIS7_EENS_8equal_toIS7_EENS5_IS7_EEEEEENS_22__unordered_map_hasherIS7_SF_SA_SC_Lb1EEENS_21__unordered_map_equalIS7_SF_SC_SA_Lb1EEENS5_ISF_EEE12bucket_countB6v15007Ev CODE
 0001:00044610 0000002cH .text$_ZNKSt3__110unique_ptrIA_PNS_16__hash_node_baseIPNS_11__hash_nodeINS_17__hash_value_typeINS_12basic_stringIcNS_11char_traitsIcEENS_9allocatorIcEEEENS_13unordered_setIS9_NS_4hashIS9_EENS_8equal_toIS9_EENS7_IS9_EEEEEEPvEEEENS_25__bucket_list_deallocatorINS7_ISM_EEEEEixB6v15007Ey CODE
 0001:00044640 0000000fH .text$_ZNKSt3__116__hash_node_baseIPNS_11__hash_nodeINS_17__hash_value_typeINS_12basic_stringIcNS_11char_traitsIcEENS_9allocatorIcEEEENS_13unordered_setIS8_NS_4hashIS8_EENS_8equal_toIS8_EENS6_IS8_EEEEEEPvEEE6__hashB6v15007Ev CODE
 0001:00044650 0000001dH .text$_ZNSt3__112__hash_tableINS_17__hash_value_typeINS_12basic_stringIcNS_11char_traitsIcEENS_9allocatorIcEEEENS_13unordered_setIS7_NS_4hashIS7_EENS_8equal_toIS7_EENS5_IS7_EEEEEENS_22__unordered_map_hasherIS7_SF_SA_SC_Lb1EEENS_21__unordered_map_equalIS7_SF_SC_SA_Lb1EEENS5_ISF_EEE6key_eqB6v15007Ev CODE
 0001:00044670 00000043H .text$_ZNKSt3__121__unordered_map_equalINS_12basic_stringIcNS_11char_traitsIcEENS_9allocatorIcEEEENS_17__hash_value_typeIS6_NS_13unordered_setIS6_NS_4hashIS6_EENS_8equal_toIS6_EENS4_IS6_EEEEEESC_SA_Lb1EEclB6v15007ERKSF_RKS6_ CODE
 0001:000446c0 00000019H .text$_ZNSt3__116__hash_node_baseIPNS_11__hash_nodeINS_17__hash_value_typeINS_12basic_stringIcNS_11char_traitsIcEENS_9allocatorIcEEEENS_13unordered_setIS8_NS_4hashIS8_EENS_8equal_toIS8_EENS6_IS8_EEEEEEPvEEE8__upcastB6v15007Ev CODE
 0001:000446e0 00000182H .text$_ZNSt3__112__hash_tableINS_17__hash_value_typeINS_12basic_stringIcNS_11char_traitsIcEENS_9allocatorIcEEEENS_13unordered_setIS7_NS_4hashIS7_EENS_8equal_toIS7_EENS5_IS7_EEEEEENS_22__unordered_map_hasherIS7_SF_SA_SC_Lb1EEENS_21__unordered_map_equalIS7_SF_SC_SA_Lb1EEENS5_ISF_EEE21__construct_node_hashIRKNS_4pairIKS7_SE_EEJEEENS_10unique_ptrINS_11__hash_nodeISF_PvEENS_22__hash_node_destructorINS5_ISV_EEEEEEyOT_DpOT0_ CODE
 0001:00044870 0000001dH .text$_ZNSt3__112__hash_tableINS_17__hash_value_typeINS_12basic_stringIcNS_11char_traitsIcEENS_9allocatorIcEEEENS_13unordered_setIS7_NS_4hashIS7_EENS_8equal_toIS7_EENS5_IS7_EEEEEENS_22__unordered_map_hasherIS7_SF_SA_SC_Lb1EEENS_21__unordered_map_equalIS7_SF_SC_SA_Lb1EEENS5_ISF_EEE4sizeB6v15007Ev CODE
 0001:00044890 0000001dH .text$_ZNSt3__112__hash_tableINS_17__hash_value_typeINS_12basic_stringIcNS_11char_traitsIcEENS_9allocatorIcEEEENS_13unordered_setIS7_NS_4hashIS7_EENS_8equal_toIS7_EENS5_IS7_EEEEEENS_22__unordered_map_hasherIS7_SF_SA_SC_Lb1EEENS_21__unordered_map_equalIS7_SF_SC_SA_Lb1EEENS5_ISF_EEE15max_load_factorB6v15007Ev CODE
 0001:000448b0 00000023H .text$_ZNSt3__112__hash_tableINS_17__hash_value_typeINS_12basic_stringIcNS_11char_traitsIcEENS_9allocatorIcEEEENS_13unordered_setIS7_NS_4hashIS7_EENS_8equal_toIS7_EENS5_IS7_EEEEEENS_22__unordered_map_hasherIS7_SF_SA_SC_Lb1EEENS_21__unordered_map_equalIS7_SF_SC_SA_Lb1EEENS5_ISF_EEE15__rehash_uniqueB6v15007Ey CODE
 0001:000448e0 00000019H .text$_ZNSt3__117__compressed_pairINS_16__hash_node_baseIPNS_11__hash_nodeINS_17__hash_value_typeINS_12basic_stringIcNS_11char_traitsIcEENS_9allocatorIcEEEENS_13unordered_setIS9_NS_4hashIS9_EENS_8equal_toIS9_EENS7_IS9_EEEEEEPvEEEENS7_ISJ_EEE5firstB6v15007Ev CODE
 0001:00044900 00000019H .text$_ZNSt3__116__hash_node_baseIPNS_11__hash_nodeINS_17__hash_value_typeINS_12basic_stringIcNS_11char_traitsIcEENS_9allocatorIcEEEENS_13unordered_setIS8_NS_4hashIS8_EENS_8equal_toIS8_EENS6_IS8_EEEEEEPvEEE5__ptrB6v15007Ev CODE
 0001:00044920 0000001bH .text$_ZNKSt3__110unique_ptrINS_11__hash_nodeINS_17__hash_value_typeINS_12basic_stringIcNS_11char_traitsIcEENS_9allocatorIcEEEENS_13unordered_setIS8_NS_4hashIS8_EENS_8equal_toIS8_EENS6_IS8_EEEEEEPvEENS_22__hash_node_destructorINS6_ISI_EEEEEptB6v15007Ev CODE
 0001:00044940 0000001bH .text$_ZNKSt3__110unique_ptrINS_11__hash_nodeINS_17__hash_value_typeINS_12basic_stringIcNS_11char_traitsIcEENS_9allocatorIcEEEENS_13unordered_setIS8_NS_4hashIS8_EENS_8equal_toIS8_EENS6_IS8_EEEEEEPvEENS_22__hash_node_destructorINS6_ISI_EEEEE3getB6v15007Ev CODE
 0001:00044960 0000003bH .text$_ZNSt3__110unique_ptrINS_11__hash_nodeINS_17__hash_value_typeINS_12basic_stringIcNS_11char_traitsIcEENS_9allocatorIcEEEENS_13unordered_setIS8_NS_4hashIS8_EENS_8equal_toIS8_EENS6_IS8_EEEEEEPvEENS_22__hash_node_destructorINS6_ISI_EEEEE7releaseB6v15007Ev CODE
 0001:000449a0 00000019H .text$_ZNSt3__110unique_ptrINS_11__hash_nodeINS_17__hash_value_typeINS_12basic_stringIcNS_11char_traitsIcEENS_9allocatorIcEEEENS_13unordered_setIS8_NS_4hashIS8_EENS_8equal_toIS8_EENS6_IS8_EEEEEEPvEENS_22__hash_node_destructorINS6_ISI_EEEEED1B6v15007Ev CODE
 0001:000449c0 0000002dH .text$_ZNSt3__115__hash_iteratorIPNS_11__hash_nodeINS_17__hash_value_typeINS_12basic_stringIcNS_11char_traitsIcEENS_9allocatorIcEEEENS_13unordered_setIS8_NS_4hashIS8_EENS_8equal_toIS8_EENS6_IS8_EEEEEEPvEEEC1B6v15007EPNS_16__hash_node_baseISJ_EEPKv CODE
 0001:000449f0 0000002dH .text$_ZNSt3__14pairINS_15__hash_iteratorIPNS_11__hash_nodeINS_17__hash_value_typeINS_12basic_stringIcNS_11char_traitsIcEENS_9allocatorIcEEEENS_13unordered_setIS9_NS_4hashIS9_EENS_8equal_toIS9_EENS7_IS9_EEEEEEPvEEEEbEC1B6v15007ISL_RbLSI_0EEEOT_OT0_ CODE
 0001:00044a20 00000019H .text$_ZNSt3__117__compressed_pairIyNS_22__unordered_map_hasherINS_12basic_stringIcNS_11char_traitsIcEENS_9allocatorIcEEEENS_17__hash_value_typeIS7_NS_13unordered_setIS7_NS_4hashIS7_EENS_8equal_toIS7_EENS5_IS7_EEEEEESB_SD_Lb1EEEE6secondB6v15007Ev CODE
 0001:00044a40 0000000bH .text$_ZNSt3__122__compressed_pair_elemINS_22__unordered_map_hasherINS_12basic_stringIcNS_11char_traitsIcEENS_9allocatorIcEEEENS_17__hash_value_typeIS7_NS_13unordered_setIS7_NS_4hashIS7_EENS_8equal_toIS7_EENS5_IS7_EEEEEESB_SD_Lb1EEELi1ELb1EE5__getB6v15007Ev CODE
 0001:00044a50 00000019H .text$_ZNKSt3__110unique_ptrIA_PNS_16__hash_node_baseIPNS_11__hash_nodeINS_17__hash_value_typeINS_12basic_stringIcNS_11char_traitsIcEENS_9allocatorIcEEEENS_13unordered_setIS9_NS_4hashIS9_EENS_8equal_toIS9_EENS7_IS9_EEEEEEPvEEEENS_25__bucket_list_deallocatorINS7_ISM_EEEEE11get_deleterB6v15007Ev CODE
 0001:00044a70 0000001bH .text$_ZNKSt3__125__bucket_list_deallocatorINS_9allocatorIPNS_16__hash_node_baseIPNS_11__hash_nodeINS_17__hash_value_typeINS_12basic_stringIcNS_11char_traitsIcEENS1_IcEEEENS_13unordered_setIS9_NS_4hashIS9_EENS_8equal_toIS9_EENS1_IS9_EEEEEEPvEEEEEEE4sizeB6v15007Ev CODE
 0001:00044a90 0000001dH .text$_ZNKSt3__117__compressed_pairIPPNS_16__hash_node_baseIPNS_11__hash_nodeINS_17__hash_value_typeINS_12basic_stringIcNS_11char_traitsIcEENS_9allocatorIcEEEENS_13unordered_setIS9_NS_4hashIS9_EENS_8equal_toIS9_EENS7_IS9_EEEEEEPvEEEENS_25__bucket_list_deallocatorINS7_ISM_EEEEE6secondB6v15007Ev CODE
 0001:00044ab0 0000000bH .text$_ZNKSt3__122__compressed_pair_elemINS_25__bucket_list_deallocatorINS_9allocatorIPNS_16__hash_node_baseIPNS_11__hash_nodeINS_17__hash_value_typeINS_12basic_stringIcNS_11char_traitsIcEENS2_IcEEEENS_13unordered_setISA_NS_4hashISA_EENS_8equal_toISA_EENS2_ISA_EEEEEEPvEEEEEEEELi1ELb0EE5__getB6v15007Ev CODE
 0001:00044ac0 00000019H .text$_ZNKSt3__117__compressed_pairIyNS_9allocatorIPNS_16__hash_node_baseIPNS_11__hash_nodeINS_17__hash_value_typeINS_12basic_stringIcNS_11char_traitsIcEENS1_IcEEEENS_13unordered_setIS9_NS_4hashIS9_EENS_8equal_toIS9_EENS1_IS9_EEEEEEPvEEEEEEE5firstB6v15007Ev CODE
 0001:00044ae0 00000019H .text$_ZNKSt3__117__compressed_pairIPPNS_16__hash_node_baseIPNS_11__hash_nodeINS_17__hash_value_typeINS_12basic_stringIcNS_11char_traitsIcEENS_9allocatorIcEEEENS_13unordered_setIS9_NS_4hashIS9_EENS_8equal_toIS9_EENS7_IS9_EEEEEEPvEEEENS_25__bucket_list_deallocatorINS7_ISM_EEEEE5firstB6v15007Ev CODE
 0001:00044b00 0000000bH .text$_ZNKSt3__122__compressed_pair_elemIPPNS_16__hash_node_baseIPNS_11__hash_nodeINS_17__hash_value_typeINS_12basic_stringIcNS_11char_traitsIcEENS_9allocatorIcEEEENS_13unordered_setIS9_NS_4hashIS9_EENS_8equal_toIS9_EENS7_IS9_EEEEEEPvEEEELi0ELb0EE5__getB6v15007Ev CODE
 0001:00044b10 00000019H .text$_ZNSt3__117__compressed_pairIfNS_21__unordered_map_equalINS_12basic_stringIcNS_11char_traitsIcEENS_9allocatorIcEEEENS_17__hash_value_typeIS7_NS_13unordered_setIS7_NS_4hashIS7_EENS_8equal_toIS7_EENS5_IS7_EEEEEESD_SB_Lb1EEEE6secondB6v15007Ev CODE
 0001:00044b30 0000000bH .text$_ZNSt3__122__compressed_pair_elemINS_21__unordered_map_equalINS_12basic_stringIcNS_11char_traitsIcEENS_9allocatorIcEEEENS_17__hash_value_typeIS7_NS_13unordered_setIS7_NS_4hashIS7_EENS_8equal_toIS7_EENS5_IS7_EEEEEESD_SB_Lb1EEELi1ELb1EE5__getB6v15007Ev CODE
 0001:00044b40 00000019H .text$_ZNKSt3__117__hash_value_typeINS_12basic_stringIcNS_11char_traitsIcEENS_9allocatorIcEEEENS_13unordered_setIS6_NS_4hashIS6_EENS_8equal_toIS6_EENS4_IS6_EEEEE11__get_valueB6v15007Ev CODE
 0001:00044b60 00000019H .text$_ZNSt3__17launderB6v15007IKNS_4pairIKNS_12basic_stringIcNS_11char_traitsIcEENS_9allocatorIcEEEENS_13unordered_setIS7_NS_4hashIS7_EENS_8equal_toIS7_EENS5_IS7_EEEEEEEEPT_SJ_ CODE
 0001:00044b80 0000000bH .text$_ZNSt3__19__launderB6v15007IKNS_4pairIKNS_12basic_stringIcNS_11char_traitsIcEENS_9allocatorIcEEEENS_13unordered_setIS7_NS_4hashIS7_EENS_8equal_toIS7_EENS5_IS7_EEEEEEEEPT_SJ_ CODE
 0001:00044b90 0000000bH .text$_ZNSt3__114pointer_traitsIPNS_16__hash_node_baseIPNS_11__hash_nodeINS_17__hash_value_typeINS_12basic_stringIcNS_11char_traitsIcEENS_9allocatorIcEEEENS_13unordered_setIS9_NS_4hashIS9_EENS_8equal_toIS9_EENS7_IS9_EEEEEEPvEEEEE10pointer_toB6v15007ERSL_ CODE
 0001:00044ba0 0000001dH .text$_ZNSt3__112__hash_tableINS_17__hash_value_typeINS_12basic_stringIcNS_11char_traitsIcEENS_9allocatorIcEEEENS_13unordered_setIS7_NS_4hashIS7_EENS_8equal_toIS7_EENS5_IS7_EEEEEENS_22__unordered_map_hasherIS7_SF_SA_SC_Lb1EEENS_21__unordered_map_equalIS7_SF_SC_SA_Lb1EEENS5_ISF_EEE12__node_allocB6v15007Ev CODE
 0001:00044bc0 00000023H .text$_ZNSt3__116allocator_traitsINS_9allocatorINS_11__hash_nodeINS_17__hash_value_typeINS_12basic_stringIcNS_11char_traitsIcEENS1_IcEEEENS_13unordered_setIS8_NS_4hashIS8_EENS_8equal_toIS8_EENS1_IS8_EEEEEEPvEEEEE8allocateB6v15007ERSJ_y CODE
 0001:00044bf0 00000035H .text$_ZNSt3__122__hash_node_destructorINS_9allocatorINS_11__hash_nodeINS_17__hash_value_typeINS_12basic_stringIcNS_11char_traitsIcEENS1_IcEEEENS_13unordered_setIS8_NS_4hashIS8_EENS_8equal_toIS8_EENS1_IS8_EEEEEEPvEEEEEC1B6v15007ERSJ_b CODE
 0001:00044c30 0000002dH .text$_ZNSt3__110unique_ptrINS_11__hash_nodeINS_17__hash_value_typeINS_12basic_stringIcNS_11char_traitsIcEENS_9allocatorIcEEEENS_13unordered_setIS8_NS_4hashIS8_EENS_8equal_toIS8_EENS6_IS8_EEEEEEPvEENS_22__hash_node_destructorINS6_ISI_EEEEEC1B6v15007ILb1EvEEPSI_NS_16__dependent_typeINS_27__unique_ptr_deleter_sfinaeISL_EEXT_EE20__good_rval_ref_typeE CODE
 0001:00044c60 0000002dH .text$_ZNSt3__116allocator_traitsINS_9allocatorINS_11__hash_nodeINS_17__hash_value_typeINS_12basic_stringIcNS_11char_traitsIcEENS1_IcEEEENS_13unordered_setIS8_NS_4hashIS8_EENS_8equal_toIS8_EENS1_IS8_EEEEEEPvEEEEE9constructB6v15007INS_4pairIKS8_SF_EEJRKSO_EvEEvRSJ_PT_DpOT0_ CODE
 0001:00044c90 00000019H .text$_ZNSt3__122__hash_key_value_typesINS_17__hash_value_typeINS_12basic_stringIcNS_11char_traitsIcEENS_9allocatorIcEEEENS_13unordered_setIS7_NS_4hashIS7_EENS_8equal_toIS7_EENS5_IS7_EEEEEEE9__get_ptrB6v15007ERSF_ CODE
 0001:00044cb0 00000019H .text$_ZNSt3__110unique_ptrINS_11__hash_nodeINS_17__hash_value_typeINS_12basic_stringIcNS_11char_traitsIcEENS_9allocatorIcEEEENS_13unordered_setIS8_NS_4hashIS8_EENS_8equal_toIS8_EENS6_IS8_EEEEEEPvEENS_22__hash_node_destructorINS6_ISI_EEEEE11get_deleterB6v15007Ev CODE
 0001:00044cd0 00000019H .text$_ZNSt3__117__compressed_pairINS_16__hash_node_baseIPNS_11__hash_nodeINS_17__hash_value_typeINS_12basic_stringIcNS_11char_traitsIcEENS_9allocatorIcEEEENS_13unordered_setIS9_NS_4hashIS9_EENS_8equal_toIS9_EENS7_IS9_EEEEEEPvEEEENS7_ISJ_EEE6secondB6v15007Ev CODE
 0001:00044cf0 0000000bH .text$_ZNSt3__122__compressed_pair_elemINS_9allocatorINS_11__hash_nodeINS_17__hash_value_typeINS_12basic_stringIcNS_11char_traitsIcEENS1_IcEEEENS_13unordered_setIS8_NS_4hashIS8_EENS_8equal_toIS8_EENS1_IS8_EEEEEEPvEEEELi1ELb1EE5__getB6v15007Ev CODE
 0001:00044d00 0000004eH .text$_ZNSt3__19allocatorINS_11__hash_nodeINS_17__hash_value_typeINS_12basic_stringIcNS_11char_traitsIcEENS0_IcEEEENS_13unordered_setIS7_NS_4hashIS7_EENS_8equal_toIS7_EENS0_IS7_EEEEEEPvEEE8allocateB6v15007Ey CODE
 0001:00044d50 00000019H .text$_ZNSt3__116allocator_traitsINS_9allocatorINS_11__hash_nodeINS_17__hash_value_typeINS_12basic_stringIcNS_11char_traitsIcEENS1_IcEEEENS_13unordered_setIS8_NS_4hashIS8_EENS_8equal_toIS8_EENS1_IS8_EEEEEEPvEEEEE8max_sizeB6v15007ISJ_vEEyRKSJ_ CODE
 0001:00044d70 00000011H .text$_ZNKSt3__19allocatorINS_11__hash_nodeINS_17__hash_value_typeINS_12basic_stringIcNS_11char_traitsIcEENS0_IcEEEENS_13unordered_setIS7_NS_4hashIS7_EENS_8equal_toIS7_EENS0_IS7_EEEEEEPvEEE8max_sizeB6v15007Ev CODE
 0001:00044d90 00000033H .text$_ZNSt3__122__hash_node_destructorINS_9allocatorINS_11__hash_nodeINS_17__hash_value_typeINS_12basic_stringIcNS_11char_traitsIcEENS1_IcEEEENS_13unordered_setIS8_NS_4hashIS8_EENS_8equal_toIS8_EENS1_IS8_EEEEEEPvEEEEEC2B6v15007ERSJ_b CODE
 0001:00044dd0 0000003aH .text$_ZNSt3__110unique_ptrINS_11__hash_nodeINS_17__hash_value_typeINS_12basic_stringIcNS_11char_traitsIcEENS_9allocatorIcEEEENS_13unordered_setIS8_NS_4hashIS8_EENS_8equal_toIS8_EENS6_IS8_EEEEEEPvEENS_22__hash_node_destructorINS6_ISI_EEEEEC2B6v15007ILb1EvEEPSI_NS_16__dependent_typeINS_27__unique_ptr_deleter_sfinaeISL_EEXT_EE20__good_rval_ref_typeE CODE
 0001:00044e10 0000002dH .text$_ZNSt3__117__compressed_pairIPNS_11__hash_nodeINS_17__hash_value_typeINS_12basic_stringIcNS_11char_traitsIcEENS_9allocatorIcEEEENS_13unordered_setIS8_NS_4hashIS8_EENS_8equal_toIS8_EENS6_IS8_EEEEEEPvEENS_22__hash_node_destructorINS6_ISI_EEEEEC1B6v15007IRSJ_SM_EEOT_OT0_ CODE
 0001:00044e40 00000040H .text$_ZNSt3__117__compressed_pairIPNS_11__hash_nodeINS_17__hash_value_typeINS_12basic_stringIcNS_11char_traitsIcEENS_9allocatorIcEEEENS_13unordered_setIS8_NS_4hashIS8_EENS_8equal_toIS8_EENS6_IS8_EEEEEEPvEENS_22__hash_node_destructorINS6_ISI_EEEEEC2B6v15007IRSJ_SM_EEOT_OT0_ CODE
 0001:00044e80 00000021H .text$_ZNSt3__122__compressed_pair_elemIPNS_11__hash_nodeINS_17__hash_value_typeINS_12basic_stringIcNS_11char_traitsIcEENS_9allocatorIcEEEENS_13unordered_setIS8_NS_4hashIS8_EENS_8equal_toIS8_EENS6_IS8_EEEEEEPvEELi0ELb0EEC2B6v15007IRSJ_vEEOT_ CODE
 0001:00044eb0 00000029H .text$_ZNSt3__122__compressed_pair_elemINS_22__hash_node_destructorINS_9allocatorINS_11__hash_nodeINS_17__hash_value_typeINS_12basic_stringIcNS_11char_traitsIcEENS2_IcEEEENS_13unordered_setIS9_NS_4hashIS9_EENS_8equal_toIS9_EENS2_IS9_EEEEEEPvEEEEEELi1ELb0EEC2B6v15007ISL_vEEOT_ CODE
 0001:00044ee0 00000028H .text$_ZNSt3__19allocatorINS_11__hash_nodeINS_17__hash_value_typeINS_12basic_stringIcNS_11char_traitsIcEENS0_IcEEEENS_13unordered_setIS7_NS_4hashIS7_EENS_8equal_toIS7_EENS0_IS7_EEEEEEPvEEE9constructB6v15007INS_4pairIKS7_SE_EEJRKSM_EEEvPT_DpOT0_ CODE
 0001:00044f10 00000023H .text$_ZNSt3__14pairIKNS_12basic_stringIcNS_11char_traitsIcEENS_9allocatorIcEEEENS_13unordered_setIS6_NS_4hashIS6_EENS_8equal_toIS6_EENS4_IS6_EEEEEC1ERKSF_ CODE
 0001:00044f40 0000006eH .text$_ZNSt3__14pairIKNS_12basic_stringIcNS_11char_traitsIcEENS_9allocatorIcEEEENS_13unordered_setIS6_NS_4hashIS6_EENS_8equal_toIS6_EENS4_IS6_EEEEEC2ERKSF_ CODE
 0001:00044fb0 00000019H .text$_ZNSt3__117__hash_value_typeINS_12basic_stringIcNS_11char_traitsIcEENS_9allocatorIcEEEENS_13unordered_setIS6_NS_4hashIS6_EENS_8equal_toIS6_EENS4_IS6_EEEEE11__get_valueB6v15007Ev CODE
 0001:00044fd0 00000019H .text$_ZNSt3__17launderB6v15007INS_4pairIKNS_12basic_stringIcNS_11char_traitsIcEENS_9allocatorIcEEEENS_13unordered_setIS7_NS_4hashIS7_EENS_8equal_toIS7_EENS5_IS7_EEEEEEEEPT_SI_ CODE
 0001:00044ff0 0000000bH .text$_ZNSt3__19__launderB6v15007INS_4pairIKNS_12basic_stringIcNS_11char_traitsIcEENS_9allocatorIcEEEENS_13unordered_setIS7_NS_4hashIS7_EENS_8equal_toIS7_EENS5_IS7_EEEEEEEEPT_SI_ CODE
 0001:00045000 0000001dH .text$_ZNSt3__117__compressed_pairIPNS_11__hash_nodeINS_17__hash_value_typeINS_12basic_stringIcNS_11char_traitsIcEENS_9allocatorIcEEEENS_13unordered_setIS8_NS_4hashIS8_EENS_8equal_toIS8_EENS6_IS8_EEEEEEPvEENS_22__hash_node_destructorINS6_ISI_EEEEE6secondB6v15007Ev CODE
 0001:00045020 0000000bH .text$_ZNSt3__122__compressed_pair_elemINS_22__hash_node_destructorINS_9allocatorINS_11__hash_nodeINS_17__hash_value_typeINS_12basic_stringIcNS_11char_traitsIcEENS2_IcEEEENS_13unordered_setIS9_NS_4hashIS9_EENS_8equal_toIS9_EENS2_IS9_EEEEEEPvEEEEEELi1ELb0EE5__getB6v15007Ev CODE
 0001:00045030 00000019H .text$_ZNSt3__117__compressed_pairIyNS_22__unordered_map_hasherINS_12basic_stringIcNS_11char_traitsIcEENS_9allocatorIcEEEENS_17__hash_value_typeIS7_NS_13unordered_setIS7_NS_4hashIS7_EENS_8equal_toIS7_EENS5_IS7_EEEEEESB_SD_Lb1EEEE5firstB6v15007Ev CODE
 0001:00045050 00000019H .text$_ZNSt3__117__compressed_pairIfNS_21__unordered_map_equalINS_12basic_stringIcNS_11char_traitsIcEENS_9allocatorIcEEEENS_17__hash_value_typeIS7_NS_13unordered_setIS7_NS_4hashIS7_EENS_8equal_toIS7_EENS5_IS7_EEEEEESD_SB_Lb1EEEE5firstB6v15007Ev CODE
 0001:00045070 00000255H .text$_ZNSt3__112__hash_tableINS_17__hash_value_typeINS_12basic_stringIcNS_11char_traitsIcEENS_9allocatorIcEEEENS_13unordered_setIS7_NS_4hashIS7_EENS_8equal_toIS7_EENS5_IS7_EEEEEENS_22__unordered_map_hasherIS7_SF_SA_SC_Lb1EEENS_21__unordered_map_equalIS7_SF_SC_SA_Lb1EEENS5_ISF_EEE8__rehashILb1EEEvy CODE
 0001:000452d0 000002c2H .text$_ZNSt3__112__hash_tableINS_17__hash_value_typeINS_12basic_stringIcNS_11char_traitsIcEENS_9allocatorIcEEEENS_13unordered_setIS7_NS_4hashIS7_EENS_8equal_toIS7_EENS5_IS7_EEEEEENS_22__unordered_map_hasherIS7_SF_SA_SC_Lb1EEENS_21__unordered_map_equalIS7_SF_SC_SA_Lb1EEENS5_ISF_EEE11__do_rehashILb1EEEvy CODE
 0001:000455a0 00000007H .text$_ZNSt3__125__debug_db_invalidate_allB6v15007INS_12__hash_tableINS_17__hash_value_typeINS_12basic_stringIcNS_11char_traitsIcEENS_9allocatorIcEEEENS_13unordered_setIS8_NS_4hashIS8_EENS_8equal_toIS8_EENS6_IS8_EEEEEENS_22__unordered_map_hasherIS8_SG_SB_SD_Lb1EEENS_21__unordered_map_equalIS8_SG_SD_SB_Lb1EEENS6_ISG_EEEEEEvPT_ CODE
 0001:000455b0 00000019H .text$_ZNSt3__110unique_ptrIA_PNS_16__hash_node_baseIPNS_11__hash_nodeINS_17__hash_value_typeINS_12basic_stringIcNS_11char_traitsIcEENS_9allocatorIcEEEENS_13unordered_setIS9_NS_4hashIS9_EENS_8equal_toIS9_EENS7_IS9_EEEEEEPvEEEENS_25__bucket_list_deallocatorINS7_ISM_EEEEE11get_deleterB6v15007Ev CODE
 0001:000455d0 00000019H .text$_ZNSt3__125__bucket_list_deallocatorINS_9allocatorIPNS_16__hash_node_baseIPNS_11__hash_nodeINS_17__hash_value_typeINS_12basic_stringIcNS_11char_traitsIcEENS1_IcEEEENS_13unordered_setIS9_NS_4hashIS9_EENS_8equal_toIS9_EENS1_IS9_EEEEEEPvEEEEEEE7__allocB6v15007Ev CODE
 0001:000455f0 0000006aH .text$_ZNSt3__110unique_ptrIA_PNS_16__hash_node_baseIPNS_11__hash_nodeINS_17__hash_value_typeINS_12basic_stringIcNS_11char_traitsIcEENS_9allocatorIcEEEENS_13unordered_setIS9_NS_4hashIS9_EENS_8equal_toIS9_EENS7_IS9_EEEEEEPvEEEENS_25__bucket_list_deallocatorINS7_ISM_EEEEE5resetB6v15007IPSM_EENS_9enable_ifIXsr28_CheckArrayPointerConversionIT_EE5valueEvE4typeESV_ CODE
 0001:00045660 00000023H .text$_ZNSt3__116allocator_traitsINS_9allocatorIPNS_16__hash_node_baseIPNS_11__hash_nodeINS_17__hash_value_typeINS_12basic_stringIcNS_11char_traitsIcEENS1_IcEEEENS_13unordered_setIS9_NS_4hashIS9_EENS_8equal_toIS9_EENS1_IS9_EEEEEEPvEEEEEEE8allocateB6v15007ERSN_y CODE
 0001:00045690 00000019H .text$_ZNSt3__125__bucket_list_deallocatorINS_9allocatorIPNS_16__hash_node_baseIPNS_11__hash_nodeINS_17__hash_value_typeINS_12basic_stringIcNS_11char_traitsIcEENS1_IcEEEENS_13unordered_setIS9_NS_4hashIS9_EENS_8equal_toIS9_EENS1_IS9_EEEEEEPvEEEEEEE4sizeB6v15007Ev CODE
 0001:000456b0 0000001dH .text$_ZNSt3__117__compressed_pairIPPNS_16__hash_node_baseIPNS_11__hash_nodeINS_17__hash_value_typeINS_12basic_stringIcNS_11char_traitsIcEENS_9allocatorIcEEEENS_13unordered_setIS9_NS_4hashIS9_EENS_8equal_toIS9_EENS7_IS9_EEEEEEPvEEEENS_25__bucket_list_deallocatorINS7_ISM_EEEEE6secondB6v15007Ev CODE
 0001:000456d0 0000000bH .text$_ZNSt3__122__compressed_pair_elemINS_25__bucket_list_deallocatorINS_9allocatorIPNS_16__hash_node_baseIPNS_11__hash_nodeINS_17__hash_value_typeINS_12basic_stringIcNS_11char_traitsIcEENS2_IcEEEENS_13unordered_setISA_NS_4hashISA_EENS_8equal_toISA_EENS2_ISA_EEEEEEPvEEEEEEEELi1ELb0EE5__getB6v15007Ev CODE
 0001:000456e0 00000019H .text$_ZNSt3__117__compressed_pairIyNS_9allocatorIPNS_16__hash_node_baseIPNS_11__hash_nodeINS_17__hash_value_typeINS_12basic_stringIcNS_11char_traitsIcEENS1_IcEEEENS_13unordered_setIS9_NS_4hashIS9_EENS_8equal_toIS9_EENS1_IS9_EEEEEEPvEEEEEEE6secondB6v15007Ev CODE
 0001:00045700 0000000bH .text$_ZNSt3__122__compressed_pair_elemINS_9allocatorIPNS_16__hash_node_baseIPNS_11__hash_nodeINS_17__hash_value_typeINS_12basic_stringIcNS_11char_traitsIcEENS1_IcEEEENS_13unordered_setIS9_NS_4hashIS9_EENS_8equal_toIS9_EENS1_IS9_EEEEEEPvEEEEEELi1ELb1EE5__getB6v15007Ev CODE
 0001:00045710 00000019H .text$_ZNSt3__117__compressed_pairIPPNS_16__hash_node_baseIPNS_11__hash_nodeINS_17__hash_value_typeINS_12basic_stringIcNS_11char_traitsIcEENS_9allocatorIcEEEENS_13unordered_setIS9_NS_4hashIS9_EENS_8equal_toIS9_EENS7_IS9_EEEEEEPvEEEENS_25__bucket_list_deallocatorINS7_ISM_EEEEE5firstB6v15007Ev CODE
 0001:00045730 0000004eH .text$_ZNSt3__125__bucket_list_deallocatorINS_9allocatorIPNS_16__hash_node_baseIPNS_11__hash_nodeINS_17__hash_value_typeINS_12basic_stringIcNS_11char_traitsIcEENS1_IcEEEENS_13unordered_setIS9_NS_4hashIS9_EENS_8equal_toIS9_EENS1_IS9_EEEEEEPvEEEEEEEclB6v15007EPSM_ CODE
 0001:00045780 0000000bH .text$_ZNSt3__122__compressed_pair_elemIPPNS_16__hash_node_baseIPNS_11__hash_nodeINS_17__hash_value_typeINS_12basic_stringIcNS_11char_traitsIcEENS_9allocatorIcEEEENS_13unordered_setIS9_NS_4hashIS9_EENS_8equal_toIS9_EENS7_IS9_EEEEEEPvEEEELi0ELb0EE5__getB6v15007Ev CODE
 0001:00045790 0000002dH .text$_ZNSt3__116allocator_traitsINS_9allocatorIPNS_16__hash_node_baseIPNS_11__hash_nodeINS_17__hash_value_typeINS_12basic_stringIcNS_11char_traitsIcEENS1_IcEEEENS_13unordered_setIS9_NS_4hashIS9_EENS_8equal_toIS9_EENS1_IS9_EEEEEEPvEEEEEEE10deallocateB6v15007ERSN_PSM_y CODE
 0001:000457c0 0000003fH .text$_ZNSt3__19allocatorIPNS_16__hash_node_baseIPNS_11__hash_nodeINS_17__hash_value_typeINS_12basic_stringIcNS_11char_traitsIcEENS0_IcEEEENS_13unordered_setIS8_NS_4hashIS8_EENS_8equal_toIS8_EENS0_IS8_EEEEEEPvEEEEE10deallocateB6v15007EPSL_y CODE
 0001:00045800 00000051H .text$_ZNSt3__19allocatorIPNS_16__hash_node_baseIPNS_11__hash_nodeINS_17__hash_value_typeINS_12basic_stringIcNS_11char_traitsIcEENS0_IcEEEENS_13unordered_setIS8_NS_4hashIS8_EENS_8equal_toIS8_EENS0_IS8_EEEEEEPvEEEEE8allocateB6v15007Ey CODE
 0001:00045860 00000019H .text$_ZNSt3__116allocator_traitsINS_9allocatorIPNS_16__hash_node_baseIPNS_11__hash_nodeINS_17__hash_value_typeINS_12basic_stringIcNS_11char_traitsIcEENS1_IcEEEENS_13unordered_setIS9_NS_4hashIS9_EENS_8equal_toIS9_EENS1_IS9_EEEEEEPvEEEEEEE8max_sizeB6v15007ISN_vEEyRKSN_ CODE
 0001:00045880 00000011H .text$_ZNKSt3__19allocatorIPNS_16__hash_node_baseIPNS_11__hash_nodeINS_17__hash_value_typeINS_12basic_stringIcNS_11char_traitsIcEENS0_IcEEEENS_13unordered_setIS8_NS_4hashIS8_EENS_8equal_toIS8_EENS0_IS8_EEEEEEPvEEEEE8max_sizeB6v15007Ev CODE
 0001:000458a0 00000019H .text$_ZNSt3__117__compressed_pairIyNS_9allocatorIPNS_16__hash_node_baseIPNS_11__hash_nodeINS_17__hash_value_typeINS_12basic_stringIcNS_11char_traitsIcEENS1_IcEEEENS_13unordered_setIS9_NS_4hashIS9_EENS_8equal_toIS9_EENS1_IS9_EEEEEEPvEEEEEEE5firstB6v15007Ev CODE
 0001:000458c0 0000000bH .text$_ZNSt3__122__compressed_pair_elemINS_16__hash_node_baseIPNS_11__hash_nodeINS_17__hash_value_typeINS_12basic_stringIcNS_11char_traitsIcEENS_9allocatorIcEEEENS_13unordered_setIS9_NS_4hashIS9_EENS_8equal_toIS9_EENS7_IS9_EEEEEEPvEEEELi0ELb0EE5__getB6v15007Ev CODE
 0001:000458d0 00000019H .text$_ZNKSt3__117__compressed_pairIPNS_11__hash_nodeINS_17__hash_value_typeINS_12basic_stringIcNS_11char_traitsIcEENS_9allocatorIcEEEENS_13unordered_setIS8_NS_4hashIS8_EENS_8equal_toIS8_EENS6_IS8_EEEEEEPvEENS_22__hash_node_destructorINS6_ISI_EEEEE5firstB6v15007Ev CODE
 0001:000458f0 0000000bH .text$_ZNKSt3__122__compressed_pair_elemIPNS_11__hash_nodeINS_17__hash_value_typeINS_12basic_stringIcNS_11char_traitsIcEENS_9allocatorIcEEEENS_13unordered_setIS8_NS_4hashIS8_EENS_8equal_toIS8_EENS6_IS8_EEEEEEPvEELi0ELb0EE5__getB6v15007Ev CODE
 0001:00045900 00000019H .text$_ZNSt3__117__compressed_pairIPNS_11__hash_nodeINS_17__hash_value_typeINS_12basic_stringIcNS_11char_traitsIcEENS_9allocatorIcEEEENS_13unordered_setIS8_NS_4hashIS8_EENS_8equal_toIS8_EENS6_IS8_EEEEEEPvEENS_22__hash_node_destructorINS6_ISI_EEEEE5firstB6v15007Ev CODE
 0001:00045920 0000000bH .text$_ZNSt3__122__compressed_pair_elemIPNS_11__hash_nodeINS_17__hash_value_typeINS_12basic_stringIcNS_11char_traitsIcEENS_9allocatorIcEEEENS_13unordered_setIS8_NS_4hashIS8_EENS_8equal_toIS8_EENS6_IS8_EEEEEEPvEELi0ELb0EE5__getB6v15007Ev CODE
 0001:00045930 0000001dH .text$_ZNSt3__110unique_ptrINS_11__hash_nodeINS_17__hash_value_typeINS_12basic_stringIcNS_11char_traitsIcEENS_9allocatorIcEEEENS_13unordered_setIS8_NS_4hashIS8_EENS_8equal_toIS8_EENS6_IS8_EEEEEEPvEENS_22__hash_node_destructorINS6_ISI_EEEEED2B6v15007Ev CODE
 0001:00045950 0000006aH .text$_ZNSt3__110unique_ptrINS_11__hash_nodeINS_17__hash_value_typeINS_12basic_stringIcNS_11char_traitsIcEENS_9allocatorIcEEEENS_13unordered_setIS8_NS_4hashIS8_EENS_8equal_toIS8_EENS6_IS8_EEEEEEPvEENS_22__hash_node_destructorINS6_ISI_EEEEE5resetB6v15007EPSI_ CODE
 0001:000459c0 00000093H .text$_ZNSt3__122__hash_node_destructorINS_9allocatorINS_11__hash_nodeINS_17__hash_value_typeINS_12basic_stringIcNS_11char_traitsIcEENS1_IcEEEENS_13unordered_setIS8_NS_4hashIS8_EENS_8equal_toIS8_EENS1_IS8_EEEEEEPvEEEEEclB6v15007EPSI_ CODE
 0001:00045a60 0000001eH .text$_ZNSt3__116allocator_traitsINS_9allocatorINS_11__hash_nodeINS_17__hash_value_typeINS_12basic_stringIcNS_11char_traitsIcEENS1_IcEEEENS_13unordered_setIS8_NS_4hashIS8_EENS_8equal_toIS8_EENS1_IS8_EEEEEEPvEEEEE7destroyB6v15007INS_4pairIKS8_SF_EEvvEEvRSJ_PT_ CODE
 0001:00045a80 0000002dH .text$_ZNSt3__116allocator_traitsINS_9allocatorINS_11__hash_nodeINS_17__hash_value_typeINS_12basic_stringIcNS_11char_traitsIcEENS1_IcEEEENS_13unordered_setIS8_NS_4hashIS8_EENS_8equal_toIS8_EENS1_IS8_EEEEEEPvEEEEE10deallocateB6v15007ERSJ_PSI_y CODE
 0001:00045ab0 00000043H .text$_ZNSt3__19allocatorINS_11__hash_nodeINS_17__hash_value_typeINS_12basic_stringIcNS_11char_traitsIcEENS0_IcEEEENS_13unordered_setIS7_NS_4hashIS7_EENS_8equal_toIS7_EENS0_IS7_EEEEEEPvEEE10deallocateB6v15007EPSH_y CODE
 0001:00045b00 00000024H .text$_ZNSt3__115__hash_iteratorIPNS_11__hash_nodeINS_17__hash_value_typeINS_12basic_stringIcNS_11char_traitsIcEENS_9allocatorIcEEEENS_13unordered_setIS8_NS_4hashIS8_EENS_8equal_toIS8_EENS6_IS8_EEEEEEPvEEEC2B6v15007EPNS_16__hash_node_baseISJ_EEPKv CODE
 0001:00045b30 00000033H .text$_ZNSt3__14pairINS_15__hash_iteratorIPNS_11__hash_nodeINS_17__hash_value_typeINS_12basic_stringIcNS_11char_traitsIcEENS_9allocatorIcEEEENS_13unordered_setIS9_NS_4hashIS9_EENS_8equal_toIS9_EENS7_IS9_EEEEEEPvEEEEbEC2B6v15007ISL_RbLSI_0EEEOT_OT0_ CODE
 0001:00045b70 00000051H .text$_ZNSt3__112__hash_tableINS_17__hash_value_typeINS_12basic_stringIcNS_11char_traitsIcEENS_9allocatorIcEEEENS_13unordered_setIS7_NS_4hashIS7_EENS_8equal_toIS7_EENS5_IS7_EEEEEENS_22__unordered_map_hasherIS7_SF_SA_SC_Lb1EEENS_21__unordered_map_equalIS7_SF_SC_SA_Lb1EEENS5_ISF_EEED2Ev CODE
 0001:00045bd0 000000a8H .text$_ZNSt3__112__hash_tableINS_17__hash_value_typeINS_12basic_stringIcNS_11char_traitsIcEENS_9allocatorIcEEEENS_13unordered_setIS7_NS_4hashIS7_EENS_8equal_toIS7_EENS5_IS7_EEEEEENS_22__unordered_map_hasherIS7_SF_SA_SC_Lb1EEENS_21__unordered_map_equalIS7_SF_SC_SA_Lb1EEENS5_ISF_EEE17__deallocate_nodeEPNS_16__hash_node_baseIPNS_11__hash_nodeISF_PvEEEE CODE
 0001:00045c80 00000007H .text$_ZNSt3__118__debug_db_erase_cB6v15007INS_12__hash_tableINS_17__hash_value_typeINS_12basic_stringIcNS_11char_traitsIcEENS_9allocatorIcEEEENS_13unordered_setIS8_NS_4hashIS8_EENS_8equal_toIS8_EENS6_IS8_EEEEEENS_22__unordered_map_hasherIS8_SG_SB_SD_Lb1EEENS_21__unordered_map_equalIS8_SG_SD_SB_Lb1EEENS6_ISG_EEEEEEvPT_ CODE
 0001:00045c90 00000019H .text$_ZNSt3__110unique_ptrIA_PNS_16__hash_node_baseIPNS_11__hash_nodeINS_17__hash_value_typeINS_12basic_stringIcNS_11char_traitsIcEENS_9allocatorIcEEEENS_13unordered_setIS9_NS_4hashIS9_EENS_8equal_toIS9_EENS7_IS9_EEEEEEPvEEEENS_25__bucket_list_deallocatorINS7_ISM_EEEEED1B6v15007Ev CODE
 0001:00045cb0 0000001dH .text$_ZNSt3__110unique_ptrIA_PNS_16__hash_node_baseIPNS_11__hash_nodeINS_17__hash_value_typeINS_12basic_stringIcNS_11char_traitsIcEENS_9allocatorIcEEEENS_13unordered_setIS9_NS_4hashIS9_EENS_8equal_toIS9_EENS7_IS9_EEEEEEPvEEEENS_25__bucket_list_deallocatorINS7_ISM_EEEEED2B6v15007Ev CODE
 0001:00045cd0 0000005fH .text$_ZNSt3__110unique_ptrIA_PNS_16__hash_node_baseIPNS_11__hash_nodeINS_17__hash_value_typeINS_12basic_stringIcNS_11char_traitsIcEENS_9allocatorIcEEEENS_13unordered_setIS9_NS_4hashIS9_EENS_8equal_toIS9_EENS7_IS9_EEEEEEPvEEEENS_25__bucket_list_deallocatorINS7_ISM_EEEEE5resetB6v15007EDn CODE
 0001:00045d30 00000019H .text$_ZNSt3__113unordered_mapINS_12basic_stringIcNS_11char_traitsIcEENS_9allocatorIcEEEENS_13unordered_setIS6_NS_4hashIS6_EENS_8equal_toIS6_EENS4_IS6_EEEES9_SB_NS4_INS_4pairIKS6_SD_EEEEED2B6v15007Ev CODE
 0001:00045d50 000001abH .text$_ZNKSt3__112__hash_tableINS_17__hash_value_typeINS_12basic_stringIcNS_11char_traitsIcEENS_9allocatorIcEEEENS_13unordered_setIS7_NS_4hashIS7_EENS_8equal_toIS7_EENS5_IS7_EEEEEENS_22__unordered_map_hasherIS7_SF_SA_SC_Lb1EEENS_21__unordered_map_equalIS7_SF_SC_SA_Lb1EEENS5_ISF_EEE4findIS7_EENS_21__hash_const_iteratorIPNS_11__hash_nodeISF_PvEEEERKT_ CODE
 0001:00045f00 00000023H .text$_ZNSt3__125__hash_map_const_iteratorINS_21__hash_const_iteratorIPNS_11__hash_nodeINS_17__hash_value_typeINS_12basic_stringIcNS_11char_traitsIcEENS_9allocatorIcEEEENS_13unordered_setIS9_NS_4hashIS9_EENS_8equal_toIS9_EENS7_IS9_EEEEEEPvEEEEEC1B6v15007ESL_ CODE
 0001:00045f30 0000001dH .text$_ZNKSt3__112__hash_tableINS_17__hash_value_typeINS_12basic_stringIcNS_11char_traitsIcEENS_9allocatorIcEEEENS_13unordered_setIS7_NS_4hashIS7_EENS_8equal_toIS7_EENS5_IS7_EEEEEENS_22__unordered_map_hasherIS7_SF_SA_SC_Lb1EEENS_21__unordered_map_equalIS7_SF_SC_SA_Lb1EEENS5_ISF_EEE13hash_functionB6v15007Ev CODE
 0001:00045f50 0000001dH .text$_ZNKSt3__112__hash_tableINS_17__hash_value_typeINS_12basic_stringIcNS_11char_traitsIcEENS_9allocatorIcEEEENS_13unordered_setIS7_NS_4hashIS7_EENS_8equal_toIS7_EENS5_IS7_EEEEEENS_22__unordered_map_hasherIS7_SF_SA_SC_Lb1EEENS_21__unordered_map_equalIS7_SF_SC_SA_Lb1EEENS5_ISF_EEE6key_eqB6v15007Ev CODE
 0001:00045f70 0000002dH .text$_ZNSt3__121__hash_const_iteratorIPNS_11__hash_nodeINS_17__hash_value_typeINS_12basic_stringIcNS_11char_traitsIcEENS_9allocatorIcEEEENS_13unordered_setIS8_NS_4hashIS8_EENS_8equal_toIS8_EENS6_IS8_EEEEEEPvEEEC1B6v15007EPNS_16__hash_node_baseISJ_EEPKv CODE
 0001:00045fa0 00000026H .text$_ZNKSt3__112__hash_tableINS_17__hash_value_typeINS_12basic_stringIcNS_11char_traitsIcEENS_9allocatorIcEEEENS_13unordered_setIS7_NS_4hashIS7_EENS_8equal_toIS7_EENS5_IS7_EEEEEENS_22__unordered_map_hasherIS7_SF_SA_SC_Lb1EEENS_21__unordered_map_equalIS7_SF_SC_SA_Lb1EEENS5_ISF_EEE3endEv CODE
 0001:00045fd0 00000019H .text$_ZNKSt3__117__compressed_pairIyNS_22__unordered_map_hasherINS_12basic_stringIcNS_11char_traitsIcEENS_9allocatorIcEEEENS_17__hash_value_typeIS7_NS_13unordered_setIS7_NS_4hashIS7_EENS_8equal_toIS7_EENS5_IS7_EEEEEESB_SD_Lb1EEEE6secondB6v15007Ev CODE
 0001:00045ff0 0000000bH .text$_ZNKSt3__122__compressed_pair_elemINS_22__unordered_map_hasherINS_12basic_stringIcNS_11char_traitsIcEENS_9allocatorIcEEEENS_17__hash_value_typeIS7_NS_13unordered_setIS7_NS_4hashIS7_EENS_8equal_toIS7_EENS5_IS7_EEEEEESB_SD_Lb1EEELi1ELb1EE5__getB6v15007Ev CODE
 0001:00046000 00000019H .text$_ZNKSt3__117__compressed_pairIfNS_21__unordered_map_equalINS_12basic_stringIcNS_11char_traitsIcEENS_9allocatorIcEEEENS_17__hash_value_typeIS7_NS_13unordered_setIS7_NS_4hashIS7_EENS_8equal_toIS7_EENS5_IS7_EEEEEESD_SB_Lb1EEEE6secondB6v15007Ev CODE
 0001:00046020 0000000bH .text$_ZNKSt3__122__compressed_pair_elemINS_21__unordered_map_equalINS_12basic_stringIcNS_11char_traitsIcEENS_9allocatorIcEEEENS_17__hash_value_typeIS7_NS_13unordered_setIS7_NS_4hashIS7_EENS_8equal_toIS7_EENS5_IS7_EEEEEESD_SB_Lb1EEELi1ELb1EE5__getB6v15007Ev CODE
 0001:00046030 00000024H .text$_ZNSt3__121__hash_const_iteratorIPNS_11__hash_nodeINS_17__hash_value_typeINS_12basic_stringIcNS_11char_traitsIcEENS_9allocatorIcEEEENS_13unordered_setIS8_NS_4hashIS8_EENS_8equal_toIS8_EENS6_IS8_EEEEEEPvEEEC2B6v15007EPNS_16__hash_node_baseISJ_EEPKv CODE
 0001:00046060 0000001eH .text$_ZNSt3__125__hash_map_const_iteratorINS_21__hash_const_iteratorIPNS_11__hash_nodeINS_17__hash_value_typeINS_12basic_stringIcNS_11char_traitsIcEENS_9allocatorIcEEEENS_13unordered_setIS9_NS_4hashIS9_EENS_8equal_toIS9_EENS7_IS9_EEEEEEPvEEEEEC2B6v15007ESL_ CODE
 0001:00046080 00000029H .text$_ZNSt3__1neB6v15007ERKNS_21__hash_const_iteratorIPNS_11__hash_nodeINS_17__hash_value_typeINS_12basic_stringIcNS_11char_traitsIcEENS_9allocatorIcEEEENS_13unordered_setIS8_NS_4hashIS8_EENS_8equal_toIS8_EENS6_IS8_EEEEEEPvEEEESM_ CODE
 0001:000460b0 00000029H .text$_ZNSt3__1eqB6v15007ERKNS_21__hash_const_iteratorIPNS_11__hash_nodeINS_17__hash_value_typeINS_12basic_stringIcNS_11char_traitsIcEENS_9allocatorIcEEEENS_13unordered_setIS8_NS_4hashIS8_EENS_8equal_toIS8_EENS6_IS8_EEEEEEPvEEEESM_ CODE
 0001:000460e0 0000000bH .text$_ZNSt3__114pointer_traitsIPKNS_4pairIKNS_12basic_stringIcNS_11char_traitsIcEENS_9allocatorIcEEEENS_13unordered_setIS7_NS_4hashIS7_EENS_8equal_toIS7_EENS5_IS7_EEEEEEE10pointer_toB6v15007ERSH_ CODE
 0001:000460f0 00000028H .text$_ZNKSt3__121__hash_const_iteratorIPNS_11__hash_nodeINS_17__hash_value_typeINS_12basic_stringIcNS_11char_traitsIcEENS_9allocatorIcEEEENS_13unordered_setIS8_NS_4hashIS8_EENS_8equal_toIS8_EENS6_IS8_EEEEEEPvEEEptB6v15007Ev CODE
 0001:00046120 0000000bH .text$_ZNSt3__114pointer_traitsIPKNS_17__hash_value_typeINS_12basic_stringIcNS_11char_traitsIcEENS_9allocatorIcEEEENS_13unordered_setIS7_NS_4hashIS7_EENS_8equal_toIS7_EENS5_IS7_EEEEEEE10pointer_toB6v15007ERSG_ CODE
 0001:00046130 0000004fH .text$_ZNKSt3__112__hash_tableINS_12basic_stringIcNS_11char_traitsIcEENS_9allocatorIcEEEENS_4hashIS6_EENS_8equal_toIS6_EENS4_IS6_EEE14__count_uniqueIS6_EEyRKT_ CODE
 0001:00046180 000001abH .text$_ZNKSt3__112__hash_tableINS_12basic_stringIcNS_11char_traitsIcEENS_9allocatorIcEEEENS_4hashIS6_EENS_8equal_toIS6_EENS4_IS6_EEE4findIS6_EENS_21__hash_const_iteratorIPNS_11__hash_nodeIS6_PvEEEERKT_ CODE
 0001:00046330 0000001dH .text$_ZNKSt3__112__hash_tableINS_12basic_stringIcNS_11char_traitsIcEENS_9allocatorIcEEEENS_4hashIS6_EENS_8equal_toIS6_EENS4_IS6_EEE6key_eqB6v15007Ev CODE
 0001:00046350 00000019H .text$_ZNKSt3__117__compressed_pairIfNS_8equal_toINS_12basic_stringIcNS_11char_traitsIcEENS_9allocatorIcEEEEEEE6secondB6v15007Ev CODE
 0001:00046370 0000000bH .text$_ZNKSt3__122__compressed_pair_elemINS_8equal_toINS_12basic_stringIcNS_11char_traitsIcEENS_9allocatorIcEEEEEELi1ELb1EE5__getB6v15007Ev CODE
 0001:00046380 000000faH .text$_ZNSt3__16__treeINS_12__value_typeIiNS_4pairIiiEEEENS_19__map_value_compareIiS4_NS_4lessIiEELb1EEENS_9allocatorIS4_EEE4findIiEENS_15__tree_iteratorIS4_PNS_11__tree_nodeIS4_PvEExEERKT_ CODE
 0001:00046480 00000023H .text$_ZNSt3__114__map_iteratorINS_15__tree_iteratorINS_12__value_typeIiNS_4pairIiiEEEEPNS_11__tree_nodeIS5_PvEExEEEC1B6v15007ESA_ CODE
 0001:000464b0 0000009eH .text$_ZNSt3__16__treeINS_12__value_typeIiNS_4pairIiiEEEENS_19__map_value_compareIiS4_NS_4lessIiEELb1EEENS_9allocatorIS4_EEE13__lower_boundIiEENS_15__tree_iteratorIS4_PNS_11__tree_nodeIS4_PvEExEERKT_SH_PNS_15__tree_end_nodeIPNS_16__tree_node_baseISF_EEEE CODE
 0001:00046550 00000029H .text$_ZNSt3__1neB6v15007ERKNS_15__tree_iteratorINS_12__value_typeIiNS_4pairIiiEEEEPNS_11__tree_nodeIS4_PvEExEESB_ CODE
 0001:00046580 0000002aH .text$_ZNSt3__16__treeINS_12__value_typeIiNS_4pairIiiEEEENS_19__map_value_compareIiS4_NS_4lessIiEELb1EEENS_9allocatorIS4_EEE3endB6v15007Ev CODE
 0001:000465b0 0000001cH .text$_ZNKSt3__115__tree_iteratorINS_12__value_typeIiNS_4pairIiiEEEEPNS_11__tree_nodeIS4_PvEExEdeB6v15007Ev CODE
 0001:000465d0 00000023H .text$_ZNSt3__115__tree_iteratorINS_12__value_typeIiNS_4pairIiiEEEEPNS_11__tree_nodeIS4_PvEExEC1B6v15007EPNS_15__tree_end_nodeIPNS_16__tree_node_baseIS6_EEEE CODE
 0001:00046600 0000001eH .text$_ZNSt3__115__tree_iteratorINS_12__value_typeIiNS_4pairIiiEEEEPNS_11__tree_nodeIS4_PvEExEC2B6v15007EPNS_15__tree_end_nodeIPNS_16__tree_node_baseIS6_EEEE CODE
 0001:00046620 00000029H .text$_ZNSt3__1eqB6v15007ERKNS_15__tree_iteratorINS_12__value_typeIiNS_4pairIiiEEEEPNS_11__tree_nodeIS4_PvEExEESB_ CODE
 0001:00046650 0000001eH .text$_ZNSt3__114__map_iteratorINS_15__tree_iteratorINS_12__value_typeIiNS_4pairIiiEEEEPNS_11__tree_nodeIS5_PvEExEEEC2B6v15007ESA_ CODE
 0001:00046670 00000021H .text$_ZN6System3SetIN3Fmx8Graphics13TFillTextFlagELS3_0ELS3_0EEC2Ev CODE
 0001:000466a0 00008c04H .text                   CODE
 0001:0004f2b0 00000019H .text$_ZNSt3__16vectorINS_17reference_wrapperI7RikishiEENS_9allocatorIS3_EEEC1B6v15007Ev CODE
 0001:0004f2d0 00000060H .text$_ZNSt3__16vectorINS_17reference_wrapperI7RikishiEENS_9allocatorIS3_EEE9push_backB6v15007EOS3_ CODE
 0001:0004f330 00000023H .text$_ZNSt3__117reference_wrapperI7RikishiEC1B6v15007IRS1_vEEOT_ CODE
 0001:0004f360 00000019H .text$_ZNSt3__16vectorINS_17reference_wrapperI7RikishiEENS_9allocatorIS3_EEED1B6v15007Ev CODE
 0001:0004f380 00000030H .text$_ZN6System3SetINS_7Uitypes10TMsgDlgBtnELS2_0ELS2_11EEC1Ev CODE
 0001:0004f3b0 00000078H .text$_ZN6System3SetINS_7Uitypes10TMsgDlgBtnELS2_0ELS2_11EElsES2_ CODE
 0001:0004f430 00000019H .text$_ZN6System15DelphiInterfaceIN3Fmx7Dialogs21TInputCloseDialogProcEED1Ev CODE
 0001:0004f450 00000046H .text$_ZNSt3__16vectorINS_12basic_stringIcNS_11char_traitsIcEENS_9allocatorIcEEEENS4_IS6_EEE5clearB6v15007Ev CODE
 0001:0004f4a0 0000002dH .text$_ZNSt3__14pairIPiS1_EC1B6v15007IS1_S1_LPv0EEEOT_OT0_ CODE
 0001:0004f4d0 00000019H .text$_ZNSt3__16vectorINS_4pairIPiS2_EENS_9allocatorIS3_EEEC1B6v15007ESt16initializer_listIS3_E CODE
 0001:0004f4f0 00000019H .text$_ZNKSt3__16vectorINS_4pairIPiS2_EENS_9allocatorIS3_EEE4sizeB6v15007Ev CODE
 0001:0004f510 00000060H .text$_ZNSt3__16vectorINS_12basic_stringIcNS_11char_traitsIcEENS_9allocatorIcEEEENS4_IS6_EEE9push_backB6v15007EOS6_ CODE
 0001:0004f570 00000025H .text$_ZNSt3__16vectorINS_4pairIPiS2_EENS_9allocatorIS3_EEEixB6v15007Ey CODE
 0001:0004f5a0 0000002cH .text$_ZN6System11AnsiStringTILt0EEpLERKS1_ CODE
 0001:0004f5d0 00000019H .text$_ZNSt3__16vectorINS_4pairIPiS2_EENS_9allocatorIS3_EEED1B6v15007Ev CODE
 0001:0004f5f0 00000017H .text$_ZNK6System14AnsiStringBase7IsEmptyEv CODE
 0001:0004f610 00000019H .text$_ZNKSt3__16vectorINS_17reference_wrapperI7RikishiEENS_9allocatorIS3_EEE4sizeB6v15007Ev CODE
 0001:0004f630 00000025H .text$_ZNSt3__16vectorINS_17reference_wrapperI7RikishiEENS_9allocatorIS3_EEEixB6v15007Ey CODE
 0001:0004f660 0000000eH .text$_ZNKSt3__117reference_wrapperI7RikishiE3getB6v15007Ev CODE
 0001:0004f670 0000004cH .text$_ZN9TYourBeyaD0Ev CODE
 0001:0004f6c0 00000032H .text$_ZNSt3__14pairIPiS1_EC2B6v15007IS1_S1_LPv0EEEOT_OT0_ CODE
 0001:0004f700 00000060H .text$_ZNSt3__16vectorINS_17reference_wrapperI7RikishiEENS_9allocatorIS3_EEEC2B6v15007Ev CODE
 0001:0004f760 0000002dH .text$_ZNSt3__117__compressed_pairIPNS_17reference_wrapperI7RikishiEENS_9allocatorIS3_EEEC1B6v15007IDnNS_18__default_init_tagEEEOT_OT0_ CODE
 0001:0004f790 00000007H .text$_ZNSt3__119__debug_db_insert_cB6v15007INS_6vectorINS_17reference_wrapperI7RikishiEENS_9allocatorIS4_EEEEEEvPT_ CODE
 0001:0004f7a0 0000003bH .text$_ZNSt3__117__compressed_pairIPNS_17reference_wrapperI7RikishiEENS_9allocatorIS3_EEEC2B6v15007IDnNS_18__default_init_tagEEEOT_OT0_ CODE
 0001:0004f7e0 0000001eH .text$_ZNSt3__122__compressed_pair_elemIPNS_17reference_wrapperI7RikishiEELi0ELb0EEC2B6v15007IDnvEEOT_ CODE
 0001:0004f800 0000001dH .text$_ZNSt3__122__compressed_pair_elemINS_9allocatorINS_17reference_wrapperI7RikishiEEEELi1ELb1EEC2B6v15007ENS_18__default_init_tagE CODE
 0001:0004f820 00000019H .text$_ZNSt3__19allocatorINS_17reference_wrapperI7RikishiEEEC2B6v15007Ev CODE
 0001:0004f840 00000007H .text$_ZNSt3__116__non_trivial_ifILb1ENS_9allocatorINS_17reference_wrapperI7RikishiEEEEEC2B6v15007Ev CODE
 0001:0004f850 0000003aH .text$_ZNSt3__16vectorINS_17reference_wrapperI7RikishiEENS_9allocatorIS3_EEED2B6v15007Ev CODE
 0001:0004f890 00000023H .text$_ZNSt3__16vectorINS_17reference_wrapperI7RikishiEENS_9allocatorIS3_EEE16__destroy_vectorC1ERS6_ CODE
 0001:0004f8c0 0000008cH .text$_ZNSt3__16vectorINS_17reference_wrapperI7RikishiEENS_9allocatorIS3_EEE16__destroy_vectorclB6v15007Ev CODE
 0001:0004f950 0000001eH .text$_ZNSt3__16vectorINS_17reference_wrapperI7RikishiEENS_9allocatorIS3_EEE16__destroy_vectorC2ERS6_ CODE
 0001:0004f970 000000c3H .text$_ZNKSt3__16vectorINS_17reference_wrapperI7RikishiEENS_9allocatorIS3_EEE17__annotate_deleteB6v15007Ev CODE
 0001:0004fa40 00000007H .text$_ZNSt3__118__debug_db_erase_cB6v15007INS_6vectorINS_17reference_wrapperI7RikishiEENS_9allocatorIS4_EEEEEEvPT_ CODE
 0001:0004fa50 0000001cH .text$_ZNSt3__16vectorINS_17reference_wrapperI7RikishiEENS_9allocatorIS3_EEE7__clearB6v15007Ev CODE
 0001:0004fa70 0000002dH .text$_ZNSt3__116allocator_traitsINS_9allocatorINS_17reference_wrapperI7RikishiEEEEE10deallocateB6v15007ERS5_PS4_y CODE
 0001:0004faa0 0000001dH .text$_ZNSt3__16vectorINS_17reference_wrapperI7RikishiEENS_9allocatorIS3_EEE7__allocB6v15007Ev CODE
 0001:0004fac0 0000002fH .text$_ZNKSt3__16vectorINS_17reference_wrapperI7RikishiEENS_9allocatorIS3_EEE8capacityB6v15007Ev CODE
 0001:0004faf0 00000021H .text$_ZNKSt3__16vectorINS_17reference_wrapperI7RikishiEENS_9allocatorIS3_EEE31__annotate_contiguous_containerB6v15007EPKvS8_S8_S8_ CODE
 0001:0004fb20 0000001cH .text$_ZNKSt3__16vectorINS_17reference_wrapperI7RikishiEENS_9allocatorIS3_EEE4dataB6v15007Ev CODE
 0001:0004fb40 0000000bH .text$_ZNSt3__112__to_addressB6v15007INS_17reference_wrapperI7RikishiEEEEPT_S5_ CODE
 0001:0004fb50 00000086H .text$_ZNSt3__16vectorINS_17reference_wrapperI7RikishiEENS_9allocatorIS3_EEE22__base_destruct_at_endB6v15007EPS3_ CODE
 0001:0004fbe0 00000023H .text$_ZNSt3__116allocator_traitsINS_9allocatorINS_17reference_wrapperI7RikishiEEEEE7destroyB6v15007IS4_vEEvRS5_PT_ CODE
 0001:0004fc10 00000012H .text$_ZNSt3__19allocatorINS_17reference_wrapperI7RikishiEEE7destroyB6v15007EPS3_ CODE
 0001:0004fc30 0000003fH .text$_ZNSt3__19allocatorINS_17reference_wrapperI7RikishiEEE10deallocateB6v15007EPS3_y CODE
 0001:0004fc70 00000019H .text$_ZNSt3__117__compressed_pairIPNS_17reference_wrapperI7RikishiEENS_9allocatorIS3_EEE6secondB6v15007Ev CODE
 0001:0004fc90 0000000bH .text$_ZNSt3__122__compressed_pair_elemINS_9allocatorINS_17reference_wrapperI7RikishiEEEELi1ELb1EE5__getB6v15007Ev CODE
 0001:0004fca0 0000001dH .text$_ZNKSt3__16vectorINS_17reference_wrapperI7RikishiEENS_9allocatorIS3_EEE9__end_capB6v15007Ev CODE
 0001:0004fcc0 00000019H .text$_ZNKSt3__117__compressed_pairIPNS_17reference_wrapperI7RikishiEENS_9allocatorIS3_EEE5firstB6v15007Ev CODE
 0001:0004fce0 0000000bH .text$_ZNKSt3__122__compressed_pair_elemIPNS_17reference_wrapperI7RikishiEELi0ELb0EE5__getB6v15007Ev CODE
 0001:0004fcf0 0000001dH .text$_ZNSt3__16vectorINS_17reference_wrapperI7RikishiEENS_9allocatorIS3_EEE9__end_capB6v15007Ev CODE
 0001:0004fd10 00000099H .text$_ZNSt3__16vectorINS_17reference_wrapperI7RikishiEENS_9allocatorIS3_EEE22__construct_one_at_endB6v15007IJS3_EEEvDpOT_ CODE
 0001:0004fdb0 000000eeH .text$_ZNSt3__16vectorINS_17reference_wrapperI7RikishiEENS_9allocatorIS3_EEE21__push_back_slow_pathIS3_EEvOT_ CODE
 0001:0004fea0 00000019H .text$_ZNSt3__117__compressed_pairIPNS_17reference_wrapperI7RikishiEENS_9allocatorIS3_EEE5firstB6v15007Ev CODE
 0001:0004fec0 0000000bH .text$_ZNSt3__122__compressed_pair_elemIPNS_17reference_wrapperI7RikishiEELi0ELb0EE5__getB6v15007Ev CODE
 0001:0004fed0 0000002dH .text$_ZNSt3__16vectorINS_17reference_wrapperI7RikishiEENS_9allocatorIS3_EEE21_ConstructTransactionC1ERS6_y CODE
 0001:0004ff00 0000002dH .text$_ZNSt3__116allocator_traitsINS_9allocatorINS_17reference_wrapperI7RikishiEEEEE9constructB6v15007IS4_JS4_EvEEvRS5_PT_DpOT0_ CODE
 0001:0004ff30 00000019H .text$_ZNSt3__16vectorINS_17reference_wrapperI7RikishiEENS_9allocatorIS3_EEE21_ConstructTransactionD1Ev CODE
 0001:0004ff50 00000049H .text$_ZNSt3__16vectorINS_17reference_wrapperI7RikishiEENS_9allocatorIS3_EEE21_ConstructTransactionC2ERS6_y CODE
 0001:0004ffa0 00000026H .text$_ZNSt3__19allocatorINS_17reference_wrapperI7RikishiEEE9constructB6v15007IS3_JS3_EEEvPT_DpOT0_ CODE
 0001:0004ffd0 00000016H .text$_ZNSt3__16vectorINS_17reference_wrapperI7RikishiEENS_9allocatorIS3_EEE21_ConstructTransactionD2Ev CODE
 0001:0004fff0 000000a0H .text$_ZNKSt3__16vectorINS_17reference_wrapperI7RikishiEENS_9allocatorIS3_EEE11__recommendB6v15007Ey CODE
 0001:00050090 00000037H .text$_ZNSt3__114__split_bufferINS_17reference_wrapperI7RikishiEERNS_9allocatorIS3_EEEC1EyyS6_ CODE
 0001:000500d0 0000014cH .text$_ZNSt3__16vectorINS_17reference_wrapperI7RikishiEENS_9allocatorIS3_EEE26__swap_out_circular_bufferERNS_14__split_bufferIS3_RS5_EE CODE
 0001:00050220 00000019H .text$_ZNSt3__114__split_bufferINS_17reference_wrapperI7RikishiEERNS_9allocatorIS3_EEED1Ev CODE
 0001:00050240 00000059H .text$_ZNKSt3__16vectorINS_17reference_wrapperI7RikishiEENS_9allocatorIS3_EEE8max_sizeEv CODE
 0001:000502a0 00000016H .text$_ZNKSt3__16vectorINS_17reference_wrapperI7RikishiEENS_9allocatorIS3_EEE20__throw_length_errorB6v15007Ev CODE
 0001:000502c0 00000019H .text$_ZNSt3__116allocator_traitsINS_9allocatorINS_17reference_wrapperI7RikishiEEEEE8max_sizeB6v15007IS5_vEEyRKS5_ CODE
 0001:000502e0 0000001dH .text$_ZNKSt3__16vectorINS_17reference_wrapperI7RikishiEENS_9allocatorIS3_EEE7__allocB6v15007Ev CODE
 0001:00050300 00000011H .text$_ZNKSt3__19allocatorINS_17reference_wrapperI7RikishiEEE8max_sizeB6v15007Ev CODE
 0001:00050320 00000019H .text$_ZNKSt3__117__compressed_pairIPNS_17reference_wrapperI7RikishiEENS_9allocatorIS3_EEE6secondB6v15007Ev CODE
 0001:00050340 0000000bH .text$_ZNKSt3__122__compressed_pair_elemINS_9allocatorINS_17reference_wrapperI7RikishiEEEELi1ELb1EE5__getB6v15007Ev CODE
 0001:00050350 000000d0H .text$_ZNSt3__114__split_bufferINS_17reference_wrapperI7RikishiEERNS_9allocatorIS3_EEEC2EyyS6_ CODE
 0001:00050420 0000002dH .text$_ZNSt3__117__compressed_pairIPNS_17reference_wrapperI7RikishiEERNS_9allocatorIS3_EEEC1B6v15007IDnS7_EEOT_OT0_ CODE
 0001:00050450 0000004dH .text$_ZNSt3__119__allocate_at_leastB6v15007INS_9allocatorINS_17reference_wrapperI7RikishiEEEEEENS_19__allocation_resultINS_16allocator_traitsIT_E7pointerEEERS8_y CODE
 0001:000504a0 0000001dH .text$_ZNSt3__114__split_bufferINS_17reference_wrapperI7RikishiEERNS_9allocatorIS3_EEE7__allocB6v15007Ev CODE
 0001:000504c0 0000001dH .text$_ZNSt3__114__split_bufferINS_17reference_wrapperI7RikishiEERNS_9allocatorIS3_EEE9__end_capB6v15007Ev CODE
 0001:000504e0 00000040H .text$_ZNSt3__117__compressed_pairIPNS_17reference_wrapperI7RikishiEERNS_9allocatorIS3_EEEC2B6v15007IDnS7_EEOT_OT0_ CODE
 0001:00050520 0000001eH .text$_ZNSt3__122__compressed_pair_elemIRNS_9allocatorINS_17reference_wrapperI7RikishiEEEELi1ELb0EEC2B6v15007IS6_vEEOT_ CODE
 0001:00050540 00000051H .text$_ZNSt3__19allocatorINS_17reference_wrapperI7RikishiEEE8allocateB6v15007Ey CODE
 0001:000505a0 0000001dH .text$_ZNSt3__117__compressed_pairIPNS_17reference_wrapperI7RikishiEERNS_9allocatorIS3_EEE6secondB6v15007Ev CODE
 0001:000505c0 0000000eH .text$_ZNSt3__122__compressed_pair_elemIRNS_9allocatorINS_17reference_wrapperI7RikishiEEEELi1ELb0EE5__getB6v15007Ev CODE
 0001:000505d0 00000019H .text$_ZNSt3__117__compressed_pairIPNS_17reference_wrapperI7RikishiEERNS_9allocatorIS3_EEE5firstB6v15007Ev CODE
 0001:000505f0 0000006fH .text$_ZNSt3__142__uninitialized_allocator_move_if_noexceptB6v15007INS_9allocatorINS_17reference_wrapperI7RikishiEEEENS_16reverse_iteratorIPS4_EES8_S4_vEET1_RT_T0_SC_S9_ CODE
 0001:00050660 00000023H .text$_ZNSt3__116reverse_iteratorIPNS_17reference_wrapperI7RikishiEEEC1B6v15007ES4_ CODE
 0001:00050690 0000000fH .text$_ZNKSt3__116reverse_iteratorIPNS_17reference_wrapperI7RikishiEEE4baseB6v15007Ev CODE
 0001:000506a0 0000003bH .text$_ZNSt3__14swapB6v15007IPNS_17reference_wrapperI7RikishiEEEENS_9enable_ifIXaasr21is_move_constructibleIT_EE5valuesr18is_move_assignableIS6_EE5valueEvE4typeERS6_S9_ CODE
 0001:000506e0 000000b6H .text$_ZNKSt3__16vectorINS_17reference_wrapperI7RikishiEENS_9allocatorIS3_EEE14__annotate_newB6v15007Ey CODE
 0001:000507a0 00000007H .text$_ZNSt3__125__debug_db_invalidate_allB6v15007INS_6vectorINS_17reference_wrapperI7RikishiEENS_9allocatorIS4_EEEEEEvPT_ CODE
 0001:000507b0 0000008bH .text$_ZNSt3__14moveB6v15007INS_16reverse_iteratorIPNS_17reference_wrapperI7RikishiEEEES6_EET0_T_S8_S7_ CODE
 0001:00050840 0000019fH .text$_ZNSt3__16__moveB6v15007INS_17_ClassicAlgPolicyENS_16reverse_iteratorIPNS_17reference_wrapperI7RikishiEEEES7_S7_EENS_9enable_ifIXaaaasr21is_copy_constructibleIT0_EE5valuesr21is_copy_constructibleIT1_EE5valuesr21is_copy_constructibleIT2_EE5valueENS_4pairIS9_SB_EEE4typeES9_SA_SB_ CODE
 0001:000509e0 0000010aH .text$_ZNSt3__111__move_implB6v15007INS_17_ClassicAlgPolicyEPNS_17reference_wrapperI7RikishiEES5_Li0EEENS_4pairINS_16reverse_iteratorIT0_EENS7_IT1_EEEES9_S9_SB_ CODE
 0001:00050af0 00000036H .text$_ZNSt3__113__unwrap_iterB6v15007INS_16reverse_iteratorIPNS_17reference_wrapperI7RikishiEEEENS_18__unwrap_iter_implIS6_Lb0EEELi0EEEDTclsrT0_8__unwrapclsr3stdE7declvalIT_EEEESA_ CODE
 0001:00050b30 00000034H .text$_ZNSt3__19make_pairB6v15007INS_16reverse_iteratorIPNS_17reference_wrapperI7RikishiEEEES6_EENS_4pairINS_18__unwrap_ref_decayIT_E4typeENS8_IT0_E4typeEEEOS9_OSC_ CODE
 0001:00050b70 00000049H .text$_ZNSt3__113__rewrap_iterB6v15007INS_16reverse_iteratorIPNS_17reference_wrapperI7RikishiEEEES6_NS_18__unwrap_iter_implIS6_Lb0EEEEET_S9_T0_ CODE
 0001:00050bc0 00000019H .text$_ZNSt3__113__unwrap_iterB6v15007IPNS_17reference_wrapperI7RikishiEENS_18__unwrap_iter_implIS4_Lb1EEELi0EEEDTclsrT0_8__unwrapclsr3stdE7declvalIT_EEEES8_ CODE
 0001:00050be0 0000009dH .text$_ZNSt3__111__move_implB6v15007INS_17_ClassicAlgPolicyENS_17reference_wrapperI7RikishiEES4_vEENS_4pairIPT0_PT1_EES7_S7_S9_ CODE
 0001:00050c80 00000034H .text$_ZNSt3__19make_pairB6v15007IRNS_16reverse_iteratorIPNS_17reference_wrapperI7RikishiEEEES6_EENS_4pairINS_18__unwrap_ref_decayIT_E4typeENS9_IT0_E4typeEEEOSA_OSD_ CODE
 0001:00050cc0 0000003aH .text$_ZNSt3__113__rewrap_iterB6v15007IPNS_17reference_wrapperI7RikishiEES4_NS_18__unwrap_iter_implIS4_Lb1EEEEET_S7_T0_ CODE
 0001:00050d00 00000019H .text$_ZNSt3__118__unwrap_iter_implIPNS_17reference_wrapperI7RikishiEELb1EE8__unwrapB6v15007ES4_ CODE
 0001:00050d20 00000034H .text$_ZNSt3__19make_pairB6v15007IPNS_17reference_wrapperI7RikishiEES4_EENS_4pairINS_18__unwrap_ref_decayIT_E4typeENS6_IT0_E4typeEEEOS7_OSA_ CODE
 0001:00050d60 0000002dH .text$_ZNSt3__14pairIPNS_17reference_wrapperI7RikishiEES4_EC1B6v15007IS4_S4_LPv0EEEOT_OT0_ CODE
 0001:00050d90 00000032H .text$_ZNSt3__14pairIPNS_17reference_wrapperI7RikishiEES4_EC2B6v15007IS4_S4_LPv0EEEOT_OT0_ CODE
 0001:00050dd0 0000002dH .text$_ZNSt3__14pairINS_16reverse_iteratorIPNS_17reference_wrapperI7RikishiEEEES6_EC1B6v15007IRS6_S6_LPv0EEEOT_OT0_ CODE
 0001:00050e00 00000042H .text$_ZNSt3__14pairINS_16reverse_iteratorIPNS_17reference_wrapperI7RikishiEEEES6_EC2B6v15007IRS6_S6_LPv0EEEOT_OT0_ CODE
 0001:00050e50 0000004cH .text$_ZNSt3__118__unwrap_iter_implIPNS_17reference_wrapperI7RikishiEELb1EE8__rewrapB6v15007ES4_S4_ CODE
 0001:00050ea0 00000018H .text$_ZNSt3__118__unwrap_iter_implINS_16reverse_iteratorIPNS_17reference_wrapperI7RikishiEEEELb0EE8__unwrapB6v15007ES6_ CODE
 0001:00050ec0 0000002dH .text$_ZNSt3__14pairINS_16reverse_iteratorIPNS_17reference_wrapperI7RikishiEEEES6_EC1B6v15007IS6_S6_LPv0EEEOT_OT0_ CODE
 0001:00050ef0 00000042H .text$_ZNSt3__14pairINS_16reverse_iteratorIPNS_17reference_wrapperI7RikishiEEEES6_EC2B6v15007IS6_S6_LPv0EEEOT_OT0_ CODE
 0001:00050f40 00000018H .text$_ZNSt3__118__unwrap_iter_implINS_16reverse_iteratorIPNS_17reference_wrapperI7RikishiEEEELb0EE8__rewrapB6v15007ES6_S6_ CODE
 0001:00050f60 00000026H .text$_ZNSt3__116reverse_iteratorIPNS_17reference_wrapperI7RikishiEEEC2B6v15007ES4_ CODE
 0001:00050f90 00000075H .text$_ZNSt3__114__split_bufferINS_17reference_wrapperI7RikishiEERNS_9allocatorIS3_EEED2Ev CODE
 0001:00051010 0000001dH .text$_ZNSt3__114__split_bufferINS_17reference_wrapperI7RikishiEERNS_9allocatorIS3_EEE5clearB6v15007Ev CODE
 0001:00051030 0000002fH .text$_ZNKSt3__114__split_bufferINS_17reference_wrapperI7RikishiEERNS_9allocatorIS3_EEE8capacityB6v15007Ev CODE
 0001:00051060 00000028H .text$_ZNSt3__114__split_bufferINS_17reference_wrapperI7RikishiEERNS_9allocatorIS3_EEE17__destruct_at_endB6v15007EPS3_ CODE
 0001:00051090 0000007eH .text$_ZNSt3__114__split_bufferINS_17reference_wrapperI7RikishiEERNS_9allocatorIS3_EEE17__destruct_at_endB6v15007EPS3_NS_17integral_constantIbLb0EEE CODE
 0001:00051110 0000001dH .text$_ZNKSt3__114__split_bufferINS_17reference_wrapperI7RikishiEERNS_9allocatorIS3_EEE9__end_capB6v15007Ev CODE
 0001:00051130 00000019H .text$_ZNKSt3__117__compressed_pairIPNS_17reference_wrapperI7RikishiEERNS_9allocatorIS3_EEE5firstB6v15007Ev CODE
 0001:00051150 00000028H .text$_ZNSt3__117reference_wrapperI7RikishiEC2B6v15007IRS1_vEEOT_ CODE
 0001:00051180 00000021H .text$_ZN6System3SetINS_7Uitypes10TMsgDlgBtnELS2_0ELS2_11EEC2Ev CODE
 0001:000511b0 0000005eH .text$_ZN6System15DelphiInterfaceIN3Fmx7Dialogs21TInputCloseDialogProcEEaSEPS3_ CODE
 0001:00051210 00000019H .text$_ZN6System20TCppInterfacedObjectIN3Fmx7Dialogs21TInputCloseDialogProcE8IUnknownNS_10IInterfaceEE6AddRefEv CODE
 0001:00051230 00000019H .text$_ZN6System20TCppInterfacedObjectIN3Fmx7Dialogs21TInputCloseDialogProcE8IUnknownNS_10IInterfaceEE7ReleaseEv CODE
 0001:00051250 0000002dH .text$_ZN6System20TCppInterfacedObjectIN3Fmx7Dialogs21TInputCloseDialogProcE8IUnknownNS_10IInterfaceEE14QueryInterfaceERK5_GUIDPPv CODE
 0001:00051280 0000002dH .text$_ZThn24_N6System20TCppInterfacedObjectIN3Fmx7Dialogs21TInputCloseDialogProcE8IUnknownNS_10IInterfaceEE14QueryInterfaceERK5_GUIDPPv CODE
 0001:000512b0 00000013H .text$_ZThn24_N6System20TCppInterfacedObjectIN3Fmx7Dialogs21TInputCloseDialogProcE8IUnknownNS_10IInterfaceEE6AddRefEv CODE
 0001:000512d0 00000013H .text$_ZThn24_N6System20TCppInterfacedObjectIN3Fmx7Dialogs21TInputCloseDialogProcE8IUnknownNS_10IInterfaceEE7ReleaseEv CODE
 0001:000512f0 0000002dH .text$_ZThn32_N6System20TCppInterfacedObjectIN3Fmx7Dialogs21TInputCloseDialogProcE8IUnknownNS_10IInterfaceEE14QueryInterfaceERK5_GUIDPPv CODE
 0001:00051320 00000013H .text$_ZThn32_N6System20TCppInterfacedObjectIN3Fmx7Dialogs21TInputCloseDialogProcE8IUnknownNS_10IInterfaceEE6AddRefEv CODE
 0001:00051340 00000013H .text$_ZThn32_N6System20TCppInterfacedObjectIN3Fmx7Dialogs21TInputCloseDialogProcE8IUnknownNS_10IInterfaceEE7ReleaseEv CODE
 0001:00051360 0000002dH .text$_ZThn40_N6System20TCppInterfacedObjectIN3Fmx7Dialogs21TInputCloseDialogProcE8IUnknownNS_10IInterfaceEE14QueryInterfaceERK5_GUIDPPv CODE
 0001:00051390 00000013H .text$_ZThn40_N6System20TCppInterfacedObjectIN3Fmx7Dialogs21TInputCloseDialogProcE8IUnknownNS_10IInterfaceEE6AddRefEv CODE
 0001:000513b0 00000013H .text$_ZThn40_N6System20TCppInterfacedObjectIN3Fmx7Dialogs21TInputCloseDialogProcE8IUnknownNS_10IInterfaceEE7ReleaseEv CODE
 0001:000513d0 0000004cH .text$_ZN6System20TCppInterfacedObjectIN3Fmx7Dialogs21TInputCloseDialogProcE8IUnknownNS_10IInterfaceEED0Ev CODE
 0001:00051420 000000d0H .text$_ZN6System20TCppInterfacedObjectIN3Fmx7Dialogs21TInputCloseDialogProcE8IUnknownNS_10IInterfaceEEC3Ev CODE
 0001:000514f0 0000006bH .text$_ZN6System17TInterfacedObjectC3Ev CODE
 0001:00051560 00000030H .text$_ZN3Fmx7Dialogs21TInputCloseDialogProcC2Ev CODE
 0001:00051590 00000019H .text$_ZN8IUnknownC2Ev  CODE
 0001:000515b0 00000030H .text$_ZN6System10IInterfaceC2Ev CODE
 0001:000515e0 0000004cH .text$_ZN6System17TInterfacedObjectD0Ev CODE
 0001:00051630 0000010aH .text$_ZN6System15DelphiInterfaceIN3Fmx7Dialogs21TInputCloseDialogProcEED2Ev CODE
 0001:00051740 00000030H .text$_ZN6System15DelphiInterfaceIN3Fmx7Dialogs21TInputCloseDialogProcEEC1Ev CODE
 0001:00051770 00000023H .text$_ZN6System15DelphiInterfaceIN3Fmx7Dialogs21TInputCloseDialogProcEEC1ERKS4_ CODE
 0001:000517a0 00000012H .text$_ZN6System15DelphiInterfaceIN3Fmx7Dialogs21TInputCloseDialogProcEEC2Ev CODE
 0001:000517c0 0000004aH .text$_ZN6System15DelphiInterfaceIN3Fmx7Dialogs21TInputCloseDialogProcEEC2ERKS4_ CODE
 0001:00051810 000000b3H .text$_ZNKSt3__16vectorINS_12basic_stringIcNS_11char_traitsIcEENS_9allocatorIcEEEENS4_IS6_EEE17__annotate_shrinkB6v15007Ey CODE
 0001:000518d0 00000137H .text$_ZNSt3__16vectorINS_4pairIPiS2_EENS_9allocatorIS3_EEEC2B6v15007ESt16initializer_listIS3_E CODE
 0001:00051a10 0000002dH .text$_ZNSt3__117__compressed_pairIPNS_4pairIPiS2_EENS_9allocatorIS3_EEEC1B6v15007IDnNS_18__default_init_tagEEEOT_OT0_ CODE
 0001:00051a40 00000034H .text$_ZNSt3__118__make_transactionB6v15007INS_6vectorINS_4pairIPiS3_EENS_9allocatorIS4_EEE16__destroy_vectorEEENS_13__transactionIT_EESA_ CODE
 0001:00051a80 00000023H .text$_ZNSt3__16vectorINS_4pairIPiS2_EENS_9allocatorIS3_EEE16__destroy_vectorC1ERS6_ CODE
 0001:00051ab0 00000007H .text$_ZNSt3__119__debug_db_insert_cB6v15007INS_6vectorINS_4pairIPiS3_EENS_9allocatorIS4_EEEEEEvPT_ CODE
 0001:00051ac0 0000000fH .text$_ZNKSt16initializer_listINSt3__14pairIPiS2_EEE4sizeB6v15007Ev CODE
 0001:00051ad0 000000a9H .text$_ZNSt3__16vectorINS_4pairIPiS2_EENS_9allocatorIS3_EEE11__vallocateB6v15007Ey CODE
 0001:00051b80 00000099H .text$_ZNSt3__16vectorINS_4pairIPiS2_EENS_9allocatorIS3_EEE18__construct_at_endIPKS3_EENS_9enable_ifIXsr27__is_cpp17_forward_iteratorIT_EE5valueEvE4typeESB_SB_y CODE
 0001:00051c20 0000000eH .text$_ZNKSt16initializer_listINSt3__14pairIPiS2_EEE5beginB6v15007Ev CODE
 0001:00051c30 00000019H .text$_ZNKSt16initializer_listINSt3__14pairIPiS2_EEE3endB6v15007Ev CODE
 0001:00051c50 0000000fH .text$_ZNSt3__113__transactionINS_6vectorINS_4pairIPiS3_EENS_9allocatorIS4_EEE16__destroy_vectorEE10__completeB6v15007Ev CODE
 0001:00051c60 00000019H .text$_ZNSt3__113__transactionINS_6vectorINS_4pairIPiS3_EENS_9allocatorIS4_EEE16__destroy_vectorEED1B6v15007Ev CODE
 0001:00051c80 0000003bH .text$_ZNSt3__117__compressed_pairIPNS_4pairIPiS2_EENS_9allocatorIS3_EEEC2B6v15007IDnNS_18__default_init_tagEEEOT_OT0_ CODE
 0001:00051cc0 0000001eH .text$_ZNSt3__122__compressed_pair_elemIPNS_4pairIPiS2_EELi0ELb0EEC2B6v15007IDnvEEOT_ CODE
 0001:00051ce0 0000001dH .text$_ZNSt3__122__compressed_pair_elemINS_9allocatorINS_4pairIPiS3_EEEELi1ELb1EEC2B6v15007ENS_18__default_init_tagE CODE
 0001:00051d00 00000019H .text$_ZNSt3__19allocatorINS_4pairIPiS2_EEEC2B6v15007Ev CODE
 0001:00051d20 00000007H .text$_ZNSt3__116__non_trivial_ifILb1ENS_9allocatorINS_4pairIPiS3_EEEEEC2B6v15007Ev CODE
 0001:00051d30 00000023H .text$_ZNSt3__113__transactionINS_6vectorINS_4pairIPiS3_EENS_9allocatorIS4_EEE16__destroy_vectorEEC1B6v15007ES8_ CODE
 0001:00051d60 00000022H .text$_ZNSt3__113__transactionINS_6vectorINS_4pairIPiS3_EENS_9allocatorIS4_EEE16__destroy_vectorEEC2B6v15007ES8_ CODE
 0001:00051d90 0000001eH .text$_ZNSt3__16vectorINS_4pairIPiS2_EENS_9allocatorIS3_EEE16__destroy_vectorC2ERS6_ CODE
 0001:00051db0 00000059H .text$_ZNKSt3__16vectorINS_4pairIPiS2_EENS_9allocatorIS3_EEE8max_sizeEv CODE
 0001:00051e10 00000016H .text$_ZNKSt3__16vectorINS_4pairIPiS2_EENS_9allocatorIS3_EEE20__throw_length_errorB6v15007Ev CODE
 0001:00051e30 0000004dH .text$_ZNSt3__119__allocate_at_leastB6v15007INS_9allocatorINS_4pairIPiS3_EEEEEENS_19__allocation_resultINS_16allocator_traitsIT_E7pointerEEERS8_y CODE
 0001:00051e80 0000001dH .text$_ZNSt3__16vectorINS_4pairIPiS2_EENS_9allocatorIS3_EEE7__allocB6v15007Ev CODE
 0001:00051ea0 0000001dH .text$_ZNSt3__16vectorINS_4pairIPiS2_EENS_9allocatorIS3_EEE9__end_capB6v15007Ev CODE
 0001:00051ec0 000000b6H .text$_ZNKSt3__16vectorINS_4pairIPiS2_EENS_9allocatorIS3_EEE14__annotate_newB6v15007Ey CODE
 0001:00051f80 00000019H .text$_ZNSt3__116allocator_traitsINS_9allocatorINS_4pairIPiS3_EEEEE8max_sizeB6v15007IS5_vEEyRKS5_ CODE
 0001:00051fa0 0000001dH .text$_ZNKSt3__16vectorINS_4pairIPiS2_EENS_9allocatorIS3_EEE7__allocB6v15007Ev CODE
 0001:00051fc0 00000011H .text$_ZNKSt3__19allocatorINS_4pairIPiS2_EEE8max_sizeB6v15007Ev CODE
 0001:00051fe0 00000019H .text$_ZNKSt3__117__compressed_pairIPNS_4pairIPiS2_EENS_9allocatorIS3_EEE6secondB6v15007Ev CODE
 0001:00052000 0000000bH .text$_ZNKSt3__122__compressed_pair_elemINS_9allocatorINS_4pairIPiS3_EEEELi1ELb1EE5__getB6v15007Ev CODE
 0001:00052010 00000051H .text$_ZNSt3__19allocatorINS_4pairIPiS2_EEE8allocateB6v15007Ey CODE
 0001:00052070 00000019H .text$_ZNSt3__117__compressed_pairIPNS_4pairIPiS2_EENS_9allocatorIS3_EEE6secondB6v15007Ev CODE
 0001:00052090 0000000bH .text$_ZNSt3__122__compressed_pair_elemINS_9allocatorINS_4pairIPiS3_EEEELi1ELb1EE5__getB6v15007Ev CODE
 0001:000520a0 00000019H .text$_ZNSt3__117__compressed_pairIPNS_4pairIPiS2_EENS_9allocatorIS3_EEE5firstB6v15007Ev CODE
 0001:000520c0 0000000bH .text$_ZNSt3__122__compressed_pair_elemIPNS_4pairIPiS2_EELi0ELb0EE5__getB6v15007Ev CODE
 0001:000520d0 00000021H .text$_ZNKSt3__16vectorINS_4pairIPiS2_EENS_9allocatorIS3_EEE31__annotate_contiguous_containerB6v15007EPKvS8_S8_S8_ CODE
 0001:00052100 0000001cH .text$_ZNKSt3__16vectorINS_4pairIPiS2_EENS_9allocatorIS3_EEE4dataB6v15007Ev CODE
 0001:00052120 0000002fH .text$_ZNKSt3__16vectorINS_4pairIPiS2_EENS_9allocatorIS3_EEE8capacityB6v15007Ev CODE
 0001:00052150 0000000bH .text$_ZNSt3__112__to_addressB6v15007INS_4pairIPiS2_EEEEPT_S5_ CODE
 0001:00052160 0000001dH .text$_ZNKSt3__16vectorINS_4pairIPiS2_EENS_9allocatorIS3_EEE9__end_capB6v15007Ev CODE
 0001:00052180 00000019H .text$_ZNKSt3__117__compressed_pairIPNS_4pairIPiS2_EENS_9allocatorIS3_EEE5firstB6v15007Ev CODE
 0001:000521a0 0000000bH .text$_ZNKSt3__122__compressed_pair_elemIPNS_4pairIPiS2_EELi0ELb0EE5__getB6v15007Ev CODE
 0001:000521b0 0000002dH .text$_ZNSt3__16vectorINS_4pairIPiS2_EENS_9allocatorIS3_EEE21_ConstructTransactionC1ERS6_y CODE
 0001:000521e0 0000010cH .text$_ZNSt3__130__uninitialized_allocator_copyB6v15007INS_9allocatorINS_4pairIPiS3_EEEEPKS4_S7_PS4_EET2_RT_T0_T1_S9_ CODE
 0001:000522f0 00000019H .text$_ZNSt3__16vectorINS_4pairIPiS2_EENS_9allocatorIS3_EEE21_ConstructTransactionD1Ev CODE
 0001:00052310 00000049H .text$_ZNSt3__16vectorINS_4pairIPiS2_EENS_9allocatorIS3_EEE21_ConstructTransactionC2ERS6_y CODE
 0001:00052360 0000002dH .text$_ZNSt3__116allocator_traitsINS_9allocatorINS_4pairIPiS3_EEEEE9constructB6v15007IS4_JRKS4_EvEEvRS5_PT_DpOT0_ CODE
 0001:00052390 00000037H .text$_ZNSt3__129_AllocatorDestroyRangeReverseINS_9allocatorINS_4pairIPiS3_EEEEPS4_EC1B6v15007ERS5_RS6_S9_ CODE
 0001:000523d0 0000005cH .text$_ZNKSt3__129_AllocatorDestroyRangeReverseINS_9allocatorINS_4pairIPiS3_EEEEPS4_EclB6v15007Ev CODE
 0001:00052430 0000002eH .text$_ZNSt3__19allocatorINS_4pairIPiS2_EEE9constructB6v15007IS3_JRKS3_EEEvPT_DpOT0_ CODE
 0001:00052460 0000003aH .text$_ZNSt3__129_AllocatorDestroyRangeReverseINS_9allocatorINS_4pairIPiS3_EEEEPS4_EC2B6v15007ERS5_RS6_S9_ CODE
 0001:000524a0 00000064H .text$_ZNSt3__119__allocator_destroyB6v15007INS_9allocatorINS_4pairIPiS3_EEEENS_16reverse_iteratorIPS4_EES8_EEvRT_T0_T1_ CODE
 0001:00052510 00000023H .text$_ZNSt3__116reverse_iteratorIPNS_4pairIPiS2_EEEC1B6v15007ES4_ CODE
 0001:00052540 0000003fH .text$_ZNSt3__1neB6v15007IPNS_4pairIPiS2_EES4_EEbRKNS_16reverse_iteratorIT_EERKNS5_IT0_EE CODE
 0001:00052580 00000023H .text$_ZNSt3__116allocator_traitsINS_9allocatorINS_4pairIPiS3_EEEEE7destroyB6v15007IS4_vEEvRS5_PT_ CODE
 0001:000525b0 00000019H .text$_ZNSt3__112__to_addressB6v15007INS_16reverse_iteratorIPNS_4pairIPiS3_EEEEvEENS_5decayIDTclsr19__to_address_helperIT_EE6__callcl7declvalIRKS8_EEEEE4typeESA_ CODE
 0001:000525d0 00000017H .text$_ZNSt3__116reverse_iteratorIPNS_4pairIPiS2_EEEppB6v15007Ev CODE
 0001:000525f0 0000000fH .text$_ZNKSt3__116reverse_iteratorIPNS_4pairIPiS2_EEE4baseB6v15007Ev CODE
 0001:00052600 00000012H .text$_ZNSt3__19allocatorINS_4pairIPiS2_EEE7destroyB6v15007EPS3_ CODE
 0001:00052620 00000036H .text$_ZNSt3__119__to_address_helperINS_16reverse_iteratorIPNS_4pairIPiS3_EEEEvE6__callB6v15007ERKS6_ CODE
 0001:00052660 00000019H .text$_ZNKSt3__116reverse_iteratorIPNS_4pairIPiS2_EEEptB6v15007Ev CODE
 0001:00052680 00000027H .text$_ZNKSt3__116reverse_iteratorIPNS_4pairIPiS2_EEEdeB6v15007Ev CODE
 0001:000526b0 00000026H .text$_ZNSt3__116reverse_iteratorIPNS_4pairIPiS2_EEEC2B6v15007ES4_ CODE
 0001:000526e0 00000016H .text$_ZNSt3__16vectorINS_4pairIPiS2_EENS_9allocatorIS3_EEE21_ConstructTransactionD2Ev CODE
 0001:00052700 0000003fH .text$_ZNSt3__113__transactionINS_6vectorINS_4pairIPiS3_EENS_9allocatorIS4_EEE16__destroy_vectorEED2B6v15007Ev CODE
 0001:00052740 0000008cH .text$_ZNSt3__16vectorINS_4pairIPiS2_EENS_9allocatorIS3_EEE16__destroy_vectorclB6v15007Ev CODE
 0001:000527d0 000000c3H .text$_ZNKSt3__16vectorINS_4pairIPiS2_EENS_9allocatorIS3_EEE17__annotate_deleteB6v15007Ev CODE
 0001:000528a0 00000007H .text$_ZNSt3__118__debug_db_erase_cB6v15007INS_6vectorINS_4pairIPiS3_EENS_9allocatorIS4_EEEEEEvPT_ CODE
 0001:000528b0 0000001cH .text$_ZNSt3__16vectorINS_4pairIPiS2_EENS_9allocatorIS3_EEE7__clearB6v15007Ev CODE
 0001:000528d0 0000002dH .text$_ZNSt3__116allocator_traitsINS_9allocatorINS_4pairIPiS3_EEEEE10deallocateB6v15007ERS5_PS4_y CODE
 0001:00052900 00000086H .text$_ZNSt3__16vectorINS_4pairIPiS2_EENS_9allocatorIS3_EEE22__base_destruct_at_endB6v15007EPS3_ CODE
 0001:00052990 0000003fH .text$_ZNSt3__19allocatorINS_4pairIPiS2_EEE10deallocateB6v15007EPS3_y CODE
 0001:000529d0 0000003aH .text$_ZNSt3__16vectorINS_4pairIPiS2_EENS_9allocatorIS3_EEED2B6v15007Ev CODE
 0001:00052a10 00000099H .text$_ZNSt3__16vectorINS_12basic_stringIcNS_11char_traitsIcEENS_9allocatorIcEEEENS4_IS6_EEE22__construct_one_at_endB6v15007IJS6_EEEvDpOT_ CODE
 0001:00052ab0 000000eeH .text$_ZNSt3__16vectorINS_12basic_stringIcNS_11char_traitsIcEENS_9allocatorIcEEEENS4_IS6_EEE21__push_back_slow_pathIS6_EEvOT_ CODE
 0001:00052ba0 000000f7H .text                   CODE
 0001:00052ca0 0000004cH .text$_ZN10TDohyoFormD0Ev CODE
 0001:00052cf0 000046a9H .text                   CODE
 0001:000573a0 00000046H .text$_ZNSt3__1plB6v15007IcNS_11char_traitsIcEENS_9allocatorIcEEEENS_12basic_stringIT_T0_T1_EEOS9_SA_ CODE
 0001:000573f0 00000046H .text$_ZNSt3__1plB6v15007IcNS_11char_traitsIcEENS_9allocatorIcEEEENS_12basic_stringIT_T0_T1_EEOS9_PKS6_ CODE
 0001:00057440 00000025H .text$_ZNSt3__16vectorI6PlayerNS_9allocatorIS1_EEE5beginB6v15007Ev CODE
 0001:00057470 00000026H .text$_ZNSt3__16vectorI6PlayerNS_9allocatorIS1_EEE3endB6v15007Ev CODE
 0001:000574a0 00000029H .text$_ZNSt3__1neB6v15007IP6PlayerEEbRKNS_11__wrap_iterIT_EES7_ CODE
 0001:000574d0 0000000eH .text$_ZNKSt3__111__wrap_iterIP6PlayerEdeB6v15007Ev CODE
 0001:000574e0 00000015H .text$_ZNSt3__111__wrap_iterIP6PlayerEppB6v15007Ev CODE
 0001:00057500 00000019H .text$_ZNKSt3__16vectorI6PlayerNS_9allocatorIS1_EEE4sizeB6v15007Ev CODE
 0001:00057520 00000025H .text$_ZNSt3__16vectorI6PlayerNS_9allocatorIS1_EEEixB6v15007Ey CODE
 0001:00057550 00000048H .text$_ZN6Player8DeductAPEi CODE
 0001:000575a0 0000004cH .text$_ZN11TNoboruFormD0Ev CODE
 0001:000575f0 0000003fH .text$_ZNSt3__1eqB6v15007IP6PlayerEEbRKNS_11__wrap_iterIT_EES7_ CODE
 0001:00057630 0000000eH .text$_ZNKSt3__111__wrap_iterIP6PlayerE4baseB6v15007Ev CODE
 0001:00057640 0000002dH .text$_ZNSt3__111__wrap_iterIP6PlayerEC1B6v15007EPKvS2_ CODE
 0001:00057670 00000023H .text$_ZNSt3__111__wrap_iterIP6PlayerEC2B6v15007EPKvS2_ CODE
 0001:000576a0 000003ccH .text                   CODE
 0001:00057a70 00000023H .text$_ZN6System7Classes15TComponentClassC1EPNS_10TMetaClassE CODE
 0001:00057aa0 00000023H .text$_ZN6System7Classes15TComponentClassC2EPNS_10TMetaClassE CODE
 0001:00057ad0 0000001eH .text$_ZN6System15DelphiMetaClassINS_7Classes15TComponentClassEEC2EPNS_10TMetaClassE CODE
 0001:00057af0 00000075H .text                   CODE
 0001:00057b70 0000004cH .text$_ZN12TStorageFormD0Ev CODE
 0001:00057bc0 0000e655H .text                   CODE
 0001:00066220 00000019H .text$_ZNSt3__16vectorI6PlayerNS_9allocatorIS1_EEEC1B6v15007Ev CODE
 0001:00066240 00000019H .text$_ZNSt3__16vectorI6PlayerNS_9allocatorIS1_EEED1B6v15007Ev CODE
 0001:00066260 00000023H .text$_ZNSt3__16vectorI7RikishiNS_9allocatorIS1_EEEC1Ey CODE
 0001:00066290 00000019H .text$_ZNSt3__16vectorIjNS_9allocatorIjEEEC1B6v15007ESt16initializer_listIjE CODE
 0001:000662b0 00000019H .text$_ZNSt3__16vectorIjNS_9allocatorIjEEED1B6v15007Ev CODE
 0001:000662d0 00000019H .text$_ZNSt3__16vectorIjNS_9allocatorIjEEEC1B6v15007Ev CODE
 0001:000662f0 00000031H .text$_ZNSt3__125uniform_real_distributionIdEC1Edd CODE
 0001:00066330 00000026H .text$_ZNSt3__125uniform_real_distributionIdEclB6v15007INS_23mersenne_twister_engineIjLy32ELy624ELy397ELy31ELj2567483615ELy11ELj4294967295ELy7ELj2636928640ELy15ELj4022730752ELy18ELj1812433253EEEEEdRT_ CODE
 0001:00066360 00000167H .text$_ZNSt3__114basic_ifstreamIcNS_11char_traitsIcEEEC1ERKNS_12basic_stringIcS2_NS_9allocatorIcEEEEj CODE
 0001:000664d0 00000021H .text$_ZNKSt3__114basic_ifstreamIcNS_11char_traitsIcEEE7is_openEv CODE
 0001:00066500 00000050H .text$_ZNSt3__17getlineB6v15007IcNS_11char_traitsIcEENS_9allocatorIcEEEERNS_13basic_istreamIT_T0_EES9_RNS_12basic_stringIS6_S7_T1_EE CODE
 0001:00066550 0000001fH .text$_ZNKSt3__19basic_iosIcNS_11char_traitsIcEEEcvbB6v15007Ev CODE
 0001:00066570 00000042H .text$_ZNSt3__114basic_ifstreamIcNS_11char_traitsIcEEE5closeEv CODE
 0001:000665c0 00000023H .text$_ZNSt3__14swapB6v15007IcNS_11char_traitsIcEENS_9allocatorIcEEEEvRNS_12basic_stringIT_T0_T1_EESA_ CODE
 0001:000665f0 00000025H .text$_ZNSt3__16vectorINS_12basic_stringIcNS_11char_traitsIcEENS_9allocatorIcEEEENS4_IS6_EEE5beginB6v15007Ev CODE
 0001:00066620 00000026H .text$_ZNSt3__16vectorINS_12basic_stringIcNS_11char_traitsIcEENS_9allocatorIcEEEENS4_IS6_EEE3endB6v15007Ev CODE
 0001:00066650 00000029H .text$_ZNSt3__1neB6v15007IPNS_12basic_stringIcNS_11char_traitsIcEENS_9allocatorIcEEEEEEbRKNS_11__wrap_iterIT_EESC_ CODE
 0001:00066680 0000000eH .text$_ZNKSt3__111__wrap_iterIPNS_12basic_stringIcNS_11char_traitsIcEENS_9allocatorIcEEEEEdeB6v15007Ev CODE
 0001:00066690 0000003fH .text$_ZNSt3__1eqB6v15007IPNS_12basic_stringIcNS_11char_traitsIcEENS_9allocatorIcEEEEEEbRKNS_11__wrap_iterIT_EESC_ CODE
 0001:000666d0 00000080H .text$_ZNSt3__14findB6v15007INS_11__wrap_iterIPNS_12basic_stringIcNS_11char_traitsIcEENS_9allocatorIcEEEEEES7_EET_SA_SA_RKT0_ CODE
 0001:00066750 00000015H .text$_ZNSt3__111__wrap_iterIPNS_12basic_stringIcNS_11char_traitsIcEENS_9allocatorIcEEEEEppB6v15007Ev CODE
 0001:00066770 00000036H .text$_ZNSt3__114basic_ifstreamIcNS_11char_traitsIcEEED1Ev CODE
 0001:000667b0 00000019H .text$_ZNSt3__16vectorIiNS_9allocatorIiEEEC1B6v15007ESt16initializer_listIiE CODE
 0001:000667d0 00000025H .text$_ZNSt3__16vectorIiNS_9allocatorIiEEEixB6v15007Ey CODE
 0001:00066800 00000019H .text$_ZNSt3__16vectorIiNS_9allocatorIiEEED1B6v15007Ev CODE
 0001:00066820 00000023H .text$_ZNSt3__16vectorIjNS_9allocatorIjEEEC1ERKS3_ CODE
 0001:00066850 00000025H .text$_ZNSt3__16vectorIjNS_9allocatorIjEEE5beginB6v15007Ev CODE
 0001:00066880 00000026H .text$_ZNSt3__16vectorIjNS_9allocatorIjEEE3endB6v15007Ev CODE
 0001:000668b0 00000029H .text$_ZNSt3__1neB6v15007IPjEEbRKNS_11__wrap_iterIT_EES6_ CODE
 0001:000668e0 0000000eH .text$_ZNKSt3__111__wrap_iterIPjEdeB6v15007Ev CODE
 0001:000668f0 000000e7H .text$_ZNSt3__16vectorIjNS_9allocatorIjEEE5eraseENS_11__wrap_iterIPKjEES7_ CODE
 0001:000669e0 000000f5H .text$_ZNSt3__16removeINS_11__wrap_iterIPjEEjEET_S4_S4_RKT0_ CODE
 0001:00066ae0 0000002dH .text$_ZNSt3__111__wrap_iterIPKjEC1B6v15007IPjEERKNS0_IT_EEPNS_9enable_ifIXsr14is_convertibleIS6_S2_EE5valueEvE4typeE CODE
 0001:00066b10 00000015H .text$_ZNSt3__111__wrap_iterIPjEppB6v15007Ev CODE
 0001:00066b30 0000001aH .text$_ZNKSt3__16vectorIjNS_9allocatorIjEEE5emptyB6v15007Ev CODE
 0001:00066b50 00000053H .text$_ZNSt3__16vectorIjNS_9allocatorIjEEE5clearB6v15007Ev CODE
 0001:00066bb0 00000057H .text$_ZNSt3__16vectorIjNS_9allocatorIjEEEaSB6v15007ERKS3_ CODE
 0001:00066c10 00000019H .text$_ZNKSt3__16vectorIjNS_9allocatorIjEEE4sizeB6v15007Ev CODE
 0001:00066c30 00000025H .text$_ZNSt3__16vectorIjNS_9allocatorIjEEEixB6v15007Ey CODE
 0001:00066c60 00000060H .text$_ZNSt3__16vectorIjNS_9allocatorIjEEE9push_backB6v15007ERKj CODE
 0001:00066cc0 00000044H .text$_ZNSt3__1lsINS_11char_traitsIcEEEERNS_13basic_ostreamIcT_EES6_PKc CODE
 0001:00066d10 00000049H .text$_ZNSt3__1lsIcNS_11char_traitsIcEENS_9allocatorIcEEEERNS_13basic_ostreamIT_T0_EES9_RKNS_12basic_stringIS6_S7_T1_EE CODE
 0001:00066d60 0000001dH .text$_ZNSt3__113basic_ostreamIcNS_11char_traitsIcEEElsB6v15007EPFRS3_S4_E CODE
 0001:00066d80 00000049H .text$_ZNSt3__14endlIcNS_11char_traitsIcEEEERNS_13basic_ostreamIT_T0_EES7_ CODE
 0001:00066dd0 00000019H .text$_Z5floorB6v15007IiENSt3__19enable_ifIXsr3std11is_integralIT_EE5valueEdE4typeES2_ CODE
 0001:00066df0 00000045H .text$_ZNSt3__17shuffleINS_11__wrap_iterIPNS_12basic_stringIcNS_11char_traitsIcEENS_9allocatorIcEEEEEERNS_23mersenne_twister_engineIjLy32ELy624ELy397ELy31ELj2567483615ELy11ELj4294967295ELy7ELj2636928640ELy15ELj4022730752ELy18ELj1812433253EEEEEvT_SD_OT0_ CODE
 0001:00066e40 0000002dH .text$_ZNSt3__14pairINS_12basic_stringIcNS_11char_traitsIcEENS_9allocatorIcEEEEiEC1B6v15007IRA9_KcRiLPv0EEEOT_OT0_ CODE
 0001:00066e70 0000002dH .text$_ZNSt3__14pairINS_12basic_stringIcNS_11char_traitsIcEENS_9allocatorIcEEEEiEC1B6v15007IRA7_KcRiLPv0EEEOT_OT0_ CODE
 0001:00066ea0 0000002dH .text$_ZNSt3__14pairINS_12basic_stringIcNS_11char_traitsIcEENS_9allocatorIcEEEEiEC1B6v15007IRA10_KcRiLPv0EEEOT_OT0_ CODE
 0001:00066ed0 0000002dH .text$_ZNSt3__14pairINS_12basic_stringIcNS_11char_traitsIcEENS_9allocatorIcEEEEiEC1B6v15007IRA6_KcRiLPv0EEEOT_OT0_ CODE
 0001:00066f00 00000019H .text$_ZNSt3__14pairINS_12basic_stringIcNS_11char_traitsIcEENS_9allocatorIcEEEEiED1Ev CODE
 0001:00066f20 00000019H .text$_ZNSt3__16vectorINS_4pairINS_12basic_stringIcNS_11char_traitsIcEENS_9allocatorIcEEEEiEENS5_IS8_EEEC1B6v15007ESt16initializer_listIS8_E CODE
 0001:00066f40 00000025H .text$_ZNSt3__16vectorINS_4pairINS_12basic_stringIcNS_11char_traitsIcEENS_9allocatorIcEEEEiEENS5_IS8_EEE5beginB6v15007Ev CODE
 0001:00066f70 00000026H .text$_ZNSt3__16vectorINS_4pairINS_12basic_stringIcNS_11char_traitsIcEENS_9allocatorIcEEEEiEENS5_IS8_EEE3endB6v15007Ev CODE
 0001:00066fa0 00000025H .text$_ZNSt3__16vectorINS_4pairINS_12basic_stringIcNS_11char_traitsIcEENS_9allocatorIcEEEEiEENS5_IS8_EEEixB6v15007Ey CODE
 0001:00066fd0 00000019H .text$_ZNKSt3__16vectorINS_4pairINS_12basic_stringIcNS_11char_traitsIcEENS_9allocatorIcEEEEiEENS5_IS8_EEE4sizeB6v15007Ev CODE
 0001:00066ff0 00000019H .text$_ZNSt3__16vectorINS_4pairINS_12basic_stringIcNS_11char_traitsIcEENS_9allocatorIcEEEEiEENS5_IS8_EEED1B6v15007Ev CODE
 0001:00067010 00000019H .text$_ZN7RikishiC1Ev   CODE
 0001:00067030 00000060H .text$_ZNSt3__16vectorI7RikishiNS_9allocatorIS1_EEE9push_backB6v15007ERKS1_ CODE
 0001:00067090 0000002dH .text$_ZN6PlayerC1ERKNSt3__112basic_stringIcNS0_11char_traitsIcEENS0_9allocatorIcEEEEi CODE
 0001:000670c0 00000019H .text$_ZNSt3__16vectorI6PlayerNS_9allocatorIS1_EEEC1B6v15007ESt16initializer_listIS1_E CODE
 0001:000670e0 00000019H .text$_ZN6PlayerD1Ev    CODE
 0001:00067100 00000034H .text$_ZNKSt3__111__wrap_iterIP6PlayerEplB6v15007Ex CODE
 0001:00067140 0000002dH .text$_ZNSt3__16vectorI6PlayerNS_9allocatorIS1_EEEC1INS_11__wrap_iterIPS1_EEEET_NS_9enable_ifIXaasr27__is_cpp17_forward_iteratorIS9_EE5valuesr16is_constructibleIS1_NS_15iterator_traitsIS9_E9referenceEEE5valueES9_E4typeE CODE
 0001:00067170 00000031H .text$_ZNSt3__16vectorI6PlayerNS_9allocatorIS1_EEEaSB6v15007EOS4_ CODE
 0001:000671b0 00000025H .text$_ZNSt3__16vectorIP7RikishiNS_9allocatorIS2_EEE5beginB6v15007Ev CODE
 0001:000671e0 00000026H .text$_ZNSt3__16vectorIP7RikishiNS_9allocatorIS2_EEE3endB6v15007Ev CODE
 0001:00067210 00000019H .text$_ZNSt3__16vectorIP7RikishiNS_9allocatorIS2_EEEC1B6v15007Ev CODE
 0001:00067230 00000019H .text$_ZNSt3__16vectorINS_4pairIi7RikishiEENS_9allocatorIS3_EEEC1B6v15007Ev CODE
 0001:00067250 00000060H .text$_ZNSt3__16vectorIP7RikishiNS_9allocatorIS2_EEE9push_backB6v15007EOS2_ CODE
 0001:000672b0 00000060H .text$_ZNSt3__16vectorINS_4pairIi7RikishiEENS_9allocatorIS3_EEE9push_backB6v15007EOS3_ CODE
 0001:00067310 0000002dH .text$_ZNSt3__14pairIi7RikishiEC1B6v15007IiRS1_LPv0EEEOT_OT0_ CODE
 0001:00067340 00000019H .text$_ZNSt3__14pairIi7RikishiED1Ev CODE
 0001:00067360 00000019H .text$_ZNSt3__13mapIiNS_6vectorIP7RikishiNS_9allocatorIS3_EEEENS_4lessIiEENS4_INS_4pairIKiS6_EEEEEC1B6v15007Ev CODE
 0001:00067380 00000029H .text$_ZNSt3__1neB6v15007IPP7RikishiEEbRKNS_11__wrap_iterIT_EES8_ CODE
 0001:000673b0 0000000eH .text$_ZNKSt3__111__wrap_iterIPP7RikishiEdeB6v15007Ev CODE
 0001:000673c0 00000084H .text$_ZNSt3__13mapIiNS_6vectorIP7RikishiNS_9allocatorIS3_EEEENS_4lessIiEENS4_INS_4pairIKiS6_EEEEEixERSA_ CODE
 0001:00067450 00000060H .text$_ZNSt3__16vectorIP7RikishiNS_9allocatorIS2_EEE9push_backB6v15007ERKS2_ CODE
 0001:000674b0 00000015H .text$_ZNSt3__111__wrap_iterIPP7RikishiEppB6v15007Ev CODE
 0001:000674d0 00000031H .text$_ZNSt3__13mapIiNS_6vectorIP7RikishiNS_9allocatorIS3_EEEENS_4lessIiEENS4_INS_4pairIKiS6_EEEEE5beginB6v15007Ev CODE
 0001:00067510 00000031H .text$_ZNSt3__13mapIiNS_6vectorIP7RikishiNS_9allocatorIS3_EEEENS_4lessIiEENS4_INS_4pairIKiS6_EEEEE3endB6v15007Ev CODE
 0001:00067550 00000027H .text$_ZNSt3__1neB6v15007ERKNS_14__map_iteratorINS_15__tree_iteratorINS_12__value_typeIiNS_6vectorIP7RikishiNS_9allocatorIS5_EEEEEEPNS_11__tree_nodeIS9_PvEExEEEESH_ CODE
 0001:00067580 00000021H .text$_ZNKSt3__114__map_iteratorINS_15__tree_iteratorINS_12__value_typeIiNS_6vectorIP7RikishiNS_9allocatorIS5_EEEEEEPNS_11__tree_nodeIS9_PvEExEEEdeB6v15007Ev CODE
 0001:000675b0 00000022H .text$_ZNSt3__114__map_iteratorINS_15__tree_iteratorINS_12__value_typeIiNS_6vectorIP7RikishiNS_9allocatorIS5_EEEEEEPNS_11__tree_nodeIS9_PvEExEEEppB6v15007Ev CODE
 0001:000675e0 00000046H .text$_ZNSt3__16vectorIP7RikishiNS_9allocatorIS2_EEE5clearB6v15007Ev CODE
 0001:00067630 00000051H .text$_ZNSt3__13mapIiNS_6vectorIP7RikishiNS_9allocatorIS3_EEEENS_4lessIiEENS4_INS_4pairIKiS6_EEEEE6rbeginB6v15007Ev CODE
 0001:00067690 00000045H .text$_ZNSt3__1neB6v15007INS_14__map_iteratorINS_15__tree_iteratorINS_12__value_typeIiNS_6vectorIP7RikishiNS_9allocatorIS6_EEEEEEPNS_11__tree_nodeISA_PvEExEEEESG_EEbRKNS_16reverse_iteratorIT_EERKNSH_IT0_EE CODE
 0001:000676e0 00000051H .text$_ZNSt3__13mapIiNS_6vectorIP7RikishiNS_9allocatorIS3_EEEENS_4lessIiEENS4_INS_4pairIKiS6_EEEEE4rendB6v15007Ev CODE
 0001:00067740 00000019H .text$_ZNKSt3__116reverse_iteratorINS_14__map_iteratorINS_15__tree_iteratorINS_12__value_typeIiNS_6vectorIP7RikishiNS_9allocatorIS6_EEEEEEPNS_11__tree_nodeISA_PvEExEEEEEptB6v15007Ev CODE
 0001:00067760 00000026H .text$_ZNSt3__116reverse_iteratorINS_14__map_iteratorINS_15__tree_iteratorINS_12__value_typeIiNS_6vectorIP7RikishiNS_9allocatorIS6_EEEEEEPNS_11__tree_nodeISA_PvEExEEEEEppB6v15007Ev CODE
 0001:00067790 00000019H .text$_ZNSt3__13setINS_12basic_stringIcNS_11char_traitsIcEENS_9allocatorIcEEEENS_4lessIS6_EENS4_IS6_EEEC1B6v15007Ev CODE
 0001:000677b0 00000025H .text$_ZNSt3__16vectorINS_4pairIi7RikishiEENS_9allocatorIS3_EEE5beginB6v15007Ev CODE
 0001:000677e0 00000026H .text$_ZNSt3__16vectorINS_4pairIi7RikishiEENS_9allocatorIS3_EEE3endB6v15007Ev CODE
 0001:00067810 00000029H .text$_ZNSt3__1neB6v15007IPNS_4pairIi7RikishiEEEEbRKNS_11__wrap_iterIT_EES9_ CODE
 0001:00067840 0000000eH .text$_ZNKSt3__111__wrap_iterIPNS_4pairIi7RikishiEEEdeB6v15007Ev CODE
 0001:00067850 0000004dH .text$_ZNSt3__13setINS_12basic_stringIcNS_11char_traitsIcEENS_9allocatorIcEEEENS_4lessIS6_EENS4_IS6_EEE6insertB6v15007ERKS6_ CODE
 0001:000678a0 00000018H .text$_ZNSt3__111__wrap_iterIPNS_4pairIi7RikishiEEEppB6v15007Ev CODE
 0001:000678c0 00000029H .text$_ZNSt3__1eqB6v15007ERKNS_21__tree_const_iteratorINS_12basic_stringIcNS_11char_traitsIcEENS_9allocatorIcEEEEPNS_11__tree_nodeIS6_PvEExEESD_ CODE
 0001:000678f0 0000003bH .text$_ZNSt3__13setINS_12basic_stringIcNS_11char_traitsIcEENS_9allocatorIcEEEENS_4lessIS6_EENS4_IS6_EEE4findB6v15007ERKS6_ CODE
 0001:00067930 00000031H .text$_ZNSt3__13setINS_12basic_stringIcNS_11char_traitsIcEENS_9allocatorIcEEEENS_4lessIS6_EENS4_IS6_EEE3endB6v15007Ev CODE
 0001:00067970 0000001cH .text$_ZNKSt3__111__wrap_iterIPNS_4pairIi7RikishiEEEptB6v15007Ev CODE
 0001:00067990 00000105H .text$_ZN7RikishiaSERKS_ CODE
 0001:00067aa0 00000057H .text$_ZNSt3__16vectorI7RikishiNS_9allocatorIS1_EEEaSB6v15007ERKS4_ CODE
 0001:00067b00 00000019H .text$_ZNSt3__13setINS_12basic_stringIcNS_11char_traitsIcEENS_9allocatorIcEEEENS_4lessIS6_EENS4_IS6_EEED1B6v15007Ev CODE
 0001:00067b20 00000019H .text$_ZNSt3__13mapIiNS_6vectorIP7RikishiNS_9allocatorIS3_EEEENS_4lessIiEENS4_INS_4pairIKiS6_EEEEED1B6v15007Ev CODE
 0001:00067b40 00000019H .text$_ZNSt3__16vectorINS_4pairIi7RikishiEENS_9allocatorIS3_EEED1B6v15007Ev CODE
 0001:00067b60 00000019H .text$_ZNSt3__16vectorIP7RikishiNS_9allocatorIS2_EEED1B6v15007Ev CODE
 0001:00067b80 00000014H .text$_ZN6Player5AddAPEv CODE
 0001:00067ba0 000000f0H .text$_ZNSt3__16vectorI7RikishiNS_9allocatorIS1_EEE5eraseENS_11__wrap_iterIPKS1_EES8_ CODE
 0001:00067c90 0000002dH .text$_ZNSt3__111__wrap_iterIPK7RikishiEC1B6v15007IPS1_EERKNS0_IT_EEPNS_9enable_ifIXsr14is_convertibleIS7_S3_EE5valueEvE4typeE CODE
 0001:00067cc0 000000fcH .text$_ZNK6System11AnsiStringTILt0EE9SubStringEii CODE
 0001:00067dc0 0000002cH .text$_ZN6System11AnsiStringTILt0EEaSERKS1_ CODE
 0001:00067df0 0000004cH .text$_ZN11TMainStreetD0Ev CODE
 0001:00067e40 0000000eH .text$_ZNKSt3__111__wrap_iterIPNS_12basic_stringIcNS_11char_traitsIcEENS_9allocatorIcEEEEE4baseB6v15007Ev CODE
 0001:00067e50 00000059H .text$_ZNSt3__114basic_ifstreamIcNS_11char_traitsIcEEED2Ev CODE
 0001:00067eb0 00000019H .text$_ZTv0_n24_NSt3__114basic_ifstreamIcNS_11char_traitsIcEEED1Ev CODE
 0001:00067ed0 00000028H .text$_ZNSt3__114basic_ifstreamIcNS_11char_traitsIcEEED0Ev CODE
 0001:00067f00 00000019H .text$_ZTv0_n24_NSt3__114basic_ifstreamIcNS_11char_traitsIcEEED0Ev CODE
 0001:00067f20 00000019H .text$_ZNSt3__113basic_filebufIcNS_11char_traitsIcEEED1Ev CODE
 0001:00067f40 000000deH .text$_ZNSt3__113basic_filebufIcNS_11char_traitsIcEEED2Ev CODE
 0001:00068020 00000112H .text$_ZNSt3__113basic_filebufIcNS_11char_traitsIcEEE5closeEv CODE
 0001:00068140 00000028H .text$_ZNSt3__113basic_filebufIcNS_11char_traitsIcEEED0Ev CODE
 0001:00068170 000001c9H .text$_ZNSt3__113basic_filebufIcNS_11char_traitsIcEEE5imbueERKNS_6localeE CODE
 0001:00068340 00000202H .text$_ZNSt3__113basic_filebufIcNS_11char_traitsIcEEE6setbufEPcx CODE
 0001:00068550 000001e4H .text$_ZNSt3__113basic_filebufIcNS_11char_traitsIcEEE7seekoffExNS_8ios_base7seekdirEj CODE
 0001:00068740 000000efH .text$_ZNSt3__113basic_filebufIcNS_11char_traitsIcEEE7seekposENS_4fposI9_MbstatetEEj CODE
 0001:00068830 0000043aH .text$_ZNSt3__113basic_filebufIcNS_11char_traitsIcEEE4syncEv CODE
 0001:00068c70 0000069bH .text$_ZNSt3__113basic_filebufIcNS_11char_traitsIcEEE9underflowEv CODE
 0001:00069310 00000129H .text$_ZNSt3__113basic_filebufIcNS_11char_traitsIcEEE9pbackfailEi CODE
 0001:00069440 000004c9H .text$_ZNSt3__113basic_filebufIcNS_11char_traitsIcEEE8overflowEi CODE
 0001:00069910 0000002dH .text$_ZNSt3__110unique_ptrI6_iobufPFiPS1_EEC1B6v15007ILb1EvEES2_NS_16__dependent_typeINS_27__unique_ptr_deleter_sfinaeIS4_EEXT_EE20__good_rval_ref_typeE CODE
 0001:00069940 0000003bH .text$_ZNSt3__110unique_ptrI6_iobufPFiPS1_EE7releaseB6v15007Ev CODE
 0001:00069980 00000019H .text$_ZNSt3__110unique_ptrI6_iobufPFiPS1_EED1B6v15007Ev CODE
 0001:000699a0 0000003aH .text$_ZNSt3__110unique_ptrI6_iobufPFiPS1_EEC2B6v15007ILb1EvEES2_NS_16__dependent_typeINS_27__unique_ptr_deleter_sfinaeIS4_EEXT_EE20__good_rval_ref_typeE CODE
 0001:000699e0 0000002dH .text$_ZNSt3__117__compressed_pairIP6_iobufPFiS2_EEC1B6v15007IRS2_S4_EEOT_OT0_ CODE
 0001:00069a10 00000040H .text$_ZNSt3__117__compressed_pairIP6_iobufPFiS2_EEC2B6v15007IRS2_S4_EEOT_OT0_ CODE
 0001:00069a50 00000021H .text$_ZNSt3__122__compressed_pair_elemIP6_iobufLi0ELb0EEC2B6v15007IRS2_vEEOT_ CODE
 0001:00069a80 00000021H .text$_ZNSt3__122__compressed_pair_elemIPFiP6_iobufELi1ELb0EEC2B6v15007IS4_vEEOT_ CODE
 0001:00069ab0 00000019H .text$_ZNSt3__117__compressed_pairIP6_iobufPFiS2_EE5firstB6v15007Ev CODE
 0001:00069ad0 0000000bH .text$_ZNSt3__122__compressed_pair_elemIP6_iobufLi0ELb0EE5__getB6v15007Ev CODE
 0001:00069ae0 0000001dH .text$_ZNSt3__110unique_ptrI6_iobufPFiPS1_EED2B6v15007Ev CODE
 0001:00069b00 00000079H .text$_ZNSt3__110unique_ptrI6_iobufPFiPS1_EE5resetB6v15007ES2_ CODE
 0001:00069b80 0000001dH .text$_ZNSt3__117__compressed_pairIP6_iobufPFiS2_EE6secondB6v15007Ev CODE
 0001:00069ba0 0000000bH .text$_ZNSt3__122__compressed_pair_elemIPFiP6_iobufELi1ELb0EE5__getB6v15007Ev CODE
 0001:00069bb0 00000020H .text$_ZNSt3__19use_facetB6v15007INS_7codecvtIcc9_MbstatetEEEERKT_RKNS_6localeE CODE
 0001:00069bd0 0000001eH .text$_ZNKSt3__17codecvtIcc9_MbstatetE13always_noconvB6v15007Ev CODE
 0001:00069bf0 0000003bH .text$_ZNSt3__115basic_streambufIcNS_11char_traitsIcEEE4setgB6v15007EPcS4_S4_ CODE
 0001:00069c30 00000031H .text$_ZNSt3__115basic_streambufIcNS_11char_traitsIcEEE4setpB6v15007EPcS4_ CODE
 0001:00069c70 00000028H .text$_ZNSt3__13maxB6v15007IxEERKT_S3_S3_ CODE
 0001:00069ca0 00000057H .text$_ZNSt3__13maxB6v15007IxNS_6__lessIxxEEEERKT_S5_S5_T0_ CODE
 0001:00069d00 0000002eH .text$_ZNKSt3__16__lessIxxEclB6v15007ERKxS3_ CODE
 0001:00069d30 00000034H .text$_ZNSt3__116__throw_bad_castB6v15007Ev CODE
 0001:00069d70 0000001aH .text$_ZNKSt3__17codecvtIcc9_MbstatetE8encodingB6v15007Ev CODE
 0001:00069d90 00000023H .text$_ZNSt3__14fposI9_MbstatetEC1B6v15007Ex CODE
 0001:00069dc0 0000001eH .text$_ZNSt3__14fposI9_MbstatetE5stateB6v15007ES1_ CODE
 0001:00069de0 00000038H .text$_ZNSt3__14fposI9_MbstatetEC2B6v15007Ex CODE
 0001:00069e20 0000000fH .text$_ZNKSt3__14fposI9_MbstatetEcvxB6v15007Ev CODE
 0001:00069e30 0000001eH .text$_ZNKSt3__14fposI9_MbstatetE5stateB6v15007Ev CODE
 0001:00069e50 0000000fH .text$_ZNKSt3__115basic_streambufIcNS_11char_traitsIcEEE4pptrB6v15007Ev CODE
 0001:00069e60 0000000fH .text$_ZNKSt3__115basic_streambufIcNS_11char_traitsIcEEE5pbaseB6v15007Ev CODE
 0001:00069e70 00000006H .text$_ZNSt3__111char_traitsIcE3eofEv CODE
 0001:00069e80 00000047H .text$_ZNKSt3__17codecvtIcc9_MbstatetE7unshiftB6v15007ERS1_PcS4_RS4_ CODE
 0001:00069ed0 0000000fH .text$_ZNKSt3__115basic_streambufIcNS_11char_traitsIcEEE5egptrB6v15007Ev CODE
 0001:00069ee0 0000000fH .text$_ZNKSt3__115basic_streambufIcNS_11char_traitsIcEEE4gptrB6v15007Ev CODE
 0001:00069ef0 00000047H .text$_ZNKSt3__17codecvtIcc9_MbstatetE6lengthB6v15007ERS1_PKcS5_y CODE
 0001:00069f40 0000000fH .text$_ZNKSt3__115basic_streambufIcNS_11char_traitsIcEEE5ebackB6v15007Ev CODE
 0001:00069f50 000000b6H .text$_ZNSt3__113basic_filebufIcNS_11char_traitsIcEEE11__read_modeEv CODE
 0001:0006a010 00000090H .text$_ZNKSt3__17codecvtIcc9_MbstatetE2inB6v15007ERS1_PKcS5_RS5_PcS7_RS7_ CODE
 0001:0006a0a0 00000019H .text$_ZNSt3__111char_traitsIcE11eq_int_typeEii CODE
 0001:0006a0c0 00000029H .text$_ZNSt3__115basic_streambufIcNS_11char_traitsIcEEE5gbumpB6v15007Ei CODE
 0001:0006a0f0 0000004fH .text$_ZNSt3__111char_traitsIcE7not_eofEi CODE
 0001:0006a140 0000001fH .text$_ZNSt3__111char_traitsIcE2eqEcc CODE
 0001:0006a160 0000000bH .text$_ZNSt3__111char_traitsIcE12to_char_typeEi CODE
 0001:0006a170 000000c6H .text$_ZNSt3__113basic_filebufIcNS_11char_traitsIcEEE12__write_modeEv CODE
 0001:0006a240 0000000fH .text$_ZNKSt3__115basic_streambufIcNS_11char_traitsIcEEE5epptrB6v15007Ev CODE
 0001:0006a250 00000029H .text$_ZNSt3__115basic_streambufIcNS_11char_traitsIcEEE5pbumpB6v15007Ei CODE
 0001:0006a280 00000090H .text$_ZNKSt3__17codecvtIcc9_MbstatetE3outB6v15007ERS1_PKcS5_RS5_PcS7_RS7_ CODE
 0001:0006a310 00000023H .text$_ZNSt3__115basic_streambufIcNS_11char_traitsIcEEE7__pbumpB6v15007Ex CODE
 0001:0006a340 0000003fH .text$_ZNSt3__1eqB6v15007IPjEEbRKNS_11__wrap_iterIT_EES6_ CODE
 0001:0006a380 0000000eH .text$_ZNKSt3__111__wrap_iterIPjE4baseB6v15007Ev CODE
 0001:0006a390 00000037H .text$_ZNSt3__111__wrap_iterIPKjEC2B6v15007IPjEERKNS0_IT_EEPNS_9enable_ifIXsr14is_convertibleIS6_S2_EE5valueEvE4typeE CODE
 0001:0006a3d0 0000003bH .text$_ZNSt3__14pairINS_12basic_stringIcNS_11char_traitsIcEENS_9allocatorIcEEEEiEC2B6v15007IRA9_KcRiLPv0EEEOT_OT0_ CODE
 0001:0006a410 0000003bH .text$_ZNSt3__14pairINS_12basic_stringIcNS_11char_traitsIcEENS_9allocatorIcEEEEiEC2B6v15007IRA7_KcRiLPv0EEEOT_OT0_ CODE
 0001:0006a450 0000003bH .text$_ZNSt3__14pairINS_12basic_stringIcNS_11char_traitsIcEENS_9allocatorIcEEEEiEC2B6v15007IRA10_KcRiLPv0EEEOT_OT0_ CODE
 0001:0006a490 0000003bH .text$_ZNSt3__14pairINS_12basic_stringIcNS_11char_traitsIcEENS_9allocatorIcEEEEiEC2B6v15007IRA6_KcRiLPv0EEEOT_OT0_ CODE
 0001:0006a4d0 00000019H .text$_ZNSt3__14pairINS_12basic_stringIcNS_11char_traitsIcEENS_9allocatorIcEEEEiED2Ev CODE
 0001:0006a4f0 00000199H .text$_ZN7RikishiC2Ev   CODE
 0001:0006a690 00000042H .text$_ZN6PlayerC2ERKNSt3__112basic_stringIcNS0_11char_traitsIcEENS0_9allocatorIcEEEEi CODE
 0001:0006a6e0 00000019H .text$_ZNSt3__16vectorI7RikishiNS_9allocatorIS1_EEEC1B6v15007Ev CODE
 0001:0006a700 00000060H .text$_ZNSt3__16vectorI7RikishiNS_9allocatorIS1_EEEC2B6v15007Ev CODE
 0001:0006a760 0000002dH .text$_ZNSt3__117__compressed_pairIP7RikishiNS_9allocatorIS1_EEEC1B6v15007IDnNS_18__default_init_tagEEEOT_OT0_ CODE
 0001:0006a790 0000003bH .text$_ZNSt3__117__compressed_pairIP7RikishiNS_9allocatorIS1_EEEC2B6v15007IDnNS_18__default_init_tagEEEOT_OT0_ CODE
 0001:0006a7d0 0000001dH .text$_ZNSt3__122__compressed_pair_elemINS_9allocatorI7RikishiEELi1ELb1EEC2B6v15007ENS_18__default_init_tagE CODE
 0001:0006a7f0 00000019H .text$_ZNSt3__19allocatorI7RikishiEC2B6v15007Ev CODE
 0001:0006a810 00000007H .text$_ZNSt3__116__non_trivial_ifILb1ENS_9allocatorI7RikishiEEEC2B6v15007Ev CODE
 0001:0006a820 0000002cH .text$_ZN6PlayerD2Ev    CODE
 0001:0006a850 00000025H .text$_ZNSt3__111__wrap_iterIP6PlayerEpLB6v15007Ex CODE
 0001:0006a880 00000035H .text$_ZNSt3__14pairIi7RikishiEC2B6v15007IiRS1_LPv0EEEOT_OT0_ CODE
 0001:0006a8c0 0000001dH .text$_ZNSt3__14pairIi7RikishiED2Ev CODE
 0001:0006a8e0 0000003fH .text$_ZNSt3__1eqB6v15007IPP7RikishiEEbRKNS_11__wrap_iterIT_EES8_ CODE
 0001:0006a920 0000000eH .text$_ZNKSt3__111__wrap_iterIPP7RikishiE4baseB6v15007Ev CODE
 0001:0006a930 0000001fH .text$_ZNKSt3__116reverse_iteratorINS_14__map_iteratorINS_15__tree_iteratorINS_12__value_typeIiNS_6vectorIP7RikishiNS_9allocatorIS6_EEEEEEPNS_11__tree_nodeISA_PvEExEEEEE4baseB6v15007Ev CODE
 0001:0006a950 0000002fH .text$_ZNKSt3__116reverse_iteratorINS_14__map_iteratorINS_15__tree_iteratorINS_12__value_typeIiNS_6vectorIP7RikishiNS_9allocatorIS6_EEEEEEPNS_11__tree_nodeISA_PvEExEEEEEdeB6v15007Ev CODE
 0001:0006a980 00000022H .text$_ZNSt3__114__map_iteratorINS_15__tree_iteratorINS_12__value_typeIiNS_6vectorIP7RikishiNS_9allocatorIS5_EEEEEEPNS_11__tree_nodeIS9_PvEExEEEmmB6v15007Ev CODE
 0001:0006a9b0 0000002bH .text$_ZNSt3__115__tree_iteratorINS_12__value_typeIiNS_6vectorIP7RikishiNS_9allocatorIS4_EEEEEEPNS_11__tree_nodeIS8_PvEExEmmB6v15007Ev CODE
 0001:0006a9e0 000000a4H .text$_ZNSt3__116__tree_prev_iterB6v15007IPNS_16__tree_node_baseIPvEEPNS_15__tree_end_nodeIS4_EEEET_T0_ CODE
 0001:0006aa90 0000002bH .text$_ZNSt3__110__tree_maxB6v15007IPNS_16__tree_node_baseIPvEEEET_S5_ CODE
 0001:0006aac0 0000003fH .text$_ZNSt3__1eqB6v15007IPNS_4pairIi7RikishiEEEEbRKNS_11__wrap_iterIT_EES9_ CODE
 0001:0006ab00 0000000eH .text$_ZNKSt3__111__wrap_iterIPNS_4pairIi7RikishiEEE4baseB6v15007Ev CODE
 0001:0006ab10 0000000bH .text$_ZNSt3__112__to_addressB6v15007INS_4pairIi7RikishiEEEEPT_S5_ CODE
 0001:0006ab20 00000037H .text$_ZNSt3__111__wrap_iterIPK7RikishiEC2B6v15007IPS1_EERKNS0_IT_EEPNS_9enable_ifIXsr14is_convertibleIS7_S3_EE5valueEvE4typeE CODE
 0001:0006ab60 00000266H .text$_ZNSt3__124__put_character_sequenceIcNS_11char_traitsIcEEEERNS_13basic_ostreamIT_T0_EES7_PKS4_y CODE
 0001:0006add0 00000023H .text$_ZNSt3__113basic_ostreamIcNS_11char_traitsIcEEE6sentryC1ERS3_ CODE
 0001:0006ae00 00000012H .text$_ZNKSt3__113basic_ostreamIcNS_11char_traitsIcEEE6sentrycvbB6v15007Ev CODE
 0001:0006ae20 000002acH .text$_ZNSt3__116__pad_and_outputIcNS_11char_traitsIcEEEENS_19ostreambuf_iteratorIT_T0_EES6_PKS4_S8_S8_RNS_8ios_baseES4_ CODE
 0001:0006b0d0 00000023H .text$_ZNSt3__119ostreambuf_iteratorIcNS_11char_traitsIcEEEC1B6v15007ERNS_13basic_ostreamIcS2_EE CODE
 0001:0006b100 0000000eH .text$_ZNKSt3__18ios_base5flagsB6v15007Ev CODE
 0001:0006b110 00000066H .text$_ZNKSt3__19basic_iosIcNS_11char_traitsIcEEE4fillB6v15007Ev CODE
 0001:0006b180 00000017H .text$_ZNKSt3__119ostreambuf_iteratorIcNS_11char_traitsIcEEE6failedB6v15007Ev CODE
 0001:0006b1a0 00000021H .text$_ZNSt3__19basic_iosIcNS_11char_traitsIcEEE8setstateB6v15007Ej CODE
 0001:0006b1d0 00000019H .text$_ZNSt3__113basic_ostreamIcNS_11char_traitsIcEEE6sentryD1Ev CODE
 0001:0006b1f0 00000083H .text$_ZNSt3__113basic_ostreamIcNS_11char_traitsIcEEE6sentryC2ERS3_ CODE
 0001:0006b280 0000001dH .text$_ZNKSt3__19basic_iosIcNS_11char_traitsIcEEE4goodB6v15007Ev CODE
 0001:0006b2a0 00000012H .text$_ZNKSt3__19basic_iosIcNS_11char_traitsIcEEE3tieB6v15007Ev CODE
 0001:0006b2c0 00000017H .text$_ZNKSt3__18ios_base4goodB6v15007Ev CODE
 0001:0006b2e0 0000000fH .text$_ZNKSt3__18ios_base5widthB6v15007Ev CODE
 0001:0006b2f0 0000002eH .text$_ZNSt3__115basic_streambufIcNS_11char_traitsIcEEE5sputnB6v15007EPKcx CODE
 0001:0006b320 0000002dH .text$_ZNSt3__18ios_base5widthB6v15007Ex CODE
 0001:0006b350 00000051H .text$_ZNSt3__119ostreambuf_iteratorIcNS_11char_traitsIcEEEC2B6v15007ERNS_13basic_ostreamIcS2_EE CODE
 0001:0006b3b0 00000019H .text$_ZNKSt3__19basic_iosIcNS_11char_traitsIcEEE5rdbufB6v15007Ev CODE
 0001:0006b3d0 0000000fH .text$_ZNKSt3__18ios_base5rdbufB6v15007Ev CODE
 0001:0006b3e0 00000082H .text$_ZNKSt3__19basic_iosIcNS_11char_traitsIcEEE5widenB6v15007Ec CODE
 0001:0006b470 00000022H .text$_ZNKSt3__15ctypeIcE5widenB6v15007Ec CODE
 0001:0006b4a0 00000024H .text$_ZNSt3__18ios_base8setstateB6v15007Ej CODE
 0001:0006b4d0 00000149H .text$_ZNSt3__113basic_ostreamIcNS_11char_traitsIcEEE6sentryD2Ev CODE
 0001:0006b620 0000001aH .text$_ZNSt3__115basic_streambufIcNS_11char_traitsIcEEE7pubsyncB6v15007Ev CODE
 0001:0006b640 00000060H .text$_ZNSt3__16vectorIjNS_9allocatorIjEEEC2B6v15007Ev CODE
 0001:0006b6a0 0000002dH .text$_ZNSt3__117__compressed_pairIPjNS_9allocatorIjEEEC1B6v15007IDnNS_18__default_init_tagEEEOT_OT0_ CODE
 0001:0006b6d0 00000007H .text$_ZNSt3__119__debug_db_insert_cB6v15007INS_6vectorIjNS_9allocatorIjEEEEEEvPT_ CODE
 0001:0006b6e0 0000003bH .text$_ZNSt3__117__compressed_pairIPjNS_9allocatorIjEEEC2B6v15007IDnNS_18__default_init_tagEEEOT_OT0_ CODE
 0001:0006b720 0000001eH .text$_ZNSt3__122__compressed_pair_elemIPjLi0ELb0EEC2B6v15007IDnvEEOT_ CODE
 0001:0006b740 0000001dH .text$_ZNSt3__122__compressed_pair_elemINS_9allocatorIjEELi1ELb1EEC2B6v15007ENS_18__default_init_tagE CODE
 0001:0006b760 00000019H .text$_ZNSt3__19allocatorIjEC2B6v15007Ev CODE
 0001:0006b780 00000007H .text$_ZNSt3__116__non_trivial_ifILb1ENS_9allocatorIjEEEC2B6v15007Ev CODE
 0001:0006b790 0000003aH .text$_ZNSt3__16vectorIjNS_9allocatorIjEEED2B6v15007Ev CODE
 0001:0006b7d0 00000023H .text$_ZNSt3__16vectorIjNS_9allocatorIjEEE16__destroy_vectorC1ERS3_ CODE
 0001:0006b800 0000008cH .text$_ZNSt3__16vectorIjNS_9allocatorIjEEE16__destroy_vectorclB6v15007Ev CODE
 0001:0006b890 0000001eH .text$_ZNSt3__16vectorIjNS_9allocatorIjEEE16__destroy_vectorC2ERS3_ CODE
 0001:0006b8b0 000000c3H .text$_ZNKSt3__16vectorIjNS_9allocatorIjEEE17__annotate_deleteB6v15007Ev CODE
 0001:0006b980 00000007H .text$_ZNSt3__118__debug_db_erase_cB6v15007INS_6vectorIjNS_9allocatorIjEEEEEEvPT_ CODE
 0001:0006b990 0000001cH .text$_ZNSt3__16vectorIjNS_9allocatorIjEEE7__clearB6v15007Ev CODE
 0001:0006b9b0 0000002dH .text$_ZNSt3__116allocator_traitsINS_9allocatorIjEEE10deallocateB6v15007ERS2_Pjy CODE
 0001:0006b9e0 0000001dH .text$_ZNSt3__16vectorIjNS_9allocatorIjEEE7__allocB6v15007Ev CODE
 0001:0006ba00 0000002fH .text$_ZNKSt3__16vectorIjNS_9allocatorIjEEE8capacityB6v15007Ev CODE
 0001:0006ba30 00000021H .text$_ZNKSt3__16vectorIjNS_9allocatorIjEEE31__annotate_contiguous_containerB6v15007EPKvS5_S5_S5_ CODE
 0001:0006ba60 0000001cH .text$_ZNKSt3__16vectorIjNS_9allocatorIjEEE4dataB6v15007Ev CODE
 0001:0006ba80 0000000bH .text$_ZNSt3__112__to_addressB6v15007IjEEPT_S2_ CODE
 0001:0006ba90 00000086H .text$_ZNSt3__16vectorIjNS_9allocatorIjEEE22__base_destruct_at_endB6v15007EPj CODE
 0001:0006bb20 00000023H .text$_ZNSt3__116allocator_traitsINS_9allocatorIjEEE7destroyB6v15007IjvEEvRS2_PT_ CODE
 0001:0006bb50 00000012H .text$_ZNSt3__19allocatorIjE7destroyB6v15007EPj CODE
 0001:0006bb70 0000003fH .text$_ZNSt3__19allocatorIjE10deallocateB6v15007EPjy CODE
 0001:0006bbb0 00000019H .text$_ZNSt3__117__compressed_pairIPjNS_9allocatorIjEEE6secondB6v15007Ev CODE
 0001:0006bbd0 0000000bH .text$_ZNSt3__122__compressed_pair_elemINS_9allocatorIjEELi1ELb1EE5__getB6v15007Ev CODE
 0001:0006bbe0 0000001dH .text$_ZNKSt3__16vectorIjNS_9allocatorIjEEE9__end_capB6v15007Ev CODE
 0001:0006bc00 00000019H .text$_ZNKSt3__117__compressed_pairIPjNS_9allocatorIjEEE5firstB6v15007Ev CODE
 0001:0006bc20 0000000bH .text$_ZNKSt3__122__compressed_pair_elemIPjLi0ELb0EE5__getB6v15007Ev CODE
 0001:0006bc30 00000060H .text$_ZNSt3__16vectorI6PlayerNS_9allocatorIS1_EEEC2B6v15007Ev CODE
 0001:0006bc90 0000002dH .text$_ZNSt3__117__compressed_pairIP6PlayerNS_9allocatorIS1_EEEC1B6v15007IDnNS_18__default_init_tagEEEOT_OT0_ CODE
 0001:0006bcc0 00000007H .text$_ZNSt3__119__debug_db_insert_cB6v15007INS_6vectorI6PlayerNS_9allocatorIS2_EEEEEEvPT_ CODE
 0001:0006bcd0 0000003bH .text$_ZNSt3__117__compressed_pairIP6PlayerNS_9allocatorIS1_EEEC2B6v15007IDnNS_18__default_init_tagEEEOT_OT0_ CODE
 0001:0006bd10 0000001eH .text$_ZNSt3__122__compressed_pair_elemIP6PlayerLi0ELb0EEC2B6v15007IDnvEEOT_ CODE
 0001:0006bd30 0000001dH .text$_ZNSt3__122__compressed_pair_elemINS_9allocatorI6PlayerEELi1ELb1EEC2B6v15007ENS_18__default_init_tagE CODE
 0001:0006bd50 00000019H .text$_ZNSt3__19allocatorI6PlayerEC2B6v15007Ev CODE
 0001:0006bd70 00000007H .text$_ZNSt3__116__non_trivial_ifILb1ENS_9allocatorI6PlayerEEEC2B6v15007Ev CODE
 0001:0006bd80 0000003aH .text$_ZNSt3__16vectorI6PlayerNS_9allocatorIS1_EEED2B6v15007Ev CODE
 0001:0006bdc0 00000023H .text$_ZNSt3__16vectorI6PlayerNS_9allocatorIS1_EEE16__destroy_vectorC1ERS4_ CODE
 0001:0006bdf0 0000008cH .text$_ZNSt3__16vectorI6PlayerNS_9allocatorIS1_EEE16__destroy_vectorclB6v15007Ev CODE
 0001:0006be80 0000001eH .text$_ZNSt3__16vectorI6PlayerNS_9allocatorIS1_EEE16__destroy_vectorC2ERS4_ CODE
 0001:0006bea0 000000c3H .text$_ZNKSt3__16vectorI6PlayerNS_9allocatorIS1_EEE17__annotate_deleteB6v15007Ev CODE
 0001:0006bf70 00000007H .text$_ZNSt3__118__debug_db_erase_cB6v15007INS_6vectorI6PlayerNS_9allocatorIS2_EEEEEEvPT_ CODE
 0001:0006bf80 0000001cH .text$_ZNSt3__16vectorI6PlayerNS_9allocatorIS1_EEE7__clearB6v15007Ev CODE
 0001:0006bfa0 0000002dH .text$_ZNSt3__116allocator_traitsINS_9allocatorI6PlayerEEE10deallocateB6v15007ERS3_PS2_y CODE
 0001:0006bfd0 0000001dH .text$_ZNSt3__16vectorI6PlayerNS_9allocatorIS1_EEE7__allocB6v15007Ev CODE
 0001:0006bff0 0000002fH .text$_ZNKSt3__16vectorI6PlayerNS_9allocatorIS1_EEE8capacityB6v15007Ev CODE
 0001:0006c020 00000021H .text$_ZNKSt3__16vectorI6PlayerNS_9allocatorIS1_EEE31__annotate_contiguous_containerB6v15007EPKvS6_S6_S6_ CODE
 0001:0006c050 0000001cH .text$_ZNKSt3__16vectorI6PlayerNS_9allocatorIS1_EEE4dataB6v15007Ev CODE
 0001:0006c070 0000000bH .text$_ZNSt3__112__to_addressB6v15007I6PlayerEEPT_S3_ CODE
 0001:0006c080 00000086H .text$_ZNSt3__16vectorI6PlayerNS_9allocatorIS1_EEE22__base_destruct_at_endB6v15007EPS1_ CODE
 0001:0006c110 00000023H .text$_ZNSt3__116allocator_traitsINS_9allocatorI6PlayerEEE7destroyB6v15007IS2_vEEvRS3_PT_ CODE
 0001:0006c140 0000001eH .text$_ZNSt3__19allocatorI6PlayerE7destroyB6v15007EPS1_ CODE
 0001:0006c160 0000003fH .text$_ZNSt3__19allocatorI6PlayerE10deallocateB6v15007EPS1_y CODE
 0001:0006c1a0 00000019H .text$_ZNSt3__117__compressed_pairIP6PlayerNS_9allocatorIS1_EEE6secondB6v15007Ev CODE
 0001:0006c1c0 0000000bH .text$_ZNSt3__122__compressed_pair_elemINS_9allocatorI6PlayerEELi1ELb1EE5__getB6v15007Ev CODE
 0001:0006c1d0 0000001dH .text$_ZNKSt3__16vectorI6PlayerNS_9allocatorIS1_EEE9__end_capB6v15007Ev CODE
 0001:0006c1f0 00000019H .text$_ZNKSt3__117__compressed_pairIP6PlayerNS_9allocatorIS1_EEE5firstB6v15007Ev CODE
 0001:0006c210 0000000bH .text$_ZNKSt3__122__compressed_pair_elemIP6PlayerLi0ELb0EE5__getB6v15007Ev CODE
 0001:0006c220 000000e6H .text$_ZNSt3__16vectorI7RikishiNS_9allocatorIS1_EEEC2Ey CODE
 0001:0006c310 000000cdH .text$_ZNSt3__16vectorI7RikishiNS_9allocatorIS1_EEE18__construct_at_endEy CODE
 0001:0006c3e0 00000023H .text$_ZNSt3__116allocator_traitsINS_9allocatorI7RikishiEEE9constructB6v15007IS2_JEvEEvRS3_PT_DpOT0_ CODE
 0001:0006c410 00000035H .text$_ZNSt3__19allocatorI7RikishiE9constructB6v15007IS1_JEEEvPT_DpOT0_ CODE
 0001:0006c450 00000132H .text$_ZNSt3__16vectorIjNS_9allocatorIjEEEC2B6v15007ESt16initializer_listIjE CODE
 0001:0006c590 00000034H .text$_ZNSt3__118__make_transactionB6v15007INS_6vectorIjNS_9allocatorIjEEE16__destroy_vectorEEENS_13__transactionIT_EES7_ CODE
 0001:0006c5d0 0000000fH .text$_ZNKSt16initializer_listIjE4sizeB6v15007Ev CODE
 0001:0006c5e0 000000a9H .text$_ZNSt3__16vectorIjNS_9allocatorIjEEE11__vallocateB6v15007Ey CODE
 0001:0006c690 00000099H .text$_ZNSt3__16vectorIjNS_9allocatorIjEEE18__construct_at_endIPKjEENS_9enable_ifIXsr27__is_cpp17_forward_iteratorIT_EE5valueEvE4typeES8_S8_y CODE
 0001:0006c730 0000000eH .text$_ZNKSt16initializer_listIjE5beginB6v15007Ev CODE
 0001:0006c740 00000019H .text$_ZNKSt16initializer_listIjE3endB6v15007Ev CODE
 0001:0006c760 0000000fH .text$_ZNSt3__113__transactionINS_6vectorIjNS_9allocatorIjEEE16__destroy_vectorEE10__completeB6v15007Ev CODE
 0001:0006c770 00000019H .text$_ZNSt3__113__transactionINS_6vectorIjNS_9allocatorIjEEE16__destroy_vectorEED1B6v15007Ev CODE
 0001:0006c790 00000023H .text$_ZNSt3__113__transactionINS_6vectorIjNS_9allocatorIjEEE16__destroy_vectorEEC1B6v15007ES5_ CODE
 0001:0006c7c0 00000022H .text$_ZNSt3__113__transactionINS_6vectorIjNS_9allocatorIjEEE16__destroy_vectorEEC2B6v15007ES5_ CODE
 0001:0006c7f0 00000059H .text$_ZNKSt3__16vectorIjNS_9allocatorIjEEE8max_sizeEv CODE
 0001:0006c850 00000016H .text$_ZNKSt3__16vectorIjNS_9allocatorIjEEE20__throw_length_errorB6v15007Ev CODE
 0001:0006c870 0000004dH .text$_ZNSt3__119__allocate_at_leastB6v15007INS_9allocatorIjEEEENS_19__allocation_resultINS_16allocator_traitsIT_E7pointerEEERS5_y CODE
 0001:0006c8c0 0000001dH .text$_ZNSt3__16vectorIjNS_9allocatorIjEEE9__end_capB6v15007Ev CODE
 0001:0006c8e0 000000b6H .text$_ZNKSt3__16vectorIjNS_9allocatorIjEEE14__annotate_newB6v15007Ey CODE
 0001:0006c9a0 00000019H .text$_ZNSt3__116allocator_traitsINS_9allocatorIjEEE8max_sizeB6v15007IS2_vEEyRKS2_ CODE
 0001:0006c9c0 0000001dH .text$_ZNKSt3__16vectorIjNS_9allocatorIjEEE7__allocB6v15007Ev CODE
 0001:0006c9e0 00000011H .text$_ZNKSt3__19allocatorIjE8max_sizeB6v15007Ev CODE
 0001:0006ca00 00000019H .text$_ZNKSt3__117__compressed_pairIPjNS_9allocatorIjEEE6secondB6v15007Ev CODE
 0001:0006ca20 0000000bH .text$_ZNKSt3__122__compressed_pair_elemINS_9allocatorIjEELi1ELb1EE5__getB6v15007Ev CODE
 0001:0006ca30 00000051H .text$_ZNSt3__19allocatorIjE8allocateB6v15007Ey CODE
 0001:0006ca90 00000019H .text$_ZNSt3__117__compressed_pairIPjNS_9allocatorIjEEE5firstB6v15007Ev CODE
 0001:0006cab0 0000000bH .text$_ZNSt3__122__compressed_pair_elemIPjLi0ELb0EE5__getB6v15007Ev CODE
 0001:0006cac0 0000002dH .text$_ZNSt3__16vectorIjNS_9allocatorIjEEE21_ConstructTransactionC1ERS3_y CODE
 0001:0006caf0 00000032H .text$_ZNSt3__130__uninitialized_allocator_copyB6v15007INS_9allocatorIjEEjjLPv0EEEPT0_RT_PKS4_S9_S5_ CODE
 0001:0006cb30 00000019H .text$_ZNSt3__16vectorIjNS_9allocatorIjEEE21_ConstructTransactionD1Ev CODE
 0001:0006cb50 00000049H .text$_ZNSt3__16vectorIjNS_9allocatorIjEEE21_ConstructTransactionC2ERS3_y CODE
 0001:0006cba0 00000036H .text$_ZNSt3__14copyB6v15007IPKjPjEET0_T_S5_S4_ CODE
 0001:0006cbe0 000000ccH .text$_ZNSt3__16__copyB6v15007IPKjS2_PjLi0EEENS_4pairIT_T1_EES5_T0_S6_ CODE
 0001:0006ccb0 0000005cH .text$_ZNSt3__114__unwrap_rangeB6v15007IPKjS2_EENS_4pairIT0_S4_EET_S6_ CODE
 0001:0006cd10 000000a9H .text$_ZNSt3__111__copy_implB6v15007IKjjvEENS_4pairIPT_PT0_EES4_S4_S6_ CODE
 0001:0006cdc0 00000019H .text$_ZNSt3__113__unwrap_iterB6v15007IPjNS_18__unwrap_iter_implIS1_Lb1EEELi0EEEDTclsrT0_8__unwrapclsr3stdE7declvalIT_EEEES5_ CODE
 0001:0006cde0 00000034H .text$_ZNSt3__19make_pairB6v15007IPKjPjEENS_4pairINS_18__unwrap_ref_decayIT_E4typeENS5_IT0_E4typeEEEOS6_OS9_ CODE
 0001:0006ce20 00000023H .text$_ZNSt3__114__rewrap_rangeB6v15007IPKjS2_EET_S3_T0_ CODE
 0001:0006ce50 0000003aH .text$_ZNSt3__113__rewrap_iterB6v15007IPjS1_NS_18__unwrap_iter_implIS1_Lb1EEEEET_S4_T0_ CODE
 0001:0006ce90 00000034H .text$_ZNSt3__19make_pairB6v15007IPKjS2_EENS_4pairINS_18__unwrap_ref_decayIT_E4typeENS4_IT0_E4typeEEEOS5_OS8_ CODE
 0001:0006ced0 00000019H .text$_ZNSt3__113__unwrap_iterB6v15007IPKjNS_18__unwrap_iter_implIS2_Lb1EEELi0EEEDTclsrT0_8__unwrapclsr3stdE7declvalIT_EEEES6_ CODE
 0001:0006cef0 0000002dH .text$_ZNSt3__14pairIPKjS2_EC1B6v15007IS2_S2_LPv0EEEOT_OT0_ CODE
 0001:0006cf20 00000032H .text$_ZNSt3__14pairIPKjS2_EC2B6v15007IS2_S2_LPv0EEEOT_OT0_ CODE
 0001:0006cf60 00000019H .text$_ZNSt3__118__unwrap_iter_implIPKjLb1EE8__unwrapB6v15007ES2_ CODE
 0001:0006cf80 0000000bH .text$_ZNSt3__112__to_addressB6v15007IKjEEPT_S3_ CODE
 0001:0006cf90 00000019H .text$_ZNSt3__118__unwrap_iter_implIPjLb1EE8__unwrapB6v15007ES1_ CODE
 0001:0006cfb0 0000002dH .text$_ZNSt3__14pairIPKjPjEC1B6v15007IS2_S3_LPv0EEEOT_OT0_ CODE
 0001:0006cfe0 00000032H .text$_ZNSt3__14pairIPKjPjEC2B6v15007IS2_S3_LPv0EEEOT_OT0_ CODE
 0001:0006d020 0000003aH .text$_ZNSt3__113__rewrap_iterB6v15007IPKjS2_NS_18__unwrap_iter_implIS2_Lb1EEEEET_S5_T0_ CODE
 0001:0006d060 0000004cH .text$_ZNSt3__118__unwrap_iter_implIPKjLb1EE8__rewrapB6v15007ES2_S2_ CODE
 0001:0006d0b0 0000004cH .text$_ZNSt3__118__unwrap_iter_implIPjLb1EE8__rewrapB6v15007ES1_S1_ CODE
 0001:0006d100 00000016H .text$_ZNSt3__16vectorIjNS_9allocatorIjEEE21_ConstructTransactionD2Ev CODE
 0001:0006d120 0000003fH .text$_ZNSt3__113__transactionINS_6vectorIjNS_9allocatorIjEEE16__destroy_vectorEED2B6v15007Ev CODE
 0001:0006d160 00000031H .text$_ZNSt3__125uniform_real_distributionIdEC2Edd CODE
 0001:0006d1a0 00000031H .text$_ZNSt3__125uniform_real_distributionIdE10param_typeC1B6v15007Edd CODE
 0001:0006d1e0 00000032H .text$_ZNSt3__125uniform_real_distributionIdE10param_typeC2B6v15007Edd CODE
 0001:0006d220 00000076H .text$_ZNSt3__125uniform_real_distributionIdEclINS_23mersenne_twister_engineIjLy32ELy624ELy397ELy31ELj2567483615ELy11ELj4294967295ELy7ELj2636928640ELy15ELj4022730752ELy18ELj1812433253EEEEEdRT_RKNS1_10param_typeE CODE
 0001:0006d2a0 00000010H .text$_ZNKSt3__125uniform_real_distributionIdE10param_type1bB6v15007Ev CODE
 0001:0006d2b0 0000000fH .text$_ZNKSt3__125uniform_real_distributionIdE10param_type1aB6v15007Ev CODE
 0001:0006d2c0 00000116H .text$_ZNSt3__118generate_canonicalIdLy53ENS_23mersenne_twister_engineIjLy32ELy624ELy397ELy31ELj2567483615ELy11ELj4294967295ELy7ELj2636928640ELy15ELj4022730752ELy18ELj1812433253EEEEET_RT1_ CODE
 0001:0006d3e0 00000006H .text$_ZNSt3__123mersenne_twister_engineIjLy32ELy624ELy397ELy31ELj2567483615ELy11ELj4294967295ELy7ELj2636928640ELy15ELj4022730752ELy18ELj1812433253EE3maxB6v15007Ev CODE
 0001:0006d3f0 00000003H .text$_ZNSt3__123mersenne_twister_engineIjLy32ELy624ELy397ELy31ELj2567483615ELy11ELj4294967295ELy7ELj2636928640ELy15ELj4022730752ELy18ELj1812433253EE3minB6v15007Ev CODE
 0001:0006d400 00000030H .text$_ZNSt3__19basic_iosIcNS_11char_traitsIcEEEC2B6v15007Ev CODE
 0001:0006d430 00000051H .text$_ZNSt3__113basic_istreamIcNS_11char_traitsIcEEEC2B6v15007EPNS_15basic_streambufIcS2_EE CODE
 0001:0006d490 00000019H .text$_ZNSt3__113basic_filebufIcNS_11char_traitsIcEEEC1Ev CODE
 0001:0006d4b0 0000003fH .text$_ZNSt3__113basic_filebufIcNS_11char_traitsIcEEE4openERKNS_12basic_stringIcS2_NS_9allocatorIcEEEEj CODE
 0001:0006d4f0 00000019H .text$_ZNSt3__18ios_baseC2B6v15007Ev CODE
 0001:0006d510 00000049H .text$_ZNSt3__19basic_iosIcNS_11char_traitsIcEEE4initB6v15007EPNS_15basic_streambufIcS2_EE CODE
 0001:0006d560 000001afH .text$_ZNSt3__113basic_filebufIcNS_11char_traitsIcEEEC2Ev CODE
 0001:0006d710 0000003aH .text$_ZNSt3__19has_facetB6v15007INS_7codecvtIcc9_MbstatetEEEEbRKNS_6localeE CODE
 0001:0006d750 0000002eH .text$_ZNKSt3__115basic_streambufIcNS_11char_traitsIcEEE6getlocB6v15007Ev CODE
 0001:0006d780 00000104H .text$_ZNSt3__113basic_filebufIcNS_11char_traitsIcEEE4openEPKcj CODE
 0001:0006d890 00000204H .text$_ZNSt3__113basic_filebufIcNS_11char_traitsIcEEE15__make_mdstringEj CODE
 0001:0006daa0 00000018H .text$_ZNKSt3__113basic_filebufIcNS_11char_traitsIcEEE7is_openEv CODE
 0001:0006dac0 0000025fH .text$_ZNSt3__17getlineIcNS_11char_traitsIcEENS_9allocatorIcEEEERNS_13basic_istreamIT_T0_EES9_RNS_12basic_stringIS6_S7_T1_EES6_ CODE
 0001:0006dd20 00000035H .text$_ZNSt3__113basic_istreamIcNS_11char_traitsIcEEE6sentryC1ERS3_b CODE
 0001:0006dd60 00000012H .text$_ZNKSt3__113basic_istreamIcNS_11char_traitsIcEEE6sentrycvbB6v15007Ev CODE
 0001:0006dd80 0000005dH .text$_ZNSt3__115basic_streambufIcNS_11char_traitsIcEEE6sbumpcB6v15007Ev CODE
 0001:0006dde0 0000004aH .text$_ZNSt3__18ios_base18__setstate_nothrowB6v15007Ej CODE
 0001:0006de30 00000019H .text$_ZNKSt3__19basic_iosIcNS_11char_traitsIcEEE10exceptionsB6v15007Ev CODE
 0001:0006de50 0000020bH .text$_ZNSt3__113basic_istreamIcNS_11char_traitsIcEEE6sentryC2ERS3_b CODE
 0001:0006e060 00000023H .text$_ZNSt3__119istreambuf_iteratorIcNS_11char_traitsIcEEEC1B6v15007ERNS_13basic_istreamIcS2_EE CODE
 0001:0006e090 00000019H .text$_ZNSt3__119istreambuf_iteratorIcNS_11char_traitsIcEEEC1B6v15007Ev CODE
 0001:0006e0b0 00000029H .text$_ZNSt3__1neB6v15007IcNS_11char_traitsIcEEEEbRKNS_19istreambuf_iteratorIT_T0_EES8_ CODE
 0001:0006e0e0 0000001cH .text$_ZNKSt3__119istreambuf_iteratorIcNS_11char_traitsIcEEEdeB6v15007Ev CODE
 0001:0006e100 00000025H .text$_ZNSt3__119istreambuf_iteratorIcNS_11char_traitsIcEEEppB6v15007Ev CODE
 0001:0006e130 00000027H .text$_ZNSt3__1eqB6v15007IcNS_11char_traitsIcEEEEbRKNS_19istreambuf_iteratorIT_T0_EES8_ CODE
 0001:0006e160 00000051H .text$_ZNSt3__119istreambuf_iteratorIcNS_11char_traitsIcEEEC2B6v15007ERNS_13basic_istreamIcS2_EE CODE
 0001:0006e1c0 00000012H .text$_ZNSt3__119istreambuf_iteratorIcNS_11char_traitsIcEEEC2B6v15007Ev CODE
 0001:0006e1e0 00000046H .text$_ZNKSt3__119istreambuf_iteratorIcNS_11char_traitsIcEEE5equalB6v15007ERKS3_ CODE
 0001:0006e230 0000006dH .text$_ZNKSt3__119istreambuf_iteratorIcNS_11char_traitsIcEEE14__test_for_eofB6v15007Ev CODE
 0001:0006e2a0 00000052H .text$_ZNSt3__115basic_streambufIcNS_11char_traitsIcEEE5sgetcB6v15007Ev CODE
 0001:0006e300 0000000eH .text$_ZNKSt3__18ios_base10exceptionsB6v15007Ev CODE
 0001:0006e310 0000001dH .text$_ZNKSt3__19basic_iosIcNS_11char_traitsIcEEE4failB6v15007Ev CODE
 0001:0006e330 0000001cH .text$_ZNKSt3__18ios_base4failB6v15007Ev CODE
 0001:0006e350 000000acH .text$_ZNSt3__112basic_stringIcNS_11char_traitsIcEENS_9allocatorIcEEE4swapB6v15007ERS5_ CODE
 0001:0006e400 0000006fH .text$_ZNSt3__14swapB6v15007INS_12basic_stringIcNS_11char_traitsIcEENS_9allocatorIcEEE5__repEEENS_9enable_ifIXaasr21is_move_constructibleIT_EE5valuesr18is_move_assignableIS9_EE5valueEvE4typeERS9_SC_ CODE
 0001:0006e470 00000028H .text$_ZNSt3__116__swap_allocatorB6v15007INS_9allocatorIcEEEEvRT_S4_ CODE
 0001:0006e4a0 00000017H .text$_ZNSt3__116__swap_allocatorB6v15007INS_9allocatorIcEEEEvRT_S4_NS_17integral_constantIbLb0EEE CODE
 0001:0006e4c0 0000002dH .text$_ZNSt3__111__wrap_iterIPNS_12basic_stringIcNS_11char_traitsIcEENS_9allocatorIcEEEEEC1B6v15007EPKvS7_ CODE
 0001:0006e4f0 00000023H .text$_ZNSt3__111__wrap_iterIPNS_12basic_stringIcNS_11char_traitsIcEENS_9allocatorIcEEEEEC2B6v15007EPKvS7_ CODE
 0001:0006e520 00000137H .text$_ZNSt3__16vectorIiNS_9allocatorIiEEEC2B6v15007ESt16initializer_listIiE CODE
 0001:0006e660 0000002dH .text$_ZNSt3__117__compressed_pairIPiNS_9allocatorIiEEEC1B6v15007IDnNS_18__default_init_tagEEEOT_OT0_ CODE
 0001:0006e690 00000034H .text$_ZNSt3__118__make_transactionB6v15007INS_6vectorIiNS_9allocatorIiEEE16__destroy_vectorEEENS_13__transactionIT_EES7_ CODE
 0001:0006e6d0 00000023H .text$_ZNSt3__16vectorIiNS_9allocatorIiEEE16__destroy_vectorC1ERS3_ CODE
 0001:0006e700 00000007H .text$_ZNSt3__119__debug_db_insert_cB6v15007INS_6vectorIiNS_9allocatorIiEEEEEEvPT_ CODE
 0001:0006e710 0000000fH .text$_ZNKSt16initializer_listIiE4sizeB6v15007Ev CODE
 0001:0006e720 000000a9H .text$_ZNSt3__16vectorIiNS_9allocatorIiEEE11__vallocateB6v15007Ey CODE
 0001:0006e7d0 00000099H .text$_ZNSt3__16vectorIiNS_9allocatorIiEEE18__construct_at_endIPKiEENS_9enable_ifIXsr27__is_cpp17_forward_iteratorIT_EE5valueEvE4typeES8_S8_y CODE
 0001:0006e870 0000000eH .text$_ZNKSt16initializer_listIiE5beginB6v15007Ev CODE
 0001:0006e880 00000019H .text$_ZNKSt16initializer_listIiE3endB6v15007Ev CODE
 0001:0006e8a0 0000000fH .text$_ZNSt3__113__transactionINS_6vectorIiNS_9allocatorIiEEE16__destroy_vectorEE10__completeB6v15007Ev CODE
 0001:0006e8b0 00000019H .text$_ZNSt3__113__transactionINS_6vectorIiNS_9allocatorIiEEE16__destroy_vectorEED1B6v15007Ev CODE
 0001:0006e8d0 0000003bH .text$_ZNSt3__117__compressed_pairIPiNS_9allocatorIiEEEC2B6v15007IDnNS_18__default_init_tagEEEOT_OT0_ CODE
 0001:0006e910 0000001eH .text$_ZNSt3__122__compressed_pair_elemIPiLi0ELb0EEC2B6v15007IDnvEEOT_ CODE
 0001:0006e930 0000001dH .text$_ZNSt3__122__compressed_pair_elemINS_9allocatorIiEELi1ELb1EEC2B6v15007ENS_18__default_init_tagE CODE
 0001:0006e950 00000019H .text$_ZNSt3__19allocatorIiEC2B6v15007Ev CODE
 0001:0006e970 00000007H .text$_ZNSt3__116__non_trivial_ifILb1ENS_9allocatorIiEEEC2B6v15007Ev CODE
 0001:0006e980 00000023H .text$_ZNSt3__113__transactionINS_6vectorIiNS_9allocatorIiEEE16__destroy_vectorEEC1B6v15007ES5_ CODE
 0001:0006e9b0 00000022H .text$_ZNSt3__113__transactionINS_6vectorIiNS_9allocatorIiEEE16__destroy_vectorEEC2B6v15007ES5_ CODE
 0001:0006e9e0 0000001eH .text$_ZNSt3__16vectorIiNS_9allocatorIiEEE16__destroy_vectorC2ERS3_ CODE
 0001:0006ea00 00000059H .text$_ZNKSt3__16vectorIiNS_9allocatorIiEEE8max_sizeEv CODE
 0001:0006ea60 00000016H .text$_ZNKSt3__16vectorIiNS_9allocatorIiEEE20__throw_length_errorB6v15007Ev CODE
 0001:0006ea80 0000004dH .text$_ZNSt3__119__allocate_at_leastB6v15007INS_9allocatorIiEEEENS_19__allocation_resultINS_16allocator_traitsIT_E7pointerEEERS5_y CODE
 0001:0006ead0 0000001dH .text$_ZNSt3__16vectorIiNS_9allocatorIiEEE7__allocB6v15007Ev CODE
 0001:0006eaf0 0000001dH .text$_ZNSt3__16vectorIiNS_9allocatorIiEEE9__end_capB6v15007Ev CODE
 0001:0006eb10 000000b6H .text$_ZNKSt3__16vectorIiNS_9allocatorIiEEE14__annotate_newB6v15007Ey CODE
 0001:0006ebd0 00000019H .text$_ZNSt3__116allocator_traitsINS_9allocatorIiEEE8max_sizeB6v15007IS2_vEEyRKS2_ CODE
 0001:0006ebf0 0000001dH .text$_ZNKSt3__16vectorIiNS_9allocatorIiEEE7__allocB6v15007Ev CODE
 0001:0006ec10 00000011H .text$_ZNKSt3__19allocatorIiE8max_sizeB6v15007Ev CODE
 0001:0006ec30 00000019H .text$_ZNKSt3__117__compressed_pairIPiNS_9allocatorIiEEE6secondB6v15007Ev CODE
 0001:0006ec50 0000000bH .text$_ZNKSt3__122__compressed_pair_elemINS_9allocatorIiEELi1ELb1EE5__getB6v15007Ev CODE
 0001:0006ec60 00000051H .text$_ZNSt3__19allocatorIiE8allocateB6v15007Ey CODE
 0001:0006ecc0 00000019H .text$_ZNSt3__117__compressed_pairIPiNS_9allocatorIiEEE6secondB6v15007Ev CODE
 0001:0006ece0 0000000bH .text$_ZNSt3__122__compressed_pair_elemINS_9allocatorIiEELi1ELb1EE5__getB6v15007Ev CODE
 0001:0006ecf0 00000019H .text$_ZNSt3__117__compressed_pairIPiNS_9allocatorIiEEE5firstB6v15007Ev CODE
 0001:0006ed10 0000000bH .text$_ZNSt3__122__compressed_pair_elemIPiLi0ELb0EE5__getB6v15007Ev CODE
 0001:0006ed20 00000021H .text$_ZNKSt3__16vectorIiNS_9allocatorIiEEE31__annotate_contiguous_containerB6v15007EPKvS5_S5_S5_ CODE
 0001:0006ed50 0000001cH .text$_ZNKSt3__16vectorIiNS_9allocatorIiEEE4dataB6v15007Ev CODE
 0001:0006ed70 0000002fH .text$_ZNKSt3__16vectorIiNS_9allocatorIiEEE8capacityB6v15007Ev CODE
 0001:0006eda0 0000000bH .text$_ZNSt3__112__to_addressB6v15007IiEEPT_S2_ CODE
 0001:0006edb0 0000001dH .text$_ZNKSt3__16vectorIiNS_9allocatorIiEEE9__end_capB6v15007Ev CODE
 0001:0006edd0 00000019H .text$_ZNKSt3__117__compressed_pairIPiNS_9allocatorIiEEE5firstB6v15007Ev CODE
 0001:0006edf0 0000000bH .text$_ZNKSt3__122__compressed_pair_elemIPiLi0ELb0EE5__getB6v15007Ev CODE
 0001:0006ee00 0000002dH .text$_ZNSt3__16vectorIiNS_9allocatorIiEEE21_ConstructTransactionC1ERS3_y CODE
 0001:0006ee30 00000032H .text$_ZNSt3__130__uninitialized_allocator_copyB6v15007INS_9allocatorIiEEiiLPv0EEEPT0_RT_PKS4_S9_S5_ CODE
 0001:0006ee70 00000019H .text$_ZNSt3__16vectorIiNS_9allocatorIiEEE21_ConstructTransactionD1Ev CODE
 0001:0006ee90 00000049H .text$_ZNSt3__16vectorIiNS_9allocatorIiEEE21_ConstructTransactionC2ERS3_y CODE
 0001:0006eee0 00000036H .text$_ZNSt3__14copyB6v15007IPKiPiEET0_T_S5_S4_ CODE
 0001:0006ef20 000000ccH .text$_ZNSt3__16__copyB6v15007IPKiS2_PiLi0EEENS_4pairIT_T1_EES5_T0_S6_ CODE
 0001:0006eff0 0000005cH .text$_ZNSt3__114__unwrap_rangeB6v15007IPKiS2_EENS_4pairIT0_S4_EET_S6_ CODE
 0001:0006f050 000000a9H .text$_ZNSt3__111__copy_implB6v15007IKiivEENS_4pairIPT_PT0_EES4_S4_S6_ CODE
 0001:0006f100 00000019H .text$_ZNSt3__113__unwrap_iterB6v15007IPiNS_18__unwrap_iter_implIS1_Lb1EEELi0EEEDTclsrT0_8__unwrapclsr3stdE7declvalIT_EEEES5_ CODE
 0001:0006f120 00000034H .text$_ZNSt3__19make_pairB6v15007IPKiPiEENS_4pairINS_18__unwrap_ref_decayIT_E4typeENS5_IT0_E4typeEEEOS6_OS9_ CODE
 0001:0006f160 00000023H .text$_ZNSt3__114__rewrap_rangeB6v15007IPKiS2_EET_S3_T0_ CODE
 0001:0006f190 0000003aH .text$_ZNSt3__113__rewrap_iterB6v15007IPiS1_NS_18__unwrap_iter_implIS1_Lb1EEEEET_S4_T0_ CODE
 0001:0006f1d0 00000034H .text$_ZNSt3__19make_pairB6v15007IPKiS2_EENS_4pairINS_18__unwrap_ref_decayIT_E4typeENS4_IT0_E4typeEEEOS5_OS8_ CODE
 0001:0006f210 00000019H .text$_ZNSt3__113__unwrap_iterB6v15007IPKiNS_18__unwrap_iter_implIS2_Lb1EEELi0EEEDTclsrT0_8__unwrapclsr3stdE7declvalIT_EEEES6_ CODE
 0001:0006f230 0000002dH .text$_ZNSt3__14pairIPKiS2_EC1B6v15007IS2_S2_LPv0EEEOT_OT0_ CODE
 0001:0006f260 00000032H .text$_ZNSt3__14pairIPKiS2_EC2B6v15007IS2_S2_LPv0EEEOT_OT0_ CODE
 0001:0006f2a0 00000019H .text$_ZNSt3__118__unwrap_iter_implIPKiLb1EE8__unwrapB6v15007ES2_ CODE
 0001:0006f2c0 0000000bH .text$_ZNSt3__112__to_addressB6v15007IKiEEPT_S3_ CODE
 0001:0006f2d0 00000019H .text$_ZNSt3__118__unwrap_iter_implIPiLb1EE8__unwrapB6v15007ES1_ CODE
 0001:0006f2f0 0000002dH .text$_ZNSt3__14pairIPKiPiEC1B6v15007IS2_S3_LPv0EEEOT_OT0_ CODE
 0001:0006f320 00000032H .text$_ZNSt3__14pairIPKiPiEC2B6v15007IS2_S3_LPv0EEEOT_OT0_ CODE
 0001:0006f360 0000003aH .text$_ZNSt3__113__rewrap_iterB6v15007IPKiS2_NS_18__unwrap_iter_implIS2_Lb1EEEEET_S5_T0_ CODE
 0001:0006f3a0 0000004cH .text$_ZNSt3__118__unwrap_iter_implIPKiLb1EE8__rewrapB6v15007ES2_S2_ CODE
 0001:0006f3f0 0000004cH .text$_ZNSt3__118__unwrap_iter_implIPiLb1EE8__rewrapB6v15007ES1_S1_ CODE
 0001:0006f440 00000016H .text$_ZNSt3__16vectorIiNS_9allocatorIiEEE21_ConstructTransactionD2Ev CODE
 0001:0006f460 0000003fH .text$_ZNSt3__113__transactionINS_6vectorIiNS_9allocatorIiEEE16__destroy_vectorEED2B6v15007Ev CODE
 0001:0006f4a0 0000008cH .text$_ZNSt3__16vectorIiNS_9allocatorIiEEE16__destroy_vectorclB6v15007Ev CODE
 0001:0006f530 000000c3H .text$_ZNKSt3__16vectorIiNS_9allocatorIiEEE17__annotate_deleteB6v15007Ev CODE
 0001:0006f600 00000007H .text$_ZNSt3__118__debug_db_erase_cB6v15007INS_6vectorIiNS_9allocatorIiEEEEEEvPT_ CODE
 0001:0006f610 0000001cH .text$_ZNSt3__16vectorIiNS_9allocatorIiEEE7__clearB6v15007Ev CODE
 0001:0006f630 0000002dH .text$_ZNSt3__116allocator_traitsINS_9allocatorIiEEE10deallocateB6v15007ERS2_Piy CODE
 0001:0006f660 00000019H .text$_ZNKSt3__16vectorIiNS_9allocatorIiEEE4sizeB6v15007Ev CODE
 0001:0006f680 00000086H .text$_ZNSt3__16vectorIiNS_9allocatorIiEEE22__base_destruct_at_endB6v15007EPi CODE
 0001:0006f710 00000023H .text$_ZNSt3__116allocator_traitsINS_9allocatorIiEEE7destroyB6v15007IivEEvRS2_PT_ CODE
 0001:0006f740 00000012H .text$_ZNSt3__19allocatorIiE7destroyB6v15007EPi CODE
 0001:0006f760 0000003fH .text$_ZNSt3__19allocatorIiE10deallocateB6v15007EPiy CODE
 0001:0006f7a0 0000003aH .text$_ZNSt3__16vectorIiNS_9allocatorIiEEED2B6v15007Ev CODE
 0001:0006f7e0 0000012dH .text$_ZNSt3__16vectorIjNS_9allocatorIjEEEC2ERKS3_ CODE
 0001:0006f910 00000011H .text$_ZNSt3__116allocator_traitsINS_9allocatorIjEEE37select_on_container_copy_constructionB6v15007IS2_vvEES2_RKS2_ CODE
 0001:0006f930 0000002dH .text$_ZNSt3__117__compressed_pairIPjNS_9allocatorIjEEEC1B6v15007IDnS3_EEOT_OT0_ CODE
 0001:0006f960 00000099H .text$_ZNSt3__16vectorIjNS_9allocatorIjEEE18__construct_at_endIPjEENS_9enable_ifIXsr27__is_cpp17_forward_iteratorIT_EE5valueEvE4typeES7_S7_y CODE
 0001:0006fa00 0000003cH .text$_ZNSt3__117__compressed_pairIPjNS_9allocatorIjEEEC2B6v15007IDnS3_EEOT_OT0_ CODE
 0001:0006fa40 00000012H .text$_ZNSt3__122__compressed_pair_elemINS_9allocatorIjEELi1ELb1EEC2B6v15007IS2_vEEOT_ CODE
 0001:0006fa60 0000010cH .text$_ZNSt3__130__uninitialized_allocator_copyB6v15007INS_9allocatorIjEEPjS3_S3_EET2_RT_T0_T1_S4_ CODE
 0001:0006fb70 0000002dH .text$_ZNSt3__116allocator_traitsINS_9allocatorIjEEE9constructB6v15007IjJRjEvEEvRS2_PT_DpOT0_ CODE
 0001:0006fba0 00000037H .text$_ZNSt3__129_AllocatorDestroyRangeReverseINS_9allocatorIjEEPjEC1B6v15007ERS2_RS3_S6_ CODE
 0001:0006fbe0 0000005cH .text$_ZNKSt3__129_AllocatorDestroyRangeReverseINS_9allocatorIjEEPjEclB6v15007Ev CODE
 0001:0006fc40 00000024H .text$_ZNSt3__19allocatorIjE9constructB6v15007IjJRjEEEvPT_DpOT0_ CODE
 0001:0006fc70 0000003aH .text$_ZNSt3__129_AllocatorDestroyRangeReverseINS_9allocatorIjEEPjEC2B6v15007ERS2_RS3_S6_ CODE
 0001:0006fcb0 00000064H .text$_ZNSt3__119__allocator_destroyB6v15007INS_9allocatorIjEENS_16reverse_iteratorIPjEES5_EEvRT_T0_T1_ CODE
 0001:0006fd20 00000023H .text$_ZNSt3__116reverse_iteratorIPjEC1B6v15007ES1_ CODE
 0001:0006fd50 0000003fH .text$_ZNSt3__1neB6v15007IPjS1_EEbRKNS_16reverse_iteratorIT_EERKNS2_IT0_EE CODE
 0001:0006fd90 00000019H .text$_ZNSt3__112__to_addressB6v15007INS_16reverse_iteratorIPjEEvEENS_5decayIDTclsr19__to_address_helperIT_EE6__callcl7declvalIRKS5_EEEEE4typeES7_ CODE
 0001:0006fdb0 00000017H .text$_ZNSt3__116reverse_iteratorIPjEppB6v15007Ev CODE
 0001:0006fdd0 0000000fH .text$_ZNKSt3__116reverse_iteratorIPjE4baseB6v15007Ev CODE
 0001:0006fde0 00000036H .text$_ZNSt3__119__to_address_helperINS_16reverse_iteratorIPjEEvE6__callB6v15007ERKS3_ CODE
 0001:0006fe20 00000019H .text$_ZNKSt3__116reverse_iteratorIPjEptB6v15007Ev CODE
 0001:0006fe40 00000027H .text$_ZNKSt3__116reverse_iteratorIPjEdeB6v15007Ev CODE
 0001:0006fe70 00000026H .text$_ZNSt3__116reverse_iteratorIPjEC2B6v15007ES1_ CODE
 0001:0006fea0 0000002dH .text$_ZNSt3__111__wrap_iterIPjEC1B6v15007EPKvS1_ CODE
 0001:0006fed0 00000023H .text$_ZNSt3__111__wrap_iterIPjEC2B6v15007EPKvS1_ CODE
 0001:0006ff00 00000075H .text$_ZNSt3__14findB6v15007INS_11__wrap_iterIPjEEjEET_S4_S4_RKT0_ CODE
 0001:0006ff80 0000003bH .text$_ZNSt3__1miB6v15007IPKjPjEEDTmicldtfp_4baseEcldtfp0_4baseEERKNS_11__wrap_iterIT_EERKNS5_IT0_EE CODE
 0001:0006ffc0 00000029H .text$_ZNSt3__1neB6v15007IPKjEEbRKNS_11__wrap_iterIT_EES7_ CODE
 0001:0006fff0 00000063H .text$_ZNSt3__16vectorIjNS_9allocatorIjEEE17__destruct_at_endB6v15007EPj CODE
 0001:00070060 00000036H .text$_ZNSt3__14moveB6v15007IPjS1_EET0_T_S3_S2_ CODE
 0001:000700a0 0000003bH .text$_ZNSt3__1miB6v15007IPKjS2_EEDTmicldtfp_4baseEcldtfp0_4baseEERKNS_11__wrap_iterIT_EERKNS4_IT0_EE CODE
 0001:000700e0 00000012H .text$_ZNSt3__16vectorIjNS_9allocatorIjEEE27__invalidate_iterators_pastB6v15007EPj CODE
 0001:00070100 0000000eH .text$_ZNKSt3__111__wrap_iterIPKjE4baseB6v15007Ev CODE
 0001:00070110 0000003fH .text$_ZNSt3__1eqB6v15007IPKjEEbRKNS_11__wrap_iterIT_EES7_ CODE
 0001:00070150 000000b6H .text$_ZNKSt3__16vectorIjNS_9allocatorIjEEE17__annotate_shrinkB6v15007Ey CODE
 0001:00070210 000000b3H .text$_ZNSt3__16__moveB6v15007INS_17_ClassicAlgPolicyEPjS2_S2_EENS_9enable_ifIXaaaasr21is_copy_constructibleIT0_EE5valuesr21is_copy_constructibleIT1_EE5valuesr21is_copy_constructibleIT2_EE5valueENS_4pairIS4_S6_EEE4typeES4_S5_S6_ CODE
 0001:000702d0 0000009dH .text$_ZNSt3__111__move_implB6v15007INS_17_ClassicAlgPolicyEjjvEENS_4pairIPT0_PT1_EES4_S4_S6_ CODE
 0001:00070370 00000034H .text$_ZNSt3__19make_pairB6v15007IPjS1_EENS_4pairINS_18__unwrap_ref_decayIT_E4typeENS3_IT0_E4typeEEEOS4_OS7_ CODE
 0001:000703b0 0000002dH .text$_ZNSt3__14pairIPjS1_EC1B6v15007IS1_S1_LPv0EEEOT_OT0_ CODE
 0001:000703e0 00000032H .text$_ZNSt3__14pairIPjS1_EC2B6v15007IS1_S1_LPv0EEEOT_OT0_ CODE
 0001:00070420 00000007H .text$_ZNSt3__125__debug_db_invalidate_allB6v15007INS_6vectorIjNS_9allocatorIjEEEEEEvPT_ CODE
 0001:00070430 00000028H .text$_ZNSt3__16vectorIjNS_9allocatorIjEEE19__copy_assign_allocB6v15007ERKS3_ CODE
 0001:00070460 0000018fH .text$_ZNSt3__16vectorIjNS_9allocatorIjEEE6assignIPjEENS_9enable_ifIXaasr27__is_cpp17_forward_iteratorIT_EE5valuesr16is_constructibleIjNS_15iterator_traitsIS7_E9referenceEEE5valueEvE4typeES7_S7_ CODE
 0001:000705f0 00000017H .text$_ZNSt3__16vectorIjNS_9allocatorIjEEE19__copy_assign_allocB6v15007ERKS3_NS_17integral_constantIbLb0EEE CODE
 0001:00070610 00000028H .text$_ZNSt3__18distanceB6v15007IPjEENS_15iterator_traitsIT_E15difference_typeES3_S3_ CODE
 0001:00070640 00000058H .text$_ZNSt3__17advanceB6v15007IPjyyvEEvRT_T0_ CODE
 0001:000706a0 00000036H .text$_ZNSt3__14copyB6v15007IPjS1_EET0_T_S3_S2_ CODE
 0001:000706e0 00000087H .text$_ZNSt3__16vectorIjNS_9allocatorIjEEE13__vdeallocateEv CODE
 0001:00070770 000000a0H .text$_ZNKSt3__16vectorIjNS_9allocatorIjEEE11__recommendB6v15007Ey CODE
 0001:00070810 00000027H .text$_ZNSt3__110__distanceB6v15007IPjEENS_15iterator_traitsIT_E15difference_typeES3_S3_NS_26random_access_iterator_tagE CODE
 0001:00070840 0000002aH .text$_ZNSt3__19__advanceB6v15007IPjEEvRT_NS_15iterator_traitsIS2_E15difference_typeENS_26random_access_iterator_tagE CODE
 0001:00070870 000000ccH .text$_ZNSt3__16__copyB6v15007IPjS1_S1_Li0EEENS_4pairIT_T1_EES3_T0_S4_ CODE
 0001:00070940 0000005cH .text$_ZNSt3__114__unwrap_rangeB6v15007IPjS1_EENS_4pairIT0_S3_EET_S5_ CODE
 0001:000709a0 000000a9H .text$_ZNSt3__111__copy_implB6v15007IjjvEENS_4pairIPT_PT0_EES3_S3_S5_ CODE
 0001:00070a50 00000023H .text$_ZNSt3__114__rewrap_rangeB6v15007IPjS1_EET_S2_T0_ CODE
 0001:00070a80 00000099H .text$_ZNSt3__16vectorIjNS_9allocatorIjEEE22__construct_one_at_endB6v15007IJRKjEEEvDpOT_ CODE
 0001:00070b20 000000eeH .text$_ZNSt3__16vectorIjNS_9allocatorIjEEE21__push_back_slow_pathIRKjEEvOT_ CODE
 0001:00070c10 0000002dH .text$_ZNSt3__116allocator_traitsINS_9allocatorIjEEE9constructB6v15007IjJRKjEvEEvRS2_PT_DpOT0_ CODE
 0001:00070c40 00000024H .text$_ZNSt3__19allocatorIjE9constructB6v15007IjJRKjEEEvPT_DpOT0_ CODE
 0001:00070c70 00000037H .text$_ZNSt3__114__split_bufferIjRNS_9allocatorIjEEEC1EyyS3_ CODE
 0001:00070cb0 0000014cH .text$_ZNSt3__16vectorIjNS_9allocatorIjEEE26__swap_out_circular_bufferERNS_14__split_bufferIjRS2_EE CODE
 0001:00070e00 00000019H .text$_ZNSt3__114__split_bufferIjRNS_9allocatorIjEEED1Ev CODE
 0001:00070e20 000000d0H .text$_ZNSt3__114__split_bufferIjRNS_9allocatorIjEEEC2EyyS3_ CODE
 0001:00070ef0 0000002dH .text$_ZNSt3__117__compressed_pairIPjRNS_9allocatorIjEEEC1B6v15007IDnS4_EEOT_OT0_ CODE
 0001:00070f20 0000001dH .text$_ZNSt3__114__split_bufferIjRNS_9allocatorIjEEE7__allocB6v15007Ev CODE
 0001:00070f40 0000001dH .text$_ZNSt3__114__split_bufferIjRNS_9allocatorIjEEE9__end_capB6v15007Ev CODE
 0001:00070f60 00000040H .text$_ZNSt3__117__compressed_pairIPjRNS_9allocatorIjEEEC2B6v15007IDnS4_EEOT_OT0_ CODE
 0001:00070fa0 0000001eH .text$_ZNSt3__122__compressed_pair_elemIRNS_9allocatorIjEELi1ELb0EEC2B6v15007IS3_vEEOT_ CODE
 0001:00070fc0 0000001dH .text$_ZNSt3__117__compressed_pairIPjRNS_9allocatorIjEEE6secondB6v15007Ev CODE
 0001:00070fe0 0000000eH .text$_ZNSt3__122__compressed_pair_elemIRNS_9allocatorIjEELi1ELb0EE5__getB6v15007Ev CODE
 0001:00070ff0 00000019H .text$_ZNSt3__117__compressed_pairIPjRNS_9allocatorIjEEE5firstB6v15007Ev CODE
 0001:00071010 0000006fH .text$_ZNSt3__142__uninitialized_allocator_move_if_noexceptB6v15007INS_9allocatorIjEENS_16reverse_iteratorIPjEES5_jvEET1_RT_T0_S9_S6_ CODE
 0001:00071080 0000003bH .text$_ZNSt3__14swapB6v15007IPjEENS_9enable_ifIXaasr21is_move_constructibleIT_EE5valuesr18is_move_assignableIS3_EE5valueEvE4typeERS3_S6_ CODE
 0001:000710c0 0000008bH .text$_ZNSt3__14moveB6v15007INS_16reverse_iteratorIPjEES3_EET0_T_S5_S4_ CODE
 0001:00071150 0000019fH .text$_ZNSt3__16__moveB6v15007INS_17_ClassicAlgPolicyENS_16reverse_iteratorIPjEES4_S4_EENS_9enable_ifIXaaaasr21is_copy_constructibleIT0_EE5valuesr21is_copy_constructibleIT1_EE5valuesr21is_copy_constructibleIT2_EE5valueENS_4pairIS6_S8_EEE4typeES6_S7_S8_ CODE
 0001:000712f0 0000010aH .text$_ZNSt3__111__move_implB6v15007INS_17_ClassicAlgPolicyEPjS2_Li0EEENS_4pairINS_16reverse_iteratorIT0_EENS4_IT1_EEEES6_S6_S8_ CODE
 0001:00071400 00000036H .text$_ZNSt3__113__unwrap_iterB6v15007INS_16reverse_iteratorIPjEENS_18__unwrap_iter_implIS3_Lb0EEELi0EEEDTclsrT0_8__unwrapclsr3stdE7declvalIT_EEEES7_ CODE
 0001:00071440 00000034H .text$_ZNSt3__19make_pairB6v15007INS_16reverse_iteratorIPjEES3_EENS_4pairINS_18__unwrap_ref_decayIT_E4typeENS5_IT0_E4typeEEEOS6_OS9_ CODE
 0001:00071480 00000049H .text$_ZNSt3__113__rewrap_iterB6v15007INS_16reverse_iteratorIPjEES3_NS_18__unwrap_iter_implIS3_Lb0EEEEET_S6_T0_ CODE
 0001:000714d0 00000034H .text$_ZNSt3__19make_pairB6v15007IRNS_16reverse_iteratorIPjEES3_EENS_4pairINS_18__unwrap_ref_decayIT_E4typeENS6_IT0_E4typeEEEOS7_OSA_ CODE
 0001:00071510 0000002dH .text$_ZNSt3__14pairINS_16reverse_iteratorIPjEES3_EC1B6v15007IRS3_S3_LPv0EEEOT_OT0_ CODE
 0001:00071540 00000042H .text$_ZNSt3__14pairINS_16reverse_iteratorIPjEES3_EC2B6v15007IRS3_S3_LPv0EEEOT_OT0_ CODE
 0001:00071590 00000018H .text$_ZNSt3__118__unwrap_iter_implINS_16reverse_iteratorIPjEELb0EE8__unwrapB6v15007ES3_ CODE
 0001:000715b0 0000002dH .text$_ZNSt3__14pairINS_16reverse_iteratorIPjEES3_EC1B6v15007IS3_S3_LPv0EEEOT_OT0_ CODE
 0001:000715e0 00000042H .text$_ZNSt3__14pairINS_16reverse_iteratorIPjEES3_EC2B6v15007IS3_S3_LPv0EEEOT_OT0_ CODE
 0001:00071630 00000018H .text$_ZNSt3__118__unwrap_iter_implINS_16reverse_iteratorIPjEELb0EE8__rewrapB6v15007ES3_S3_ CODE
 0001:00071650 00000075H .text$_ZNSt3__114__split_bufferIjRNS_9allocatorIjEEED2Ev CODE
 0001:000716d0 0000001dH .text$_ZNSt3__114__split_bufferIjRNS_9allocatorIjEEE5clearB6v15007Ev CODE
 0001:000716f0 0000002fH .text$_ZNKSt3__114__split_bufferIjRNS_9allocatorIjEEE8capacityB6v15007Ev CODE
 0001:00071720 00000028H .text$_ZNSt3__114__split_bufferIjRNS_9allocatorIjEEE17__destruct_at_endB6v15007EPj CODE
 0001:00071750 0000007eH .text$_ZNSt3__114__split_bufferIjRNS_9allocatorIjEEE17__destruct_at_endB6v15007EPjNS_17integral_constantIbLb0EEE CODE
 0001:000717d0 0000001dH .text$_ZNKSt3__114__split_bufferIjRNS_9allocatorIjEEE9__end_capB6v15007Ev CODE
 0001:000717f0 00000019H .text$_ZNKSt3__117__compressed_pairIPjRNS_9allocatorIjEEE5firstB6v15007Ev CODE
 0001:00071810 00000163H .text$_ZNSt3__19__shuffleINS_17_ClassicAlgPolicyENS_11__wrap_iterIPNS_12basic_stringIcNS_11char_traitsIcEENS_9allocatorIcEEEEEESA_RNS_23mersenne_twister_engineIjLy32ELy624ELy397ELy31ELj2567483615ELy11ELj4294967295ELy7ELj2636928640ELy15ELj4022730752ELy18ELj1812433253EEEEET0_SE_T1_OT2_ CODE
 0001:00071980 00000020H .text$_ZNSt3__18_IterOpsINS_17_ClassicAlgPolicyEE4nextB6v15007INS_11__wrap_iterIPNS_12basic_stringIcNS_11char_traitsIcEENS_9allocatorIcEEEEEEEET_SD_SD_ CODE
 0001:000719a0 00000041H .text$_ZNSt3__1miB6v15007IPNS_12basic_stringIcNS_11char_traitsIcEENS_9allocatorIcEEEES7_EEDTmicldtfp_4baseEcldtfp0_4baseEERKNS_11__wrap_iterIT_EERKNS9_IT0_EE CODE
